(lp0
S'z(5, 28)'
p1
aS'z(15, 25)'
p2
aS'z(5, 26)'
p3
aS'z(9, 16)'
p4
aS'z(16, 11)'
p5
aS'z(13, 22)'
p6
aS'z(0, 17)'
p7
aS'z(18, 1)'
p8
aS'z(17, 9)'
p9
aS'z(15, 14)'
p10
aS'z(2, 24)'
p11
aS'z(15, 20)'
p12
aS'z(13, 25)'
p13
aS'z(4, 13)'
p14
aS'z(20, 4)'
p15
a.