(lp0
S'z(5, 28)'
p1
aS'z(11, 9)'
p2
aS'z(5, 26)'
p3
aS'z(12, 5)'
p4
aS'z(6, 10)'
p5
aS'z(16, 11)'
p6
aS'z(13, 22)'
p7
aS'z(25, 3)'
p8
aS'z(26, 6)'
p9
aS'z(1, 14)'
p10
aS'z(15, 14)'
p11
aS'z(2, 24)'
p12
aS'z(13, 25)'
p13
a.