(lp0
S'z(2, 4)'
p1
aS'z(5, 28)'
p2
aS'z(20, 9)'
p3
aS'z(5, 26)'
p4
aS'z(5, 5)'
p5
aS'z(14, 5)'
p6
aS'z(20, 14)'
p7
aS'z(15, 1)'
p8
aS'z(18, 1)'
p9
aS'z(5, 8)'
p10
aS'z(5, 3)'
p11
aS'z(15, 20)'
p12
aS'z(13, 25)'
p13
a.