(lp0
S'z(5, 28)'
p1
aS'z(20, 9)'
p2
aS'z(6, 16)'
p3
aS'z(5, 26)'
p4
aS'z(22, 9)'
p5
aS'z(13, 22)'
p6
aS'z(0, 17)'
p7
aS'z(5, 8)'
p8
aS'z(15, 14)'
p9
aS'z(15, 20)'
p10
aS'z(13, 25)'
p11
aS'z(20, 4)'
p12
a.