(lp0
S'z(5, 28)'
p1
aS'z(6, 16)'
p2
aS'z(11, 9)'
p3
aS'z(15, 9)'
p4
aS'z(5, 26)'
p5
aS'z(13, 16)'
p6
aS'z(13, 22)'
p7
aS'z(3, 15)'
p8
aS'z(15, 14)'
p9
aS'z(15, 20)'
p10
aS'z(13, 25)'
p11
aS'z(6, 12)'
p12
a.