(lp0
S'z(5, 28)'
p1
aS'z(20, 9)'
p2
aS'z(5, 26)'
p3
aS'z(9, 16)'
p4
aS'z(20, 14)'
p5
aS'z(6, 10)'
p6
aS'z(16, 11)'
p7
aS'z(18, 1)'
p8
aS'z(18, 4)'
p9
aS'z(15, 20)'
p10
aS'z(13, 25)'
p11
aS'z(20, 4)'
p12
a.