(lp0
S'z(2, 4)'
p1
aS'z(5, 28)'
p2
aS'z(15, 25)'
p3
aS'z(11, 9)'
p4
aS'z(5, 26)'
p5
aS'z(12, 5)'
p6
aS'z(5, 5)'
p7
aS'z(14, 5)'
p8
aS'z(6, 10)'
p9
aS'z(13, 22)'
p10
aS'z(5, 3)'
p11
aS'z(15, 14)'
p12
aS'z(13, 25)'
p13
a.