(dp0
S'1010200130'
p1
ccopy_reg
_reconstructor
p2
(c_class
Landmark
p3
c__builtin__
object
p4
Ntp5
Rp6
(dp7
S'lid'
p8
g1
sS'z'
p9
g2
(c_class
Zone
p10
g4
Ntp11
Rp12
(dp13
S'i'
p14
I2
sS'zid'
p15
S'z(2, 14)'
p16
sS'j'
p17
I14
sS'coords'
p18
(I2
I14
tp19
sS'bs'
p20
(lp21
sbsbsS'1010200131'
p22
g2
(g3
g4
Ntp23
Rp24
(dp25
g8
g22
sg9
g2
(g10
g4
Ntp26
Rp27
(dp28
g14
I2
sg15
S'z(2, 12)'
p29
sg17
I12
sg18
(I2
I12
tp30
sg20
(lp31
sbsbsS'1010200132'
p32
g2
(g3
g4
Ntp33
Rp34
(dp35
g8
g32
sg9
g2
(g10
g4
Ntp36
Rp37
(dp38
g14
I1
sg15
S'z(1, 12)'
p39
sg17
I12
sg18
(I1
I12
tp40
sg20
(lp41
sbsbsS'1010200133'
p42
g2
(g3
g4
Ntp43
Rp44
(dp45
g8
g42
sg9
g2
(g10
g4
Ntp46
Rp47
(dp48
g14
I0
sg15
S'z(0, 12)'
p49
sg17
I12
sg18
(I0
I12
tp50
sg20
(lp51
sbsbsS'1010200134'
p52
g2
(g3
g4
Ntp53
Rp54
(dp55
g8
g52
sg9
g2
(g10
g4
Ntp56
Rp57
(dp58
g14
I0
sg15
S'z(0, 13)'
p59
sg17
I13
sg18
(I0
I13
tp60
sg20
(lp61
sbsbsS'1010200135'
p62
g2
(g3
g4
Ntp63
Rp64
(dp65
g8
g62
sg9
g2
(g10
g4
Ntp66
Rp67
(dp68
g14
I1
sg15
S'z(1, 14)'
p69
sg17
I14
sg18
(I1
I14
tp70
sg20
(lp71
sbsbsS'1010200136'
p72
g2
(g3
g4
Ntp73
Rp74
(dp75
g8
g72
sg9
g2
(g10
g4
Ntp76
Rp77
(dp78
g14
I0
sg15
S'z(0, 15)'
p79
sg17
I15
sg18
(I0
I15
tp80
sg20
(lp81
sbsbsS'1010200137'
p82
g2
(g3
g4
Ntp83
Rp84
(dp85
g8
g82
sg9
g2
(g10
g4
Ntp86
Rp87
(dp88
g14
I0
sg15
S'z(0, 17)'
p89
sg17
I17
sg18
(I0
I17
tp90
sg20
(lp91
sbsbsS'1010200138'
p92
g2
(g3
g4
Ntp93
Rp94
(dp95
g8
g92
sg9
g2
(g10
g4
Ntp96
Rp97
(dp98
g14
I2
sg15
S'z(2, 17)'
p99
sg17
I17
sg18
(I2
I17
tp100
sg20
(lp101
sbsbsS'1010200139'
p102
g2
(g3
g4
Ntp103
Rp104
(dp105
g8
g102
sg9
g2
(g10
g4
Ntp106
Rp107
(dp108
g14
I4
sg15
S'z(4, 23)'
p109
sg17
I23
sg18
(I4
I23
tp110
sg20
(lp111
sbsbsS'1010200031'
p112
g2
(g3
g4
Ntp113
Rp114
(dp115
g8
g112
sg9
g2
(g10
g4
Ntp116
Rp117
(dp118
g14
I15
sg15
S'z(15, 20)'
p119
sg17
I20
sg18
(I15
I20
tp120
sg20
(lp121
sbsbsS'1010200030'
p122
g2
(g3
g4
Ntp123
Rp124
(dp125
g8
g122
sg9
g2
(g10
g4
Ntp126
Rp127
(dp128
g14
I15
sg15
S'z(15, 16)'
p129
sg17
I16
sg18
(I15
I16
tp130
sg20
(lp131
sbsbsS'1010200033'
p132
g2
(g3
g4
Ntp133
Rp134
(dp135
g8
g132
sg9
g2
(g10
g4
Ntp136
Rp137
(dp138
g14
I6
sg15
S'z(6, 14)'
p139
sg17
I14
sg18
(I6
I14
tp140
sg20
(lp141
sbsbsS'1010200032'
p142
g2
(g3
g4
Ntp143
Rp144
(dp145
g8
g142
sg9
g2
(g10
g4
Ntp146
Rp147
(dp148
g14
I13
sg15
S'z(13, 20)'
p149
sg17
I20
sg18
(I13
I20
tp150
sg20
(lp151
sbsbsS'1010200035'
p152
g2
(g3
g4
Ntp153
Rp154
(dp155
g8
g152
sg9
g2
(g10
g4
Ntp156
Rp157
(dp158
g14
I6
sg15
S'z(6, 10)'
p159
sg17
I10
sg18
(I6
I10
tp160
sg20
(lp161
sbsbsS'1010200034'
p162
g2
(g3
g4
Ntp163
Rp164
(dp165
g8
g162
sg9
g2
(g10
g4
Ntp166
Rp167
(dp168
g14
I6
sg15
S'z(6, 12)'
p169
sg17
I12
sg18
(I6
I12
tp170
sg20
(lp171
sbsbsS'1010200037'
p172
g2
(g3
g4
Ntp173
Rp174
(dp175
g8
g172
sg9
g2
(g10
g4
Ntp176
Rp177
(dp178
g14
I5
sg15
S'z(5, 8)'
p179
sg17
I8
sg18
(I5
I8
tp180
sg20
(lp181
sbsbsS'1010200036'
p182
g2
(g3
g4
Ntp183
Rp184
(dp185
g8
g182
sg9
g2
(g10
g4
Ntp186
Rp187
(dp188
g14
I5
sg15
S'z(5, 10)'
p189
sg17
I10
sg18
(I5
I10
tp190
sg20
(lp191
sbsbsS'1010200039'
p192
g2
(g3
g4
Ntp193
Rp194
(dp195
g8
g192
sg9
g2
(g10
g4
Ntp196
Rp197
(dp198
g14
I9
sg15
S'z(9, 9)'
p199
sg17
I9
sg18
(I9
I9
tp200
sg20
(lp201
sbsbsS'1010200038'
p202
g2
(g3
g4
Ntp203
Rp204
(dp205
g8
g202
sg9
g2
(g10
g4
Ntp206
Rp207
(dp208
g14
I7
sg15
S'z(7, 9)'
p209
sg17
I9
sg18
(I7
I9
tp210
sg20
(lp211
sbsbsS'1010200127'
p212
g2
(g3
g4
Ntp213
Rp214
(dp215
g8
g212
sg9
g2
(g10
g4
Ntp216
Rp217
(dp218
g14
I4
sg15
S'z(4, 13)'
p219
sg17
I13
sg18
(I4
I13
tp220
sg20
(lp221
sbsbsS'1010200126'
p222
g2
(g3
g4
Ntp223
Rp224
(dp225
g8
g222
sg9
g2
(g10
g4
Ntp226
Rp227
(dp228
g14
I4
sg15
S'z(4, 14)'
p229
sg17
I14
sg18
(I4
I14
tp230
sg20
(lp231
sbsbsS'1010200125'
p232
g2
(g3
g4
Ntp233
Rp234
(dp235
g8
g232
sg9
g2
(g10
g4
Ntp236
Rp237
(dp238
g14
I4
sg15
S'z(4, 7)'
p239
sg17
I7
sg18
(I4
I7
tp240
sg20
(lp241
sbsbsS'1010200124'
p242
g2
(g3
g4
Ntp243
Rp244
(dp245
g8
g242
sg9
g2
(g10
g4
Ntp246
Rp247
(dp248
g14
I4
sg15
S'z(4, 5)'
p249
sg17
I5
sg18
(I4
I5
tp250
sg20
(lp251
sbsbsS'1010200123'
p252
g2
(g3
g4
Ntp253
Rp254
(dp255
g8
g252
sg9
g2
(g10
g4
Ntp256
Rp257
(dp258
g14
I5
sg15
S'z(5, 5)'
p259
sg17
I5
sg18
(I5
I5
tp260
sg20
(lp261
sbsbsS'1010200122'
p262
g2
(g3
g4
Ntp263
Rp264
(dp265
g8
g262
sg9
g2
(g10
g4
Ntp266
Rp267
(dp268
g14
I6
sg15
S'z(6, 5)'
p269
sg17
I5
sg18
(I6
I5
tp270
sg20
(lp271
sbsbsS'1010200121'
p272
g2
(g3
g4
Ntp273
Rp274
(dp275
g8
g272
sg9
g2
(g10
g4
Ntp276
Rp277
(dp278
g14
I6
sg15
S'z(6, 4)'
p279
sg17
I4
sg18
(I6
I4
tp280
sg20
(lp281
sbsbsS'1010200120'
p282
g2
(g3
g4
Ntp283
Rp284
(dp285
g8
g282
sg9
g2
(g10
g4
Ntp286
Rp287
(dp288
g14
I5
sg15
S'z(5, 3)'
p289
sg17
I3
sg18
(I5
I3
tp290
sg20
(lp291
sbsbsS'1010200129'
p292
g2
(g3
g4
Ntp293
Rp294
(dp295
g8
g292
sg9
g2
(g10
g4
Ntp296
Rp297
(dp298
g14
I3
sg15
S'z(3, 14)'
p299
sg17
I14
sg18
(I3
I14
tp300
sg20
(lp301
sbsbsS'1010200128'
p302
g2
(g3
g4
Ntp303
Rp304
(dp305
g8
g302
sg9
g2
(g10
g4
Ntp306
Rp307
(dp308
g14
I3
sg15
S'z(3, 12)'
p309
sg17
I12
sg18
(I3
I12
tp310
sg20
(lp311
sbsbsS'1010200004'
p312
g2
(g3
g4
Ntp313
Rp314
(dp315
g8
g312
sg9
g2
(g10
g4
Ntp316
Rp317
(dp318
g14
I15
sg15
S'z(15, 27)'
p319
sg17
I27
sg18
(I15
I27
tp320
sg20
(lp321
sbsbsS'1010200005'
p322
g2
(g3
g4
Ntp323
Rp324
(dp325
g8
g322
sg9
g2
(g10
g4
Ntp326
Rp327
(dp328
g14
I15
sg15
S'z(15, 29)'
p329
sg17
I29
sg18
(I15
I29
tp330
sg20
(lp331
sbsbsS'1010200006'
p332
g2
(g3
g4
Ntp333
Rp334
(dp335
g8
g332
sg9
g2
(g10
g4
Ntp336
Rp337
(dp338
g14
I13
sg15
S'z(13, 29)'
p339
sg17
I29
sg18
(I13
I29
tp340
sg20
(lp341
sbsbsS'1010200007'
p342
g2
(g3
g4
Ntp343
Rp344
(dp345
g8
g342
sg9
g2
(g10
g4
Ntp346
Rp347
(dp348
g14
I12
sg15
S'z(12, 29)'
p349
sg17
I29
sg18
(I12
I29
tp350
sg20
(lp351
sbsbsS'1010200001'
p352
g2
(g3
g4
Ntp353
Rp354
(dp355
g8
g352
sg9
g2
(g10
g4
Ntp356
Rp357
(dp358
g14
I15
sg15
S'z(15, 22)'
p359
sg17
I22
sg18
(I15
I22
tp360
sg20
(lp361
sbsbsS'1010200002'
p362
g2
(g3
g4
Ntp363
Rp364
(dp365
g8
g362
sg9
g2
(g10
g4
Ntp366
Rp367
(dp368
g14
I15
sg15
S'z(15, 23)'
p369
sg17
I23
sg18
(I15
I23
tp370
sg20
(lp371
sbsbsS'1010200003'
p372
g2
(g3
g4
Ntp373
Rp374
(dp375
g8
g372
sg9
g2
(g10
g4
Ntp376
Rp377
(dp378
g14
I15
sg15
S'z(15, 25)'
p379
sg17
I25
sg18
(I15
I25
tp380
sg20
(lp381
sbsbsS'1010200008'
p382
g2
(g3
g4
Ntp383
Rp384
(dp385
g8
g382
sg9
g2
(g10
g4
Ntp386
Rp387
(dp388
g14
I12
sg15
S'z(12, 28)'
p389
sg17
I28
sg18
(I12
I28
tp390
sg20
(lp391
sbsbsS'1010200009'
p392
g2
(g3
g4
Ntp393
Rp394
(dp395
g8
g392
sg9
g2
(g10
g4
Ntp396
Rp397
(dp398
g14
I13
sg15
S'z(13, 26)'
p399
sg17
I26
sg18
(I13
I26
tp400
sg20
(lp401
sbsbsS'1010200088'
p402
g2
(g3
g4
Ntp403
Rp404
(dp405
g8
g402
sg9
g2
(g10
g4
Ntp406
Rp407
(dp408
g14
I17
sg15
S'z(17, 14)'
p409
sg17
I14
sg18
(I17
I14
tp410
sg20
(lp411
sbsbsS'1010200089'
p412
g2
(g3
g4
Ntp413
Rp414
(dp415
g8
g412
sg9
g2
(g10
g4
Ntp416
Rp417
(dp418
g14
I17
sg15
S'z(17, 7)'
p419
sg17
I7
sg18
(I17
I7
tp420
sg20
(lp421
sbsbsS'1010200084'
p422
g2
(g3
g4
Ntp423
Rp424
(dp425
g8
g422
sg9
g2
(g10
g4
Ntp426
Rp427
(dp428
g14
I20
sg15
S'z(20, 14)'
p429
sg17
I14
sg18
(I20
I14
tp430
sg20
(lp431
sbsbsS'1010200085'
p432
g2
(g3
g4
Ntp433
Rp434
(dp435
g8
g432
sg9
g2
(g10
g4
Ntp436
Rp437
(dp438
g14
I19
sg15
S'z(19, 12)'
p439
sg17
I12
sg18
(I19
I12
tp440
sg20
(lp441
sbsbsS'1010200086'
p442
g2
(g3
g4
Ntp443
Rp444
(dp445
g8
g442
sg9
g2
(g10
g4
Ntp446
Rp447
(dp448
g14
I19
sg15
S'z(19, 14)'
p449
sg17
I14
sg18
(I19
I14
tp450
sg20
(lp451
sbsbsS'1010200087'
p452
g2
(g3
g4
Ntp453
Rp454
(dp455
g8
g452
sg9
g2
(g10
g4
Ntp456
Rp457
(dp458
g14
I17
sg15
S'z(17, 12)'
p459
sg17
I12
sg18
(I17
I12
tp460
sg20
(lp461
sbsbsS'1010200080'
p462
g2
(g3
g4
Ntp463
Rp464
(dp465
g8
g462
sg9
g2
(g10
g4
Ntp466
Rp467
(dp468
g14
I25
sg15
S'z(25, 3)'
p469
sg17
I3
sg18
(I25
I3
tp470
sg20
(lp471
sbsbsS'1010200081'
p472
g2
(g3
g4
Ntp473
Rp474
(dp475
g8
g472
sg9
g2
(g10
g4
Ntp476
Rp477
(dp478
g14
I26
sg15
S'z(26, 3)'
p479
sg17
I3
sg18
(I26
I3
tp480
sg20
(lp481
sbsbsS'1010200082'
p482
g2
(g3
g4
Ntp483
Rp484
(dp485
g8
g482
sg9
g2
(g10
g4
Ntp486
Rp487
(dp488
g14
I26
sg15
S'z(26, 8)'
p489
sg17
I8
sg18
(I26
I8
tp490
sg20
(lp491
sbsbsS'1010200083'
p492
g2
(g3
g4
Ntp493
Rp494
(dp495
g8
g492
sg9
g2
(g10
g4
Ntp496
Rp497
(dp498
g14
I20
sg15
S'z(20, 12)'
p499
sg17
I12
sg18
(I20
I12
tp500
sg20
(lp501
sbsbsS'1010200019'
p502
g2
(g3
g4
Ntp503
Rp504
(dp505
g8
g502
sg9
g2
(g10
g4
Ntp506
Rp507
(dp508
g14
I5
sg15
S'z(5, 28)'
p509
sg17
I28
sg18
(I5
I28
tp510
sg20
(lp511
sbsbsS'1010200018'
p512
g2
(g3
g4
Ntp513
Rp514
(dp515
g8
g512
sg9
g2
(g10
g4
Ntp516
Rp517
(dp518
g14
I5
sg15
S'z(5, 26)'
p519
sg17
I26
sg18
(I5
I26
tp520
sg20
(lp521
sbsbsS'1010200013'
p522
g2
(g3
g4
Ntp523
Rp524
(dp525
g8
g522
sg9
g2
(g10
g4
Ntp526
Rp527
(dp528
g14
I11
sg15
S'z(11, 22)'
p529
sg17
I22
sg18
(I11
I22
tp530
sg20
(lp531
sbsbsS'1010200012'
p532
g2
(g3
g4
Ntp533
Rp534
(dp535
g8
g532
sg9
g2
(g10
g4
Ntp536
Rp537
(dp538
g14
I13
sg15
S'z(13, 22)'
p539
sg17
I22
sg18
(I13
I22
tp540
sg20
(lp541
sbsbsS'1010200011'
p542
g2
(g3
g4
Ntp543
Rp544
(dp545
g8
g542
sg9
g2
(g10
g4
Ntp546
Rp547
(dp548
g14
I13
sg15
S'z(13, 23)'
p549
sg17
I23
sg18
(I13
I23
tp550
sg20
(lp551
sbsbsS'1010200010'
p552
g2
(g3
g4
Ntp553
Rp554
(dp555
g8
g552
sg9
g2
(g10
g4
Ntp556
Rp557
(dp558
g14
I13
sg15
S'z(13, 25)'
p559
sg17
I25
sg18
(I13
I25
tp560
sg20
(lp561
sbsbsS'1010200017'
p562
g2
(g3
g4
Ntp563
Rp564
(dp565
g8
g562
sg9
g2
(g10
g4
Ntp566
Rp567
(dp568
g14
I5
sg15
S'z(5, 23)'
p569
sg17
I23
sg18
(I5
I23
tp570
sg20
(lp571
sbsbsS'1010200016'
p572
g2
(g3
g4
Ntp573
Rp574
(dp575
g8
g572
sg9
g2
(g10
g4
Ntp576
Rp577
(dp578
g14
I6
sg15
S'z(6, 22)'
p579
sg17
I22
sg18
(I6
I22
tp580
sg20
(lp581
sbsbsS'1010200015'
p582
g2
(g3
g4
Ntp583
Rp584
(dp585
g8
g582
sg9
g2
(g10
g4
Ntp586
Rp587
(dp588
g14
I7
sg15
S'z(7, 22)'
p589
sg17
I22
sg18
(I7
I22
tp590
sg20
(lp591
sbsbsS'1010200014'
p592
g2
(g3
g4
Ntp593
Rp594
(dp595
g8
g592
sg9
g2
(g10
g4
Ntp596
Rp597
(dp598
g14
I9
sg15
S'z(9, 22)'
p599
sg17
I22
sg18
(I9
I22
tp600
sg20
(lp601
sbsbsS'1010200093'
p602
g2
(g3
g4
Ntp603
Rp604
(dp605
g8
g602
sg9
g2
(g10
g4
Ntp606
Rp607
(dp608
g14
I20
sg15
S'z(20, 2)'
p609
sg17
I2
sg18
(I20
I2
tp610
sg20
(lp611
sbsbsS'1010200092'
p612
g2
(g3
g4
Ntp613
Rp614
(dp615
g8
g612
sg9
g2
(g10
g4
Ntp616
Rp617
(dp618
g14
I20
sg15
S'z(20, 4)'
p619
sg17
I4
sg18
(I20
I4
tp620
sg20
(lp621
sbsbsS'1010200091'
p622
g2
(g3
g4
Ntp623
Rp624
(dp625
g8
g622
sg9
g2
(g10
g4
Ntp626
Rp627
(dp628
g14
I20
sg15
S'z(20, 7)'
p629
sg17
I7
sg18
(I20
I7
tp630
sg20
(lp631
sbsbsS'1010200090'
p632
g2
(g3
g4
Ntp633
Rp634
(dp635
g8
g632
sg9
g2
(g10
g4
Ntp636
Rp637
(dp638
g14
I18
sg15
S'z(18, 7)'
p639
sg17
I7
sg18
(I18
I7
tp640
sg20
(lp641
sbsbsS'1010200097'
p642
g2
(g3
g4
Ntp643
Rp644
(dp645
g8
g642
sg9
g2
(g10
g4
Ntp646
Rp647
(dp648
g14
I17
sg15
S'z(17, 2)'
p649
sg17
I2
sg18
(I17
I2
tp650
sg20
(lp651
sbsbsS'1010200096'
p652
g2
(g3
g4
Ntp653
Rp654
(dp655
g8
g652
sg9
g2
(g10
g4
Ntp656
Rp657
(dp658
g14
I17
sg15
S'z(17, 0)'
p659
sg17
I0
sg18
(I17
I0
tp660
sg20
(lp661
sbsbsS'1010200095'
p662
g2
(g3
g4
Ntp663
Rp664
(dp665
g8
g662
sg9
g2
(g10
g4
Ntp666
Rp667
(dp668
g14
I18
sg15
S'z(18, 1)'
p669
sg17
I1
sg18
(I18
I1
tp670
sg20
(lp671
sbsbsS'1010200094'
p672
g2
(g3
g4
Ntp673
Rp674
(dp675
g8
g672
sg9
g2
(g10
g4
Ntp676
Rp677
(dp678
g14
I19
sg15
S'z(19, 1)'
p679
sg17
I1
sg18
(I19
I1
tp680
sg20
(lp681
sbsbsS'1010200099'
p682
g2
(g3
g4
Ntp683
Rp684
(dp685
g8
g682
sg9
g2
(g10
g4
Ntp686
Rp687
(dp688
g14
I18
sg15
S'z(18, 4)'
p689
sg17
I4
sg18
(I18
I4
tp690
sg20
(lp691
sbsbsS'1010200098'
p692
g2
(g3
g4
Ntp693
Rp694
(dp695
g8
g692
sg9
g2
(g10
g4
Ntp696
Rp697
(dp698
g14
I17
sg15
S'z(17, 4)'
p699
sg17
I4
sg18
(I17
I4
tp700
sg20
(lp701
sbsbsS'1010200068'
p702
g2
(g3
g4
Ntp703
Rp704
(dp705
g8
g702
sg9
g2
(g10
g4
Ntp706
Rp707
(dp708
g14
I23
sg15
S'z(23, 6)'
p709
sg17
I6
sg18
(I23
I6
tp710
sg20
(lp711
sbsbsS'1010200069'
p712
g2
(g3
g4
Ntp713
Rp714
(dp715
g8
g712
sg9
g2
(g10
g4
Ntp716
Rp717
(dp718
g14
I25
sg15
S'z(25, 6)'
p719
sg17
I6
sg18
(I25
I6
tp720
sg20
(lp721
sbsbsS'1010200066'
p722
g2
(g3
g4
Ntp723
Rp724
(dp725
g8
g722
sg9
g2
(g10
g4
Ntp726
Rp727
(dp728
g14
I24
sg15
S'z(24, 13)'
p729
sg17
I13
sg18
(I24
I13
tp730
sg20
(lp731
sbsbsS'1010200067'
p732
g2
(g3
g4
Ntp733
Rp734
(dp735
g8
g732
sg9
g2
(g10
g4
Ntp736
Rp737
(dp738
g14
I25
sg15
S'z(25, 13)'
p739
sg17
I13
sg18
(I25
I13
tp740
sg20
(lp741
sbsbsS'1010200065'
p742
g2
(g3
g4
Ntp743
Rp744
(dp745
g8
g742
sg9
g2
(g10
g4
Ntp746
Rp747
(dp748
g14
I22
sg15
S'z(22, 13)'
p749
sg17
I13
sg18
(I22
I13
tp750
sg20
(lp751
sbsbsS'1010200062'
p752
g2
(g3
g4
Ntp753
Rp754
(dp755
g8
g752
sg9
g2
(g10
g4
Ntp756
Rp757
(dp758
g14
I24
sg15
S'z(24, 11)'
p759
sg17
I11
sg18
(I24
I11
tp760
sg20
(lp761
sbsbsS'1010200063'
p762
g2
(g3
g4
Ntp763
Rp764
(dp765
g8
g762
sg9
g2
(g10
g4
Ntp766
Rp767
(dp768
g14
I22
sg15
S'z(22, 11)'
p769
sg17
I11
sg18
(I22
I11
tp770
sg20
(lp771
sbsbsS'1010200060'
p772
g2
(g3
g4
Ntp773
Rp774
(dp775
g8
g772
sg9
g2
(g10
g4
Ntp776
Rp777
(dp778
g14
I25
sg15
S'z(25, 9)'
p779
sg17
I9
sg18
(I25
I9
tp780
sg20
(lp781
sbsbsS'1010200061'
p782
g2
(g3
g4
Ntp783
Rp784
(dp785
g8
g782
sg9
g2
(g10
g4
Ntp786
Rp787
(dp788
g14
I25
sg15
S'z(25, 11)'
p789
sg17
I11
sg18
(I25
I11
tp790
sg20
(lp791
sbsbsS'1010200141'
p792
g2
(g3
g4
Ntp793
Rp794
(dp795
g8
g792
sg9
g2
(g10
g4
Ntp796
Rp797
(dp798
g14
I2
sg15
S'z(2, 24)'
p799
sg17
I24
sg18
(I2
I24
tp800
sg20
(lp801
sbsbsS'1010200140'
p802
g2
(g3
g4
Ntp803
Rp804
(dp805
g8
g802
sg9
g2
(g10
g4
Ntp806
Rp807
(dp808
g14
I2
sg15
S'z(2, 23)'
p809
sg17
I23
sg18
(I2
I23
tp810
sg20
(lp811
sbsbsS'1010200142'
p812
g2
(g3
g4
Ntp813
Rp814
(dp815
g8
g812
sg9
g2
(g10
g4
Ntp816
Rp817
(dp818
g14
I4
sg15
S'z(4, 24)'
p819
sg17
I24
sg18
(I4
I24
tp820
sg20
(lp821
sbsbsS'1010200079'
p822
g2
(g3
g4
Ntp823
Rp824
(dp825
g8
g822
sg9
g2
(g10
g4
Ntp826
Rp827
(dp828
g14
I23
sg15
S'z(23, 4)'
p829
sg17
I4
sg18
(I23
I4
tp830
sg20
(lp831
sbsbsS'1010200078'
p832
g2
(g3
g4
Ntp833
Rp834
(dp835
g8
g832
sg9
g2
(g10
g4
Ntp836
Rp837
(dp838
g14
I24
sg15
S'z(24, 2)'
p839
sg17
I2
sg18
(I24
I2
tp840
sg20
(lp841
sbsbsS'1010200075'
p842
g2
(g3
g4
Ntp843
Rp844
(dp845
g8
g842
sg9
g2
(g10
g4
Ntp846
Rp847
(dp848
g14
I26
sg15
S'z(26, 1)'
p849
sg17
I1
sg18
(I26
I1
tp850
sg20
(lp851
sbsbsS'1010200074'
p852
g2
(g3
g4
Ntp853
Rp854
(dp855
g8
g852
sg9
g2
(g10
g4
Ntp856
Rp857
(dp858
g14
I26
sg15
S'z(26, 2)'
p859
sg17
I2
sg18
(I26
I2
tp860
sg20
(lp861
sbsbsS'1010200077'
p862
g2
(g3
g4
Ntp863
Rp864
(dp865
g8
g862
sg9
g2
(g10
g4
Ntp866
Rp867
(dp868
g14
I25
sg15
S'z(25, 2)'
p869
sg17
I2
sg18
(I25
I2
tp870
sg20
(lp871
sbsbsS'1010200076'
p872
g2
(g3
g4
Ntp873
Rp874
(dp875
g8
g872
sg9
g2
(g10
g4
Ntp876
Rp877
(dp878
g14
I25
sg15
S'z(25, 1)'
p879
sg17
I1
sg18
(I25
I1
tp880
sg20
(lp881
sbsbsS'1010200071'
p882
g2
(g3
g4
Ntp883
Rp884
(dp885
g8
g882
sg9
g2
(g10
g4
Ntp886
Rp887
(dp888
g14
I27
sg15
S'z(27, 5)'
p889
sg17
I5
sg18
(I27
I5
tp890
sg20
(lp891
sbsbsS'1010200070'
p892
g2
(g3
g4
Ntp893
Rp894
(dp895
g8
g892
sg9
g2
(g10
g4
Ntp896
Rp897
(dp898
g14
I26
sg15
S'z(26, 6)'
p899
sg17
I6
sg18
(I26
I6
tp900
sg20
(lp901
sbsbsS'1010200073'
p902
g2
(g3
g4
Ntp903
Rp904
(dp905
g8
g902
sg9
g2
(g10
g4
Ntp906
Rp907
(dp908
g14
I27
sg15
S'z(27, 2)'
p909
sg17
I2
sg18
(I27
I2
tp910
sg20
(lp911
sbsbsS'1010200072'
p912
g2
(g3
g4
Ntp913
Rp914
(dp915
g8
g912
sg9
g2
(g10
g4
Ntp916
Rp917
(dp918
g14
I28
sg15
S'z(28, 4)'
p919
sg17
I4
sg18
(I28
I4
tp920
sg20
(lp921
sbsbsS'1010200051'
p922
g2
(g3
g4
Ntp923
Rp924
(dp925
g8
g922
sg9
g2
(g10
g4
Ntp926
Rp927
(dp928
g14
I19
sg15
S'z(19, 9)'
p929
sg17
I9
sg18
(I19
I9
tp930
sg20
(lp931
sbsbsS'1010200050'
p932
g2
(g3
g4
Ntp933
Rp934
(dp935
g8
g932
sg9
g2
(g10
g4
Ntp936
Rp937
(dp938
g14
I17
sg15
S'z(17, 9)'
p939
sg17
I9
sg18
(I17
I9
tp940
sg20
(lp941
sbsbsS'1010200040'
p942
g2
(g3
g4
Ntp943
Rp944
(dp945
g8
g942
sg9
g2
(g10
g4
Ntp946
Rp947
(dp948
g14
I10
sg15
S'z(10, 7)'
p949
sg17
I7
sg18
(I10
I7
tp950
sg20
(lp951
sbsbsS'1010200041'
p952
g2
(g3
g4
Ntp953
Rp954
(dp955
g8
g952
sg9
g2
(g10
g4
Ntp956
Rp957
(dp958
g14
I10
sg15
S'z(10, 6)'
p959
sg17
I6
sg18
(I10
I6
tp960
sg20
(lp961
sbsbsS'1010200042'
p962
g2
(g3
g4
Ntp963
Rp964
(dp965
g8
g962
sg9
g2
(g10
g4
Ntp966
Rp967
(dp968
g14
I11
sg15
S'z(11, 9)'
p969
sg17
I9
sg18
(I11
I9
tp970
sg20
(lp971
sbsbsS'1010200043'
p972
g2
(g3
g4
Ntp973
Rp974
(dp975
g8
g972
sg9
g2
(g10
g4
Ntp976
Rp977
(dp978
g14
I13
sg15
S'z(13, 9)'
p979
sg17
I9
sg18
(I13
I9
tp980
sg20
(lp981
sbsbsS'1010200044'
p982
g2
(g3
g4
Ntp983
Rp984
(dp985
g8
g982
sg9
g2
(g10
g4
Ntp986
Rp987
(dp988
g14
I15
sg15
S'z(15, 9)'
p989
sg17
I9
sg18
(I15
I9
tp990
sg20
(lp991
sbsbsS'1010200045'
p992
g2
(g3
g4
Ntp993
Rp994
(dp995
g8
g992
sg9
g2
(g10
g4
Ntp996
Rp997
(dp998
g14
I15
sg15
S'z(15, 11)'
p999
sg17
I11
sg18
(I15
I11
tp1000
sg20
(lp1001
sbsbsS'1010200046'
p1002
g2
(g3
g4
Ntp1003
Rp1004
(dp1005
g8
g1002
sg9
g2
(g10
g4
Ntp1006
Rp1007
(dp1008
g14
I15
sg15
S'z(15, 14)'
p1009
sg17
I14
sg18
(I15
I14
tp1010
sg20
(lp1011
sbsbsS'1010200047'
p1012
g2
(g3
g4
Ntp1013
Rp1014
(dp1015
g8
g1012
sg9
g2
(g10
g4
Ntp1016
Rp1017
(dp1018
g14
I16
sg15
S'z(16, 13)'
p1019
sg17
I13
sg18
(I16
I13
tp1020
sg20
(lp1021
sbsbsS'1010200048'
p1022
g2
(g3
g4
Ntp1023
Rp1024
(dp1025
g8
g1022
sg9
g2
(g10
g4
Ntp1026
Rp1027
(dp1028
g14
I16
sg15
S'z(16, 11)'
p1029
sg17
I11
sg18
(I16
I11
tp1030
sg20
(lp1031
sbsbsS'1010200049'
p1032
g2
(g3
g4
Ntp1033
Rp1034
(dp1035
g8
g1032
sg9
g2
(g10
g4
Ntp1036
Rp1037
(dp1038
g14
I16
sg15
S'z(16, 9)'
p1039
sg17
I9
sg18
(I16
I9
tp1040
sg20
(lp1041
sbsbsS'1010200110'
p1042
g2
(g3
g4
Ntp1043
Rp1044
(dp1045
g8
g1042
sg9
g2
(g10
g4
Ntp1046
Rp1047
(dp1048
g14
I14
sg15
S'z(14, 5)'
p1049
sg17
I5
sg18
(I14
I5
tp1050
sg20
(lp1051
sbsbsS'1010200058'
p1052
g2
(g3
g4
Ntp1053
Rp1054
(dp1055
g8
g1052
sg9
g2
(g10
g4
Ntp1056
Rp1057
(dp1058
g14
I23
sg15
S'z(23, 8)'
p1059
sg17
I8
sg18
(I23
I8
tp1060
sg20
(lp1061
sbsbsS'1010200056'
p1062
g2
(g3
g4
Ntp1063
Rp1064
(dp1065
g8
g1062
sg9
g2
(g10
g4
Ntp1066
Rp1067
(dp1068
g14
I21
sg15
S'z(21, 5)'
p1069
sg17
I5
sg18
(I21
I5
tp1070
sg20
(lp1071
sbsbsS'1010200055'
p1072
g2
(g3
g4
Ntp1073
Rp1074
(dp1075
g8
g1072
sg9
g2
(g10
g4
Ntp1076
Rp1077
(dp1078
g14
I24
sg15
S'z(24, 9)'
p1079
sg17
I9
sg18
(I24
I9
tp1080
sg20
(lp1081
sbsbsS'1010200054'
p1082
g2
(g3
g4
Ntp1083
Rp1084
(dp1085
g8
g1082
sg9
g2
(g10
g4
Ntp1086
Rp1087
(dp1088
g14
I22
sg15
S'z(22, 9)'
p1089
sg17
I9
sg18
(I22
I9
tp1090
sg20
(lp1091
sbsbsS'1010200053'
p1092
g2
(g3
g4
Ntp1093
Rp1094
(dp1095
g8
g1092
sg9
g2
(g10
g4
Ntp1096
Rp1097
(dp1098
g14
I21
sg15
S'z(21, 9)'
p1099
sg17
I9
sg18
(I21
I9
tp1100
sg20
(lp1101
sbsbsS'1010200052'
p1102
g2
(g3
g4
Ntp1103
Rp1104
(dp1105
g8
g1102
sg9
g2
(g10
g4
Ntp1106
Rp1107
(dp1108
g14
I20
sg15
S'z(20, 9)'
p1109
sg17
I9
sg18
(I20
I9
tp1110
sg20
(lp1111
sbsbsS'1010200118'
p1112
g2
(g3
g4
Ntp1113
Rp1114
(dp1115
g8
g1112
sg9
g2
(g10
g4
Ntp1116
Rp1117
(dp1118
g14
I4
sg15
S'z(4, 2)'
p1119
sg17
I2
sg18
(I4
I2
tp1120
sg20
(lp1121
sbsbsS'1010200119'
p1122
g2
(g3
g4
Ntp1123
Rp1124
(dp1125
g8
g1122
sg9
g2
(g10
g4
Ntp1126
Rp1127
(dp1128
g14
I5
sg15
S'z(5, 2)'
p1129
sg17
I2
sg18
(I5
I2
tp1130
sg20
(lp1131
sbsbsS'1010200116'
p1132
g2
(g3
g4
Ntp1133
Rp1134
(dp1135
g8
g1132
sg9
g2
(g10
g4
Ntp1136
Rp1137
(dp1138
g14
I2
sg15
S'z(2, 4)'
p1139
sg17
I4
sg18
(I2
I4
tp1140
sg20
(lp1141
sbsbsS'1010200117'
p1142
g2
(g3
g4
Ntp1143
Rp1144
(dp1145
g8
g1142
sg9
g2
(g10
g4
Ntp1146
Rp1147
(dp1148
g14
I4
sg15
S'z(4, 3)'
p1149
sg17
I3
sg18
(I4
I3
tp1150
sg20
(lp1151
sbsbsS'1010200114'
p1152
g2
(g3
g4
Ntp1153
Rp1154
(dp1155
g8
g1152
sg9
g2
(g10
g4
Ntp1156
Rp1157
(dp1158
g14
I2
sg15
S'z(2, 6)'
p1159
sg17
I6
sg18
(I2
I6
tp1160
sg20
(lp1161
sbsbsS'1010200115'
p1162
g2
(g3
g4
Ntp1163
Rp1164
(dp1165
g8
g1162
sg9
g2
(g10
g4
Ntp1166
Rp1167
(dp1168
g14
I2
sg15
S'z(2, 5)'
p1169
sg17
I5
sg18
(I2
I5
tp1170
sg20
(lp1171
sbsbsS'1010200112'
p1172
g2
(g3
g4
Ntp1173
Rp1174
(dp1175
g8
g1172
sg9
g2
(g10
g4
Ntp1176
Rp1177
(dp1178
g14
I5
sg15
S'z(5, 6)'
p1179
sg17
I6
sg18
(I5
I6
tp1180
sg20
(lp1181
sbsbsS'1010200113'
p1182
g2
(g3
g4
Ntp1183
Rp1184
(dp1185
g8
g1182
sg9
g2
(g10
g4
Ntp1186
Rp1187
(dp1188
g14
I4
sg15
S'z(4, 6)'
p1189
sg17
I6
sg18
(I4
I6
tp1190
sg20
(lp1191
sbsbsS'1010200059'
p1192
g2
(g3
g4
Ntp1193
Rp1194
(dp1195
g8
g1192
sg9
g2
(g10
g4
Ntp1196
Rp1197
(dp1198
g14
I25
sg15
S'z(25, 8)'
p1199
sg17
I8
sg18
(I25
I8
tp1200
sg20
(lp1201
sbsbsS'1010200111'
p1202
g2
(g3
g4
Ntp1203
Rp1204
(dp1205
g8
g1202
sg9
g2
(g10
g4
Ntp1206
Rp1207
(dp1208
g14
I6
sg15
S'z(6, 6)'
p1209
sg17
I6
sg18
(I6
I6
tp1210
sg20
(lp1211
sbsbsS'1010200109'
p1212
g2
(g3
g4
Ntp1213
Rp1214
(dp1215
g8
g1212
sg9
g2
(g10
g4
Ntp1216
Rp1217
(dp1218
g14
I12
sg15
S'z(12, 5)'
p1219
sg17
I5
sg18
(I12
I5
tp1220
sg20
(lp1221
sbsbsS'1010200108'
p1222
g2
(g3
g4
Ntp1223
Rp1224
(dp1225
g8
g1222
sg9
g2
(g10
g4
Ntp1226
Rp1227
(dp1228
g14
I13
sg15
S'z(13, 3)'
p1229
sg17
I3
sg18
(I13
I3
tp1230
sg20
(lp1231
sbsbsS'1010200105'
p1232
g2
(g3
g4
Ntp1233
Rp1234
(dp1235
g8
g1232
sg9
g2
(g10
g4
Ntp1236
Rp1237
(dp1238
g14
I15
sg15
S'z(15, 1)'
p1239
sg17
I1
sg18
(I15
I1
tp1240
sg20
(lp1241
sbsbsS'1010200104'
p1242
g2
(g3
g4
Ntp1243
Rp1244
(dp1245
g8
g1242
sg9
g2
(g10
g4
Ntp1246
Rp1247
(dp1248
g14
I16
sg15
S'z(16, 3)'
p1249
sg17
I3
sg18
(I16
I3
tp1250
sg20
(lp1251
sbsbsS'1010200107'
p1252
g2
(g3
g4
Ntp1253
Rp1254
(dp1255
g8
g1252
sg9
g2
(g10
g4
Ntp1256
Rp1257
(dp1258
g14
I14
sg15
S'z(14, 1)'
p1259
sg17
I1
sg18
(I14
I1
tp1260
sg20
(lp1261
sbsbsS'1010200106'
p1262
g2
(g3
g4
Ntp1263
Rp1264
(dp1265
g8
g1262
sg9
g2
(g10
g4
Ntp1266
Rp1267
(dp1268
g14
I16
sg15
S'z(16, 0)'
p1269
sg17
I0
sg18
(I16
I0
tp1270
sg20
(lp1271
sbsbsS'1010200101'
p1272
g2
(g3
g4
Ntp1273
Rp1274
(dp1275
g8
g1272
sg9
g2
(g10
g4
Ntp1276
Rp1277
(dp1278
g14
I14
sg15
S'z(14, 7)'
p1279
sg17
I7
sg18
(I14
I7
tp1280
sg20
(lp1281
sbsbsS'1010200100'
p1282
g2
(g3
g4
Ntp1283
Rp1284
(dp1285
g8
g1282
sg9
g2
(g10
g4
Ntp1286
Rp1287
(dp1288
g14
I12
sg15
S'z(12, 7)'
p1289
sg17
I7
sg18
(I12
I7
tp1290
sg20
(lp1291
sbsbsS'1010200103'
p1292
g2
(g3
g4
Ntp1293
Rp1294
(dp1295
g8
g1292
sg9
g2
(g10
g4
Ntp1296
Rp1297
(dp1298
g14
I16
sg15
S'z(16, 5)'
p1299
sg17
I5
sg18
(I16
I5
tp1300
sg20
(lp1301
sbsbsS'1010200102'
p1302
g2
(g3
g4
Ntp1303
Rp1304
(dp1305
g8
g1302
sg9
g2
(g10
g4
Ntp1306
Rp1307
(dp1308
g14
I16
sg15
S'z(16, 7)'
p1309
sg17
I7
sg18
(I16
I7
tp1310
sg20
(lp1311
sbsbsS'1010200022'
p1312
g2
(g3
g4
Ntp1313
Rp1314
(dp1315
g8
g1312
sg9
g2
(g10
g4
Ntp1316
Rp1317
(dp1318
g14
I5
sg15
S'z(5, 20)'
p1319
sg17
I20
sg18
(I5
I20
tp1320
sg20
(lp1321
sbsbsS'1010200023'
p1322
g2
(g3
g4
Ntp1323
Rp1324
(dp1325
g8
g1322
sg9
g2
(g10
g4
Ntp1326
Rp1327
(dp1328
g14
I3
sg15
S'z(3, 15)'
p1329
sg17
I15
sg18
(I3
I15
tp1330
sg20
(lp1331
sbsbsS'1010200020'
p1332
g2
(g3
g4
Ntp1333
Rp1334
(dp1335
g8
g1332
sg9
g2
(g10
g4
Ntp1336
Rp1337
(dp1338
g14
I4
sg15
S'z(4, 22)'
p1339
sg17
I22
sg18
(I4
I22
tp1340
sg20
(lp1341
sbsbsS'1010200021'
p1342
g2
(g3
g4
Ntp1343
Rp1344
(dp1345
g8
g1342
sg9
g2
(g10
g4
Ntp1346
Rp1347
(dp1348
g14
I3
sg15
S'z(3, 20)'
p1349
sg17
I20
sg18
(I3
I20
tp1350
sg20
(lp1351
sbsbsS'1010200026'
p1352
g2
(g3
g4
Ntp1353
Rp1354
(dp1355
g8
g1352
sg9
g2
(g10
g4
Ntp1356
Rp1357
(dp1358
g14
I7
sg15
S'z(7, 16)'
p1359
sg17
I16
sg18
(I7
I16
tp1360
sg20
(lp1361
sbsbsS'1010200027'
p1362
g2
(g3
g4
Ntp1363
Rp1364
(dp1365
g8
g1362
sg9
g2
(g10
g4
Ntp1366
Rp1367
(dp1368
g14
I9
sg15
S'z(9, 16)'
p1369
sg17
I16
sg18
(I9
I16
tp1370
sg20
(lp1371
sbsbsS'1010200024'
p1372
g2
(g3
g4
Ntp1373
Rp1374
(dp1375
g8
g1372
sg9
g2
(g10
g4
Ntp1376
Rp1377
(dp1378
g14
I4
sg15
S'z(4, 16)'
p1379
sg17
I16
sg18
(I4
I16
tp1380
sg20
(lp1381
sbsbsS'1010200025'
p1382
g2
(g3
g4
Ntp1383
Rp1384
(dp1385
g8
g1382
sg9
g2
(g10
g4
Ntp1386
Rp1387
(dp1388
g14
I6
sg15
S'z(6, 16)'
p1389
sg17
I16
sg18
(I6
I16
tp1390
sg20
(lp1391
sbsbsS'1010200028'
p1392
g2
(g3
g4
Ntp1393
Rp1394
(dp1395
g8
g1392
sg9
g2
(g10
g4
Ntp1396
Rp1397
(dp1398
g14
I11
sg15
S'z(11, 16)'
p1399
sg17
I16
sg18
(I11
I16
tp1400
sg20
(lp1401
sbsbsS'1010200029'
p1402
g2
(g3
g4
Ntp1403
Rp1404
(dp1405
g8
g1402
sg9
g2
(g10
g4
Ntp1406
Rp1407
(dp1408
g14
I13
sg15
S'z(13, 16)'
p1409
sg17
I16
sg18
(I13
I16
tp1410
sg20
(lp1411
sbsbs.