(dp0
S'1010400037'
p1
ccopy_reg
_reconstructor
p2
(c_class
Landmark
p3
c__builtin__
object
p4
Ntp5
Rp6
(dp7
S'lid'
p8
g1
sS'z'
p9
g2
(c_class
Zone
p10
g4
Ntp11
Rp12
(dp13
S'i'
p14
I8
sS'zid'
p15
S'z(8, 2)'
p16
sS'j'
p17
I2
sS'coords'
p18
(I8
I2
tp19
sS'bs'
p20
(lp21
sbsbsS'1010400036'
p22
g2
(g3
g4
Ntp23
Rp24
(dp25
g8
g22
sg9
g2
(g10
g4
Ntp26
Rp27
(dp28
g14
I6
sg15
S'z(6, 2)'
p29
sg17
I2
sg18
(I6
I2
tp30
sg20
(lp31
sbsbsS'1010400035'
p32
g2
(g3
g4
Ntp33
Rp34
(dp35
g8
g32
sg9
g2
(g10
g4
Ntp36
Rp37
(dp38
g14
I2
sg15
S'z(2, 2)'
p39
sg17
I2
sg18
(I2
I2
tp40
sg20
(lp41
sbsbsS'1010400034'
p42
g2
(g3
g4
Ntp43
Rp44
(dp45
g8
g42
sg9
g2
(g10
g4
Ntp46
Rp47
(dp48
g14
I2
sg15
S'z(2, 1)'
p49
sg17
I1
sg18
(I2
I1
tp50
sg20
(lp51
sbsbsS'1010400033'
p52
g2
(g3
g4
Ntp53
Rp54
(dp55
g8
g52
sg9
g2
(g10
g4
Ntp56
Rp57
(dp58
g14
I1
sg15
S'z(1, 0)'
p59
sg17
I0
sg18
(I1
I0
tp60
sg20
(lp61
sbsbsS'1010400032'
p62
g2
(g3
g4
Ntp63
Rp64
(dp65
g8
g62
sg9
g2
(g10
g4
Ntp66
Rp67
(dp68
g14
I2
sg15
S'z(2, 0)'
p69
sg17
I0
sg18
(I2
I0
tp70
sg20
(lp71
sbsbsS'1010400031'
p72
g2
(g3
g4
Ntp73
Rp74
(dp75
g8
g72
sg9
g2
(g10
g4
Ntp76
Rp77
(dp78
g14
I3
sg15
S'z(3, 0)'
p79
sg17
I0
sg18
(I3
I0
tp80
sg20
(lp81
sbsbsS'1010400030'
p82
g2
(g3
g4
Ntp83
Rp84
(dp85
g8
g82
sg9
g2
(g10
g4
Ntp86
Rp87
(dp88
g14
I3
sg15
S'z(3, 1)'
p89
sg17
I1
sg18
(I3
I1
tp90
sg20
(lp91
sbsbsS'1010400039'
p92
g2
(g3
g4
Ntp93
Rp94
(dp95
g8
g92
sg9
g2
(g10
g4
Ntp96
Rp97
(dp98
g14
I8
sg15
S'z(8, 4)'
p99
sg17
I4
sg18
(I8
I4
tp100
sg20
(lp101
sbsbsS'1010400038'
p102
g2
(g3
g4
Ntp103
Rp104
(dp105
g8
g102
sg9
g2
(g10
g4
Ntp106
Rp107
(dp108
g14
I8
sg15
S'z(8, 3)'
p109
sg17
I3
sg18
(I8
I3
tp110
sg20
(lp111
sbsbsS'1010400042'
p112
g2
(g3
g4
Ntp113
Rp114
(dp115
g8
g112
sg9
g2
(g10
g4
Ntp116
Rp117
(dp118
g14
I9
sg15
S'z(9, 2)'
p119
sg17
I2
sg18
(I9
I2
tp120
sg20
(lp121
sbsbsS'1010400043'
p122
g2
(g3
g4
Ntp123
Rp124
(dp125
g8
g122
sg9
g2
(g10
g4
Ntp126
Rp127
(dp128
g14
I10
sg15
S'z(10, 2)'
p129
sg17
I2
sg18
(I10
I2
tp130
sg20
(lp131
sbsbsS'1010400040'
p132
g2
(g3
g4
Ntp133
Rp134
(dp135
g8
g132
sg9
g2
(g10
g4
Ntp136
Rp137
(dp138
g14
I8
sg15
S'z(8, 1)'
p139
sg17
I1
sg18
(I8
I1
tp140
sg20
(lp141
sbsbsS'1010400041'
p142
g2
(g3
g4
Ntp143
Rp144
(dp145
g8
g142
sg9
g2
(g10
g4
Ntp146
Rp147
(dp148
g14
I8
sg15
S'z(8, 0)'
p149
sg17
I0
sg18
(I8
I0
tp150
sg20
(lp151
sbsbsS'1010400046'
p152
g2
(g3
g4
Ntp153
Rp154
(dp155
g8
g152
sg9
g2
(g10
g4
Ntp156
Rp157
(dp158
g14
I11
sg15
S'z(11, 4)'
p159
sg17
I4
sg18
(I11
I4
tp160
sg20
(lp161
sbsbsS'1010400047'
p162
g2
(g3
g4
Ntp163
Rp164
(dp165
g8
g162
sg9
g2
(g10
g4
Ntp166
Rp167
(dp168
g14
I11
sg15
S'z(11, 5)'
p169
sg17
I5
sg18
(I11
I5
tp170
sg20
(lp171
sbsbsS'1010400044'
p172
g2
(g3
g4
Ntp173
Rp174
(dp175
g8
g172
sg9
g2
(g10
g4
Ntp176
Rp177
(dp178
g14
I11
sg15
S'z(11, 2)'
p179
sg17
I2
sg18
(I11
I2
tp180
sg20
(lp181
sbsbsS'1010400045'
p182
g2
(g3
g4
Ntp183
Rp184
(dp185
g8
g182
sg9
g2
(g10
g4
Ntp186
Rp187
(dp188
g14
I11
sg15
S'z(11, 3)'
p189
sg17
I3
sg18
(I11
I3
tp190
sg20
(lp191
sbsbsS'1010400048'
p192
g2
(g3
g4
Ntp193
Rp194
(dp195
g8
g192
sg9
g2
(g10
g4
Ntp196
Rp197
(dp198
g14
I11
sg15
S'z(11, 6)'
p199
sg17
I6
sg18
(I11
I6
tp200
sg20
(lp201
sbsbsS'1010400049'
p202
g2
(g3
g4
Ntp203
Rp204
(dp205
g8
g202
sg9
g2
(g10
g4
Ntp206
Rp207
(dp208
g14
I12
sg15
S'z(12, 6)'
p209
sg17
I6
sg18
(I12
I6
tp210
sg20
(lp211
sbsbsS'1010400051'
p212
g2
(g3
g4
Ntp213
Rp214
(dp215
g8
g212
sg9
g2
(g10
g4
Ntp216
Rp217
(dp218
g14
I11
sg15
S'z(11, 1)'
p219
sg17
I1
sg18
(I11
I1
tp220
sg20
(lp221
sbsbsS'1010400050'
p222
g2
(g3
g4
Ntp223
Rp224
(dp225
g8
g222
sg9
g2
(g10
g4
Ntp226
Rp227
(dp228
g14
I12
sg15
S'z(12, 5)'
p229
sg17
I5
sg18
(I12
I5
tp230
sg20
(lp231
sbsbsS'1010400053'
p232
g2
(g3
g4
Ntp233
Rp234
(dp235
g8
g232
sg9
g2
(g10
g4
Ntp236
Rp237
(dp238
g14
I12
sg15
S'z(12, 2)'
p239
sg17
I2
sg18
(I12
I2
tp240
sg20
(lp241
sbsbsS'1010400052'
p242
g2
(g3
g4
Ntp243
Rp244
(dp245
g8
g242
sg9
g2
(g10
g4
Ntp246
Rp247
(dp248
g14
I11
sg15
S'z(11, 0)'
p249
sg17
I0
sg18
(I11
I0
tp250
sg20
(lp251
sbsbsS'1010400055'
p252
g2
(g3
g4
Ntp253
Rp254
(dp255
g8
g252
sg9
g2
(g10
g4
Ntp256
Rp257
(dp258
g14
I14
sg15
S'z(14, 2)'
p259
sg17
I2
sg18
(I14
I2
tp260
sg20
(lp261
sbsbsS'1010400054'
p262
g2
(g3
g4
Ntp263
Rp264
(dp265
g8
g262
sg9
g2
(g10
g4
Ntp266
Rp267
(dp268
g14
I13
sg15
S'z(13, 2)'
p269
sg17
I2
sg18
(I13
I2
tp270
sg20
(lp271
sbsbsS'1010400057'
p272
g2
(g3
g4
Ntp273
Rp274
(dp275
g8
g272
sg9
g2
(g10
g4
Ntp276
Rp277
(dp278
g14
I14
sg15
S'z(14, 4)'
p279
sg17
I4
sg18
(I14
I4
tp280
sg20
(lp281
sbsbsS'1010400056'
p282
g2
(g3
g4
Ntp283
Rp284
(dp285
g8
g282
sg9
g2
(g10
g4
Ntp286
Rp287
(dp288
g14
I14
sg15
S'z(14, 3)'
p289
sg17
I3
sg18
(I14
I3
tp290
sg20
(lp291
sbsbsS'1010400059'
p292
g2
(g3
g4
Ntp293
Rp294
(dp295
g8
g292
sg9
g2
(g10
g4
Ntp296
Rp297
(dp298
g14
I14
sg15
S'z(14, 0)'
p299
sg17
I0
sg18
(I14
I0
tp300
sg20
(lp301
sbsbsS'1010400058'
p302
g2
(g3
g4
Ntp303
Rp304
(dp305
g8
g302
sg9
g2
(g10
g4
Ntp306
Rp307
(dp308
g14
I14
sg15
S'z(14, 1)'
p309
sg17
I1
sg18
(I14
I1
tp310
sg20
(lp311
sbsbsS'1010400064'
p312
g2
(g3
g4
Ntp313
Rp314
(dp315
g8
g312
sg9
g2
(g10
g4
Ntp316
Rp317
(dp318
g14
I17
sg15
S'z(17, 4)'
p319
sg17
I4
sg18
(I17
I4
tp320
sg20
(lp321
sbsbsS'1010400065'
p322
g2
(g3
g4
Ntp323
Rp324
(dp325
g8
g322
sg9
g2
(g10
g4
Ntp326
Rp327
(dp328
g14
I17
sg15
S'z(17, 5)'
p329
sg17
I5
sg18
(I17
I5
tp330
sg20
(lp331
sbsbsS'1010400066'
p332
g2
(g3
g4
Ntp333
Rp334
(dp335
g8
g332
sg9
g2
(g10
g4
Ntp336
Rp337
(dp338
g14
I17
sg15
S'z(17, 1)'
p339
sg17
I1
sg18
(I17
I1
tp340
sg20
(lp341
sbsbsS'1010400067'
p342
g2
(g3
g4
Ntp343
Rp344
(dp345
g8
g342
sg9
g2
(g10
g4
Ntp346
Rp347
(dp348
g14
I17
sg15
S'z(17, 0)'
p349
sg17
I0
sg18
(I17
I0
tp350
sg20
(lp351
sbsbsS'1010400060'
p352
g2
(g3
g4
Ntp353
Rp354
(dp355
g8
g352
sg9
g2
(g10
g4
Ntp356
Rp357
(dp358
g14
I15
sg15
S'z(15, 2)'
p359
sg17
I2
sg18
(I15
I2
tp360
sg20
(lp361
sbsbsS'1010400061'
p362
g2
(g3
g4
Ntp363
Rp364
(dp365
g8
g362
sg9
g2
(g10
g4
Ntp366
Rp367
(dp368
g14
I16
sg15
S'z(16, 2)'
p369
sg17
I2
sg18
(I16
I2
tp370
sg20
(lp371
sbsbsS'1010400062'
p372
g2
(g3
g4
Ntp373
Rp374
(dp375
g8
g372
sg9
g2
(g10
g4
Ntp376
Rp377
(dp378
g14
I17
sg15
S'z(17, 2)'
p379
sg17
I2
sg18
(I17
I2
tp380
sg20
(lp381
sbsbsS'1010400063'
p382
g2
(g3
g4
Ntp383
Rp384
(dp385
g8
g382
sg9
g2
(g10
g4
Ntp386
Rp387
(dp388
g14
I17
sg15
S'z(17, 3)'
p389
sg17
I3
sg18
(I17
I3
tp390
sg20
(lp391
sbsbsS'1010400068'
p392
g2
(g3
g4
Ntp393
Rp394
(dp395
g8
g392
sg9
g2
(g10
g4
Ntp396
Rp397
(dp398
g14
I18
sg15
S'z(18, 2)'
p399
sg17
I2
sg18
(I18
I2
tp400
sg20
(lp401
sbsbsS'1010400069'
p402
g2
(g3
g4
Ntp403
Rp404
(dp405
g8
g402
sg9
g2
(g10
g4
Ntp406
Rp407
(dp408
g14
I19
sg15
S'z(19, 2)'
p409
sg17
I2
sg18
(I19
I2
tp410
sg20
(lp411
sbsbsS'1010400086'
p412
g2
(g3
g4
Ntp413
Rp414
(dp415
g8
g412
sg9
g2
(g10
g4
Ntp416
Rp417
(dp418
g14
I1
sg15
S'z(1, 10)'
p419
sg17
I10
sg18
(I1
I10
tp420
sg20
(lp421
sbsbsS'1010400087'
p422
g2
(g3
g4
Ntp423
Rp424
(dp425
g8
g422
sg9
g2
(g10
g4
Ntp426
Rp427
(dp428
g14
I0
sg15
S'z(0, 7)'
p429
sg17
I7
sg18
(I0
I7
tp430
sg20
(lp431
sbsbsS'1010400084'
p432
g2
(g3
g4
Ntp433
Rp434
(dp435
g8
g432
sg9
g2
(g10
g4
Ntp436
Rp437
(dp438
g14
I7
sg15
S'z(7, 20)'
p439
sg17
I20
sg18
(I7
I20
tp440
sg20
(lp441
sbsbsS'1010400085'
p442
g2
(g3
g4
Ntp443
Rp444
(dp445
g8
g442
sg9
g2
(g10
g4
Ntp446
Rp447
(dp448
g14
I2
sg15
S'z(2, 13)'
p449
sg17
I13
sg18
(I2
I13
tp450
sg20
(lp451
sbsbsS'1010400082'
p452
g2
(g3
g4
Ntp453
Rp454
(dp455
g8
g452
sg9
g2
(g10
g4
Ntp456
Rp457
(dp458
g14
I4
sg15
S'z(4, 16)'
p459
sg17
I16
sg18
(I4
I16
tp460
sg20
(lp461
sbsbsS'1010400083'
p462
g2
(g3
g4
Ntp463
Rp464
(dp465
g8
g462
sg9
g2
(g10
g4
Ntp466
Rp467
(dp468
g14
I4
sg15
S'z(4, 18)'
p469
sg17
I18
sg18
(I4
I18
tp470
sg20
(lp471
sbsbsS'1010400080'
p472
g2
(g3
g4
Ntp473
Rp474
(dp475
g8
g472
sg9
g2
(g10
g4
Ntp476
Rp477
(dp478
g14
I10
sg15
S'z(10, 16)'
p479
sg17
I16
sg18
(I10
I16
tp480
sg20
(lp481
sbsbsS'1010400081'
p482
g2
(g3
g4
Ntp483
Rp484
(dp485
g8
g482
sg9
g2
(g10
g4
Ntp486
Rp487
(dp488
g14
I10
sg15
S'z(10, 18)'
p489
sg17
I18
sg18
(I10
I18
tp490
sg20
(lp491
sbsbsS'1010400088'
p492
g2
(g3
g4
Ntp493
Rp494
(dp495
g8
g492
sg9
g2
(g10
g4
Ntp496
Rp497
(dp498
g14
I2
sg15
S'z(2, 7)'
p499
sg17
I7
sg18
(I2
I7
tp500
sg20
(lp501
sbsbsS'1010400089'
p502
g2
(g3
g4
Ntp503
Rp504
(dp505
g8
g502
sg9
g2
(g10
g4
Ntp506
Rp507
(dp508
g14
I0
sg15
S'z(0, 6)'
p509
sg17
I6
sg18
(I0
I6
tp510
sg20
(lp511
sbsbsS'1010400079'
p512
g2
(g3
g4
Ntp513
Rp514
(dp515
g8
g512
sg9
g2
(g10
g4
Ntp516
Rp517
(dp518
g14
I10
sg15
S'z(10, 13)'
p519
sg17
I13
sg18
(I10
I13
tp520
sg20
(lp521
sbsbsS'1010400078'
p522
g2
(g3
g4
Ntp523
Rp524
(dp525
g8
g522
sg9
g2
(g10
g4
Ntp526
Rp527
(dp528
g14
I13
sg15
S'z(13, 16)'
p529
sg17
I16
sg18
(I13
I16
tp530
sg20
(lp531
sbsbsS'1010400073'
p532
g2
(g3
g4
Ntp533
Rp534
(dp535
g8
g532
sg9
g2
(g10
g4
Ntp536
Rp537
(dp538
g14
I20
sg15
S'z(20, 4)'
p539
sg17
I4
sg18
(I20
I4
tp540
sg20
(lp541
sbsbsS'1010400072'
p542
g2
(g3
g4
Ntp543
Rp544
(dp545
g8
g542
sg9
g2
(g10
g4
Ntp546
Rp547
(dp548
g14
I20
sg15
S'z(20, 3)'
p549
sg17
I3
sg18
(I20
I3
tp550
sg20
(lp551
sbsbsS'1010400071'
p552
g2
(g3
g4
Ntp553
Rp554
(dp555
g8
g552
sg9
g2
(g10
g4
Ntp556
Rp557
(dp558
g14
I21
sg15
S'z(21, 3)'
p559
sg17
I3
sg18
(I21
I3
tp560
sg20
(lp561
sbsbsS'1010400070'
p562
g2
(g3
g4
Ntp563
Rp564
(dp565
g8
g562
sg9
g2
(g10
g4
Ntp566
Rp567
(dp568
g14
I20
sg15
S'z(20, 2)'
p569
sg17
I2
sg18
(I20
I2
tp570
sg20
(lp571
sbsbsS'1010400077'
p572
g2
(g3
g4
Ntp573
Rp574
(dp575
g8
g572
sg9
g2
(g10
g4
Ntp576
Rp577
(dp578
g14
I13
sg15
S'z(13, 14)'
p579
sg17
I14
sg18
(I13
I14
tp580
sg20
(lp581
sbsbsS'1010400076'
p582
g2
(g3
g4
Ntp583
Rp584
(dp585
g8
g582
sg9
g2
(g10
g4
Ntp586
Rp587
(dp588
g14
I22
sg15
S'z(22, 0)'
p589
sg17
I0
sg18
(I22
I0
tp590
sg20
(lp591
sbsbsS'1010400075'
p592
g2
(g3
g4
Ntp593
Rp594
(dp595
g8
g592
sg9
g2
(g10
g4
Ntp596
Rp597
(dp598
g14
I20
sg15
S'z(20, 0)'
p599
sg17
I0
sg18
(I20
I0
tp600
sg20
(lp601
sbsbsS'1010400074'
p602
g2
(g3
g4
Ntp603
Rp604
(dp605
g8
g602
sg9
g2
(g10
g4
Ntp606
Rp607
(dp608
g14
I20
sg15
S'z(20, 1)'
p609
sg17
I1
sg18
(I20
I1
tp610
sg20
(lp611
sbsbsS'1010400091'
p612
g2
(g3
g4
Ntp613
Rp614
(dp615
g8
g612
sg9
g2
(g10
g4
Ntp616
Rp617
(dp618
g14
I6
sg15
S'z(6, 11)'
p619
sg17
I11
sg18
(I6
I11
tp620
sg20
(lp621
sbsbsS'1010400090'
p622
g2
(g3
g4
Ntp623
Rp624
(dp625
g8
g622
sg9
g2
(g10
g4
Ntp626
Rp627
(dp628
g14
I5
sg15
S'z(5, 5)'
p629
sg17
I5
sg18
(I5
I5
tp630
sg20
(lp631
sbsbsS'1010400008'
p632
g2
(g3
g4
Ntp633
Rp634
(dp635
g8
g632
sg9
g2
(g10
g4
Ntp636
Rp637
(dp638
g14
I10
sg15
S'z(10, 11)'
p639
sg17
I11
sg18
(I10
I11
tp640
sg20
(lp641
sbsbsS'1010400009'
p642
g2
(g3
g4
Ntp643
Rp644
(dp645
g8
g642
sg9
g2
(g10
g4
Ntp646
Rp647
(dp648
g14
I9
sg15
S'z(9, 9)'
p649
sg17
I9
sg18
(I9
I9
tp650
sg20
(lp651
sbsbsS'1010400006'
p652
g2
(g3
g4
Ntp653
Rp654
(dp655
g8
g652
sg9
g2
(g10
g4
Ntp656
Rp657
(dp658
g14
I10
sg15
S'z(10, 8)'
p659
sg17
I8
sg18
(I10
I8
tp660
sg20
(lp661
sbsbsS'1010400007'
p662
g2
(g3
g4
Ntp663
Rp664
(dp665
g8
g662
sg9
g2
(g10
g4
Ntp666
Rp667
(dp668
g14
I10
sg15
S'z(10, 10)'
p669
sg17
I10
sg18
(I10
I10
tp670
sg20
(lp671
sbsbsS'1010400004'
p672
g2
(g3
g4
Ntp673
Rp674
(dp675
g8
g672
sg9
g2
(g10
g4
Ntp676
Rp677
(dp678
g14
I11
sg15
S'z(11, 7)'
p679
sg17
I7
sg18
(I11
I7
tp680
sg20
(lp681
sbsbsS'1010400005'
p682
g2
(g3
g4
Ntp683
Rp684
(dp685
g8
g682
sg9
g2
(g10
g4
Ntp686
Rp687
(dp688
g14
I10
sg15
S'z(10, 7)'
p689
sg17
I7
sg18
(I10
I7
tp690
sg20
(lp691
sbsbsS'1010400002'
p692
g2
(g3
g4
Ntp693
Rp694
(dp695
g8
g692
sg9
g2
(g10
g4
Ntp696
Rp697
(dp698
g14
I11
sg15
S'z(11, 10)'
p699
sg17
I10
sg18
(I11
I10
tp700
sg20
(lp701
sbsbsS'1010400003'
p702
g2
(g3
g4
Ntp703
Rp704
(dp705
g8
g702
sg9
g2
(g10
g4
Ntp706
Rp707
(dp708
g14
I11
sg15
S'z(11, 8)'
p709
sg17
I8
sg18
(I11
I8
tp710
sg20
(lp711
sbsbsS'1010400001'
p712
g2
(g3
g4
Ntp713
Rp714
(dp715
g8
g712
sg9
g2
(g10
g4
Ntp716
Rp717
(dp718
g14
I11
sg15
S'z(11, 11)'
p719
sg17
I11
sg18
(I11
I11
tp720
sg20
(lp721
sbsbsS'1010400019'
p722
g2
(g3
g4
Ntp723
Rp724
(dp725
g8
g722
sg9
g2
(g10
g4
Ntp726
Rp727
(dp728
g14
I4
sg15
S'z(4, 8)'
p729
sg17
I8
sg18
(I4
I8
tp730
sg20
(lp731
sbsbsS'1010400018'
p732
g2
(g3
g4
Ntp733
Rp734
(dp735
g8
g732
sg9
g2
(g10
g4
Ntp736
Rp737
(dp738
g14
I4
sg15
S'z(4, 14)'
p739
sg17
I14
sg18
(I4
I14
tp740
sg20
(lp741
sbsbsS'1010400015'
p742
g2
(g3
g4
Ntp743
Rp744
(dp745
g8
g742
sg9
g2
(g10
g4
Ntp746
Rp747
(dp748
g14
I4
sg15
S'z(4, 10)'
p749
sg17
I10
sg18
(I4
I10
tp750
sg20
(lp751
sbsbsS'1010400014'
p752
g2
(g3
g4
Ntp753
Rp754
(dp755
g8
g752
sg9
g2
(g10
g4
Ntp756
Rp757
(dp758
g14
I4
sg15
S'z(4, 9)'
p759
sg17
I9
sg18
(I4
I9
tp760
sg20
(lp761
sbsbsS'1010400017'
p762
g2
(g3
g4
Ntp763
Rp764
(dp765
g8
g762
sg9
g2
(g10
g4
Ntp766
Rp767
(dp768
g14
I4
sg15
S'z(4, 13)'
p769
sg17
I13
sg18
(I4
I13
tp770
sg20
(lp771
sbsbsS'1010400016'
p772
g2
(g3
g4
Ntp773
Rp774
(dp775
g8
g772
sg9
g2
(g10
g4
Ntp776
Rp777
(dp778
g14
I4
sg15
S'z(4, 12)'
p779
sg17
I12
sg18
(I4
I12
tp780
sg20
(lp781
sbsbsS'1010400011'
p782
g2
(g3
g4
Ntp783
Rp784
(dp785
g8
g782
sg9
g2
(g10
g4
Ntp786
Rp787
(dp788
g14
I8
sg15
S'z(8, 7)'
p789
sg17
I7
sg18
(I8
I7
tp790
sg20
(lp791
sbsbsS'1010400010'
p792
g2
(g3
g4
Ntp793
Rp794
(dp795
g8
g792
sg9
g2
(g10
g4
Ntp796
Rp797
(dp798
g14
I8
sg15
S'z(8, 9)'
p799
sg17
I9
sg18
(I8
I9
tp800
sg20
(lp801
sbsbsS'1010400013'
p802
g2
(g3
g4
Ntp803
Rp804
(dp805
g8
g802
sg9
g2
(g10
g4
Ntp806
Rp807
(dp808
g14
I5
sg15
S'z(5, 9)'
p809
sg17
I9
sg18
(I5
I9
tp810
sg20
(lp811
sbsbsS'1010400012'
p812
g2
(g3
g4
Ntp813
Rp814
(dp815
g8
g812
sg9
g2
(g10
g4
Ntp816
Rp817
(dp818
g14
I7
sg15
S'z(7, 9)'
p819
sg17
I9
sg18
(I7
I9
tp820
sg20
(lp821
sbsbsS'1010400020'
p822
g2
(g3
g4
Ntp823
Rp824
(dp825
g8
g822
sg9
g2
(g10
g4
Ntp826
Rp827
(dp828
g14
I4
sg15
S'z(4, 7)'
p829
sg17
I7
sg18
(I4
I7
tp830
sg20
(lp831
sbsbsS'1010400021'
p832
g2
(g3
g4
Ntp833
Rp834
(dp835
g8
g832
sg9
g2
(g10
g4
Ntp836
Rp837
(dp838
g14
I4
sg15
S'z(4, 6)'
p839
sg17
I6
sg18
(I4
I6
tp840
sg20
(lp841
sbsbsS'1010400022'
p842
g2
(g3
g4
Ntp843
Rp844
(dp845
g8
g842
sg9
g2
(g10
g4
Ntp846
Rp847
(dp848
g14
I3
sg15
S'z(3, 6)'
p849
sg17
I6
sg18
(I3
I6
tp850
sg20
(lp851
sbsbsS'1010400023'
p852
g2
(g3
g4
Ntp853
Rp854
(dp855
g8
g852
sg9
g2
(g10
g4
Ntp856
Rp857
(dp858
g14
I2
sg15
S'z(2, 5)'
p859
sg17
I5
sg18
(I2
I5
tp860
sg20
(lp861
sbsbsS'1010400024'
p862
g2
(g3
g4
Ntp863
Rp864
(dp865
g8
g862
sg9
g2
(g10
g4
Ntp866
Rp867
(dp868
g14
I1
sg15
S'z(1, 6)'
p869
sg17
I6
sg18
(I1
I6
tp870
sg20
(lp871
sbsbsS'1010400025'
p872
g2
(g3
g4
Ntp873
Rp874
(dp875
g8
g872
sg9
g2
(g10
g4
Ntp876
Rp877
(dp878
g14
I4
sg15
S'z(4, 4)'
p879
sg17
I4
sg18
(I4
I4
tp880
sg20
(lp881
sbsbsS'1010400026'
p882
g2
(g3
g4
Ntp883
Rp884
(dp885
g8
g882
sg9
g2
(g10
g4
Ntp886
Rp887
(dp888
g14
I4
sg15
S'z(4, 3)'
p889
sg17
I3
sg18
(I4
I3
tp890
sg20
(lp891
sbsbsS'1010400027'
p892
g2
(g3
g4
Ntp893
Rp894
(dp895
g8
g892
sg9
g2
(g10
g4
Ntp896
Rp897
(dp898
g14
I4
sg15
S'z(4, 2)'
p899
sg17
I2
sg18
(I4
I2
tp900
sg20
(lp901
sbsbsS'1010400028'
p902
g2
(g3
g4
Ntp903
Rp904
(dp905
g8
g902
sg9
g2
(g10
g4
Ntp906
Rp907
(dp908
g14
I3
sg15
S'z(3, 2)'
p909
sg17
I2
sg18
(I3
I2
tp910
sg20
(lp911
sbsbsS'1010400029'
p912
g2
(g3
g4
Ntp913
Rp914
(dp915
g8
g912
sg9
g2
(g10
g4
Ntp916
Rp917
(dp918
g14
I3
sg15
S'z(3, 3)'
p919
sg17
I3
sg18
(I3
I3
tp920
sg20
(lp921
sbsbs.