(dp0
S'1010100034'
p1
ccopy_reg
_reconstructor
p2
(c_class
Landmark
p3
c__builtin__
object
p4
Ntp5
Rp6
(dp7
S'lid'
p8
g1
sS'z'
p9
g2
(c_class
Zone
p10
g4
Ntp11
Rp12
(dp13
S'i'
p14
I6
sS'j'
p15
I1
sS'beacon'
p16
NsS'zid'
p17
S'z(6, 1)'
p18
sS'coords'
p19
(I6
I1
tp20
sS'landmark'
p21
g6
sbsbsS'1010100035'
p22
g2
(g3
g4
Ntp23
Rp24
(dp25
g8
g22
sg9
g2
(g10
g4
Ntp26
Rp27
(dp28
g14
I5
sg15
I1
sg16
Nsg17
S'z(5, 1)'
p29
sg19
(I5
I1
tp30
sg21
g24
sbsbsS'1010100036'
p31
g2
(g3
g4
Ntp32
Rp33
(dp34
g8
g31
sg9
g2
(g10
g4
Ntp35
Rp36
(dp37
g14
I4
sg15
I1
sg16
Nsg17
S'z(4, 1)'
p38
sg19
(I4
I1
tp39
sg21
g33
sbsbsS'1010100037'
p40
g2
(g3
g4
Ntp41
Rp42
(dp43
g8
g40
sg9
g2
(g10
g4
Ntp44
Rp45
(dp46
g14
I3
sg15
I1
sg16
Nsg17
S'z(3, 1)'
p47
sg19
(I3
I1
tp48
sg21
g42
sbsbsS'1010100030'
p49
g2
(g3
g4
Ntp50
Rp51
(dp52
g8
g49
sg9
g2
(g10
g4
Ntp53
Rp54
(dp55
g14
I5
sg15
I2
sg16
Nsg17
S'z(5, 2)'
p56
sg19
(I5
I2
tp57
sg21
g51
sbsbsS'1010100031'
p58
g2
(g3
g4
Ntp59
Rp60
(dp61
g8
g58
sg9
g2
(g10
g4
Ntp62
Rp63
(dp64
g14
I5
sg15
I3
sg16
Nsg17
S'z(5, 3)'
p65
sg19
(I5
I3
tp66
sg21
g60
sbsbsS'1010100032'
p67
g2
(g3
g4
Ntp68
Rp69
(dp70
g8
g67
sg9
g2
(g10
g4
Ntp71
Rp72
(dp73
g14
I7
sg15
I0
sg16
Nsg17
S'z(7, 0)'
p74
sg19
(I7
I0
tp75
sg21
g69
sbsbsS'1010100033'
p76
g2
(g3
g4
Ntp77
Rp78
(dp79
g8
g76
sg9
g2
(g10
g4
Ntp80
Rp81
(dp82
g14
I7
sg15
I1
sg16
Nsg17
S'z(7, 1)'
p83
sg19
(I7
I1
tp84
sg21
g78
sbsbsS'1010100018'
p85
g2
(g3
g4
Ntp86
Rp87
(dp88
g8
g85
sg9
g2
(g10
g4
Ntp89
Rp90
(dp91
g14
I0
sg15
I4
sg16
Nsg17
S'z(0, 4)'
p92
sg19
(I0
I4
tp93
sg21
g87
sbsbsS'1010100019'
p94
g2
(g3
g4
Ntp95
Rp96
(dp97
g8
g94
sg9
g2
(g10
g4
Ntp98
Rp99
(dp100
g14
I0
sg15
I3
sg16
Nsg17
S'z(0, 3)'
p101
sg19
(I0
I3
tp102
sg21
g96
sbsbsS'1010100038'
p103
g2
(g3
g4
Ntp104
Rp105
(dp106
g8
g103
sg9
g2
(g10
g4
Ntp107
Rp108
(dp109
g14
I2
sg15
I1
sg16
Nsg17
S'z(2, 1)'
p110
sg19
(I2
I1
tp111
sg21
g105
sbsbsS'1010100039'
p112
g2
(g3
g4
Ntp113
Rp114
(dp115
g8
g112
sg9
g2
(g10
g4
Ntp116
Rp117
(dp118
g14
I0
sg15
I1
sg16
Nsg17
S'z(0, 1)'
p119
sg19
(I0
I1
tp120
sg21
g114
sbsbsS'1010100011'
p121
g2
(g3
g4
Ntp122
Rp123
(dp124
g8
g121
sg9
g2
(g10
g4
Ntp125
Rp126
(dp127
g14
I2
sg15
I8
sg16
Nsg17
S'z(2, 8)'
p128
sg19
(I2
I8
tp129
sg21
g123
sbsbsS'1010100013'
p130
g2
(g3
g4
Ntp131
Rp132
(dp133
g8
g130
sg9
g2
(g10
g4
Ntp134
Rp135
(dp136
g14
I1
sg15
I10
sg16
Nsg17
S'z(1, 10)'
p137
sg19
(I1
I10
tp138
sg21
g132
sbsbsS'1010100016'
p139
g2
(g3
g4
Ntp140
Rp141
(dp142
g8
g139
sg9
g2
(g10
g4
Ntp143
Rp144
(dp145
g14
I1
sg15
I8
sg16
Nsg17
S'z(1, 8)'
p146
sg19
(I1
I8
tp147
sg21
g141
sbsbsS'1010100017'
p148
g2
(g3
g4
Ntp149
Rp150
(dp151
g8
g148
sg9
g2
(g10
g4
Ntp152
Rp153
(dp154
g14
I0
sg15
I5
sg16
Nsg17
S'z(0, 5)'
p155
sg19
(I0
I5
tp156
sg21
g150
sbsbsS'1010100014'
p157
g2
(g3
g4
Ntp158
Rp159
(dp160
g8
g157
sg9
g2
(g10
g4
Ntp161
Rp162
(dp163
g14
I0
sg15
I9
sg16
Nsg17
S'z(0, 9)'
p164
sg19
(I0
I9
tp165
sg21
g159
sbsbsS'1010100015'
p166
g2
(g3
g4
Ntp167
Rp168
(dp169
g8
g166
sg9
g2
(g10
g4
Ntp170
Rp171
(dp172
g14
I0
sg15
I7
sg16
Nsg17
S'z(0, 7)'
p173
sg19
(I0
I7
tp174
sg21
g168
sbsbsS'1010100029'
p175
g2
(g3
g4
Ntp176
Rp177
(dp178
g8
g175
sg9
g2
(g10
g4
Ntp179
Rp180
(dp181
g14
I6
sg15
I2
sg16
Nsg17
S'z(6, 2)'
p182
sg19
(I6
I2
tp183
sg21
g177
sbsbsS'1010100028'
p184
g2
(g3
g4
Ntp185
Rp186
(dp187
g8
g184
sg9
g2
(g10
g4
Ntp188
Rp189
(dp190
g14
I6
sg15
I3
sg16
Nsg17
S'z(6, 3)'
p191
sg19
(I6
I3
tp192
sg21
g186
sbsbsS'1010100010'
p193
g2
(g3
g4
Ntp194
Rp195
(dp196
g8
g193
sg9
g2
(g10
g4
Ntp197
Rp198
(dp199
g14
I2
sg15
I7
sg16
Nsg17
S'z(2, 7)'
p200
sg19
(I2
I7
tp201
sg21
g195
sbsbsS'1010100023'
p202
g2
(g3
g4
Ntp203
Rp204
(dp205
g8
g202
sg9
g2
(g10
g4
Ntp206
Rp207
(dp208
g14
I2
sg15
I4
sg16
Nsg17
S'z(2, 4)'
p209
sg19
(I2
I4
tp210
sg21
g204
sbsbsS'1010100022'
p211
g2
(g3
g4
Ntp212
Rp213
(dp214
g8
g211
sg9
g2
(g10
g4
Ntp215
Rp216
(dp217
g14
I1
sg15
I3
sg16
Nsg17
S'z(1, 3)'
p218
sg19
(I1
I3
tp219
sg21
g213
sbsbsS'1010100021'
p220
g2
(g3
g4
Ntp221
Rp222
(dp223
g8
g220
sg9
g2
(g10
g4
Ntp224
Rp225
(dp226
g14
I1
sg15
I2
sg16
Nsg17
S'z(1, 2)'
p227
sg19
(I1
I2
tp228
sg21
g222
sbsbsS'1010100020'
p229
g2
(g3
g4
Ntp230
Rp231
(dp232
g8
g229
sg9
g2
(g10
g4
Ntp233
Rp234
(dp235
g14
I0
sg15
I2
sg16
Nsg17
S'z(0, 2)'
p236
sg19
(I0
I2
tp237
sg21
g231
sbsbsS'1010100027'
p238
g2
(g3
g4
Ntp239
Rp240
(dp241
g8
g238
sg9
g2
(g10
g4
Ntp242
Rp243
(dp244
g14
I6
sg15
I4
sg16
Nsg17
S'z(6, 4)'
p245
sg19
(I6
I4
tp246
sg21
g240
sbsbsS'1010100026'
p247
g2
(g3
g4
Ntp248
Rp249
(dp250
g8
g247
sg9
g2
(g10
g4
Ntp251
Rp252
(dp253
g14
I5
sg15
I4
sg16
Nsg17
S'z(5, 4)'
p254
sg19
(I5
I4
tp255
sg21
g249
sbsbsS'1010100025'
p256
g2
(g3
g4
Ntp257
Rp258
(dp259
g8
g256
sg9
g2
(g10
g4
Ntp260
Rp261
(dp262
g14
I4
sg15
I4
sg16
Nsg17
S'z(4, 4)'
p263
sg19
(I4
I4
tp264
sg21
g258
sbsbsS'1010100024'
p265
g2
(g3
g4
Ntp266
Rp267
(dp268
g8
g265
sg9
g2
(g10
g4
Ntp269
Rp270
(dp271
g14
I3
sg15
I4
sg16
Nsg17
S'z(3, 4)'
p272
sg19
(I3
I4
tp273
sg21
g267
sbsbsS'1010100001'
p274
g2
(g3
g4
Ntp275
Rp276
(dp277
g8
g274
sg9
g2
(g10
g4
Ntp278
Rp279
(dp280
g14
I7
sg15
I2
sg16
Nsg17
S'z(7, 2)'
p281
sg19
(I7
I2
tp282
sg21
g276
sbsbsS'1010100003'
p283
g2
(g3
g4
Ntp284
Rp285
(dp286
g8
g283
sg9
g2
(g10
g4
Ntp287
Rp288
(dp289
g14
I7
sg15
I4
sg16
Nsg17
S'z(7, 4)'
p290
sg19
(I7
I4
tp291
sg21
g285
sbsbsS'1010100002'
p292
g2
(g3
g4
Ntp293
Rp294
(dp295
g8
g292
sg9
g2
(g10
g4
Ntp296
Rp297
(dp298
g14
I7
sg15
I3
sg16
Nsg17
S'z(7, 3)'
p299
sg19
(I7
I3
tp300
sg21
g294
sbsbsS'1010100005'
p301
g2
(g3
g4
Ntp302
Rp303
(dp304
g8
g301
sg9
g2
(g10
g4
Ntp305
Rp306
(dp307
g14
I6
sg15
I6
sg16
Nsg17
S'z(6, 6)'
p308
sg19
(I6
I6
tp309
sg21
g303
sbsbsS'1010100004'
p310
g2
(g3
g4
Ntp311
Rp312
(dp313
g8
g310
sg9
g2
(g10
g4
Ntp314
Rp315
(dp316
g14
I7
sg15
I6
sg16
Nsg17
S'z(7, 6)'
p317
sg19
(I7
I6
tp318
sg21
g312
sbsbsS'1010100007'
p319
g2
(g3
g4
Ntp320
Rp321
(dp322
g8
g319
sg9
g2
(g10
g4
Ntp323
Rp324
(dp325
g14
I4
sg15
I6
sg16
Nsg17
S'z(4, 6)'
p326
sg19
(I4
I6
tp327
sg21
g321
sbsbsS'1010100006'
p328
g2
(g3
g4
Ntp329
Rp330
(dp331
g8
g328
sg9
g2
(g10
g4
Ntp332
Rp333
(dp334
g14
I5
sg15
I6
sg16
Nsg17
S'z(5, 6)'
p335
sg19
(I5
I6
tp336
sg21
g330
sbsbsS'1010100009'
p337
g2
(g3
g4
Ntp338
Rp339
(dp340
g8
g337
sg9
g2
(g10
g4
Ntp341
Rp342
(dp343
g14
I2
sg15
I5
sg16
Nsg17
S'z(2, 5)'
p344
sg19
(I2
I5
tp345
sg21
g339
sbsbsS'1010100008'
p346
g2
(g3
g4
Ntp347
Rp348
(dp349
g8
g346
sg9
g2
(g10
g4
Ntp350
Rp351
(dp352
g14
I3
sg15
I6
sg16
Nsg17
S'z(3, 6)'
p353
sg19
(I3
I6
tp354
sg21
g348
sbsbsS'1010100012'
p355
g2
(g3
g4
Ntp356
Rp357
(dp358
g8
g355
sg9
g2
(g10
g4
Ntp359
Rp360
(dp361
g14
I2
sg15
I11
sg16
Nsg17
S'z(2, 11)'
p362
sg19
(I2
I11
tp363
sg21
g357
sbsbs.