(dp0
S'1010400037'
p1
ccopy_reg
_reconstructor
p2
(c_class
Landmark
p3
c__builtin__
object
p4
Ntp5
Rp6
(dp7
S'lid'
p8
g1
sS'z'
p9
g2
(c_class
Zone
p10
g4
Ntp11
Rp12
(dp13
S'i'
p14
I8
sS'j'
p15
I2
sS'beacon'
p16
NsS'zid'
p17
S'z(8, 2)'
p18
sS'coords'
p19
(I8
I2
tp20
sS'landmark'
p21
g6
sbsbsS'1010400036'
p22
g2
(g3
g4
Ntp23
Rp24
(dp25
g8
g22
sg9
g2
(g10
g4
Ntp26
Rp27
(dp28
g14
I6
sg15
I2
sg16
Nsg17
S'z(6, 2)'
p29
sg19
(I6
I2
tp30
sg21
g24
sbsbsS'1010400035'
p31
g2
(g3
g4
Ntp32
Rp33
(dp34
g8
g31
sg9
g2
(g10
g4
Ntp35
Rp36
(dp37
g14
I2
sg15
I2
sg16
Nsg17
S'z(2, 2)'
p38
sg19
(I2
I2
tp39
sg21
g33
sbsbsS'1010400034'
p40
g2
(g3
g4
Ntp41
Rp42
(dp43
g8
g40
sg9
g2
(g10
g4
Ntp44
Rp45
(dp46
g14
I2
sg15
I1
sg16
Nsg17
S'z(2, 1)'
p47
sg19
(I2
I1
tp48
sg21
g42
sbsbsS'1010400033'
p49
g2
(g3
g4
Ntp50
Rp51
(dp52
g8
g49
sg9
g2
(g10
g4
Ntp53
Rp54
(dp55
g14
I1
sg15
I0
sg16
Nsg17
S'z(1, 0)'
p56
sg19
(I1
I0
tp57
sg21
g51
sbsbsS'1010400032'
p58
g2
(g3
g4
Ntp59
Rp60
(dp61
g8
g58
sg9
g2
(g10
g4
Ntp62
Rp63
(dp64
g14
I2
sg15
I0
sg16
Nsg17
S'z(2, 0)'
p65
sg19
(I2
I0
tp66
sg21
g60
sbsbsS'1010400031'
p67
g2
(g3
g4
Ntp68
Rp69
(dp70
g8
g67
sg9
g2
(g10
g4
Ntp71
Rp72
(dp73
g14
I3
sg15
I0
sg16
Nsg17
S'z(3, 0)'
p74
sg19
(I3
I0
tp75
sg21
g69
sbsbsS'1010400030'
p76
g2
(g3
g4
Ntp77
Rp78
(dp79
g8
g76
sg9
g2
(g10
g4
Ntp80
Rp81
(dp82
g14
I3
sg15
I1
sg16
Nsg17
S'z(3, 1)'
p83
sg19
(I3
I1
tp84
sg21
g78
sbsbsS'1010400039'
p85
g2
(g3
g4
Ntp86
Rp87
(dp88
g8
g85
sg9
g2
(g10
g4
Ntp89
Rp90
(dp91
g14
I8
sg15
I4
sg16
Nsg17
S'z(8, 4)'
p92
sg19
(I8
I4
tp93
sg21
g87
sbsbsS'1010400038'
p94
g2
(g3
g4
Ntp95
Rp96
(dp97
g8
g94
sg9
g2
(g10
g4
Ntp98
Rp99
(dp100
g14
I8
sg15
I3
sg16
Nsg17
S'z(8, 3)'
p101
sg19
(I8
I3
tp102
sg21
g96
sbsbsS'1010400042'
p103
g2
(g3
g4
Ntp104
Rp105
(dp106
g8
g103
sg9
g2
(g10
g4
Ntp107
Rp108
(dp109
g14
I9
sg15
I2
sg16
Nsg17
S'z(9, 2)'
p110
sg19
(I9
I2
tp111
sg21
g105
sbsbsS'1010400043'
p112
g2
(g3
g4
Ntp113
Rp114
(dp115
g8
g112
sg9
g2
(g10
g4
Ntp116
Rp117
(dp118
g14
I10
sg15
I2
sg16
Nsg17
S'z(10, 2)'
p119
sg19
(I10
I2
tp120
sg21
g114
sbsbsS'1010400040'
p121
g2
(g3
g4
Ntp122
Rp123
(dp124
g8
g121
sg9
g2
(g10
g4
Ntp125
Rp126
(dp127
g14
I8
sg15
I1
sg16
Nsg17
S'z(8, 1)'
p128
sg19
(I8
I1
tp129
sg21
g123
sbsbsS'1010400041'
p130
g2
(g3
g4
Ntp131
Rp132
(dp133
g8
g130
sg9
g2
(g10
g4
Ntp134
Rp135
(dp136
g14
I8
sg15
I0
sg16
Nsg17
S'z(8, 0)'
p137
sg19
(I8
I0
tp138
sg21
g132
sbsbsS'1010400046'
p139
g2
(g3
g4
Ntp140
Rp141
(dp142
g8
g139
sg9
g2
(g10
g4
Ntp143
Rp144
(dp145
g14
I11
sg15
I4
sg16
Nsg17
S'z(11, 4)'
p146
sg19
(I11
I4
tp147
sg21
g141
sbsbsS'1010400047'
p148
g2
(g3
g4
Ntp149
Rp150
(dp151
g8
g148
sg9
g2
(g10
g4
Ntp152
Rp153
(dp154
g14
I11
sg15
I5
sg16
Nsg17
S'z(11, 5)'
p155
sg19
(I11
I5
tp156
sg21
g150
sbsbsS'1010400044'
p157
g2
(g3
g4
Ntp158
Rp159
(dp160
g8
g157
sg9
g2
(g10
g4
Ntp161
Rp162
(dp163
g14
I11
sg15
I2
sg16
Nsg17
S'z(11, 2)'
p164
sg19
(I11
I2
tp165
sg21
g159
sbsbsS'1010400045'
p166
g2
(g3
g4
Ntp167
Rp168
(dp169
g8
g166
sg9
g2
(g10
g4
Ntp170
Rp171
(dp172
g14
I11
sg15
I3
sg16
Nsg17
S'z(11, 3)'
p173
sg19
(I11
I3
tp174
sg21
g168
sbsbsS'1010400048'
p175
g2
(g3
g4
Ntp176
Rp177
(dp178
g8
g175
sg9
g2
(g10
g4
Ntp179
Rp180
(dp181
g14
I11
sg15
I6
sg16
Nsg17
S'z(11, 6)'
p182
sg19
(I11
I6
tp183
sg21
g177
sbsbsS'1010400049'
p184
g2
(g3
g4
Ntp185
Rp186
(dp187
g8
g184
sg9
g2
(g10
g4
Ntp188
Rp189
(dp190
g14
I12
sg15
I6
sg16
Nsg17
S'z(12, 6)'
p191
sg19
(I12
I6
tp192
sg21
g186
sbsbsS'1010400051'
p193
g2
(g3
g4
Ntp194
Rp195
(dp196
g8
g193
sg9
g2
(g10
g4
Ntp197
Rp198
(dp199
g14
I11
sg15
I1
sg16
Nsg17
S'z(11, 1)'
p200
sg19
(I11
I1
tp201
sg21
g195
sbsbsS'1010400050'
p202
g2
(g3
g4
Ntp203
Rp204
(dp205
g8
g202
sg9
g2
(g10
g4
Ntp206
Rp207
(dp208
g14
I12
sg15
I5
sg16
Nsg17
S'z(12, 5)'
p209
sg19
(I12
I5
tp210
sg21
g204
sbsbsS'1010400053'
p211
g2
(g3
g4
Ntp212
Rp213
(dp214
g8
g211
sg9
g2
(g10
g4
Ntp215
Rp216
(dp217
g14
I12
sg15
I2
sg16
Nsg17
S'z(12, 2)'
p218
sg19
(I12
I2
tp219
sg21
g213
sbsbsS'1010400052'
p220
g2
(g3
g4
Ntp221
Rp222
(dp223
g8
g220
sg9
g2
(g10
g4
Ntp224
Rp225
(dp226
g14
I11
sg15
I0
sg16
Nsg17
S'z(11, 0)'
p227
sg19
(I11
I0
tp228
sg21
g222
sbsbsS'1010400055'
p229
g2
(g3
g4
Ntp230
Rp231
(dp232
g8
g229
sg9
g2
(g10
g4
Ntp233
Rp234
(dp235
g14
I14
sg15
I2
sg16
Nsg17
S'z(14, 2)'
p236
sg19
(I14
I2
tp237
sg21
g231
sbsbsS'1010400054'
p238
g2
(g3
g4
Ntp239
Rp240
(dp241
g8
g238
sg9
g2
(g10
g4
Ntp242
Rp243
(dp244
g14
I13
sg15
I2
sg16
Nsg17
S'z(13, 2)'
p245
sg19
(I13
I2
tp246
sg21
g240
sbsbsS'1010400057'
p247
g2
(g3
g4
Ntp248
Rp249
(dp250
g8
g247
sg9
g2
(g10
g4
Ntp251
Rp252
(dp253
g14
I14
sg15
I4
sg16
Nsg17
S'z(14, 4)'
p254
sg19
(I14
I4
tp255
sg21
g249
sbsbsS'1010400056'
p256
g2
(g3
g4
Ntp257
Rp258
(dp259
g8
g256
sg9
g2
(g10
g4
Ntp260
Rp261
(dp262
g14
I14
sg15
I3
sg16
Nsg17
S'z(14, 3)'
p263
sg19
(I14
I3
tp264
sg21
g258
sbsbsS'1010400059'
p265
g2
(g3
g4
Ntp266
Rp267
(dp268
g8
g265
sg9
g2
(g10
g4
Ntp269
Rp270
(dp271
g14
I14
sg15
I0
sg16
Nsg17
S'z(14, 0)'
p272
sg19
(I14
I0
tp273
sg21
g267
sbsbsS'1010400058'
p274
g2
(g3
g4
Ntp275
Rp276
(dp277
g8
g274
sg9
g2
(g10
g4
Ntp278
Rp279
(dp280
g14
I14
sg15
I1
sg16
Nsg17
S'z(14, 1)'
p281
sg19
(I14
I1
tp282
sg21
g276
sbsbsS'1010400064'
p283
g2
(g3
g4
Ntp284
Rp285
(dp286
g8
g283
sg9
g2
(g10
g4
Ntp287
Rp288
(dp289
g14
I17
sg15
I4
sg16
Nsg17
S'z(17, 4)'
p290
sg19
(I17
I4
tp291
sg21
g285
sbsbsS'1010400065'
p292
g2
(g3
g4
Ntp293
Rp294
(dp295
g8
g292
sg9
g2
(g10
g4
Ntp296
Rp297
(dp298
g14
I17
sg15
I5
sg16
Nsg17
S'z(17, 5)'
p299
sg19
(I17
I5
tp300
sg21
g294
sbsbsS'1010400066'
p301
g2
(g3
g4
Ntp302
Rp303
(dp304
g8
g301
sg9
g2
(g10
g4
Ntp305
Rp306
(dp307
g14
I17
sg15
I1
sg16
Nsg17
S'z(17, 1)'
p308
sg19
(I17
I1
tp309
sg21
g303
sbsbsS'1010400067'
p310
g2
(g3
g4
Ntp311
Rp312
(dp313
g8
g310
sg9
g2
(g10
g4
Ntp314
Rp315
(dp316
g14
I17
sg15
I0
sg16
Nsg17
S'z(17, 0)'
p317
sg19
(I17
I0
tp318
sg21
g312
sbsbsS'1010400060'
p319
g2
(g3
g4
Ntp320
Rp321
(dp322
g8
g319
sg9
g2
(g10
g4
Ntp323
Rp324
(dp325
g14
I15
sg15
I2
sg16
Nsg17
S'z(15, 2)'
p326
sg19
(I15
I2
tp327
sg21
g321
sbsbsS'1010400061'
p328
g2
(g3
g4
Ntp329
Rp330
(dp331
g8
g328
sg9
g2
(g10
g4
Ntp332
Rp333
(dp334
g14
I16
sg15
I2
sg16
Nsg17
S'z(16, 2)'
p335
sg19
(I16
I2
tp336
sg21
g330
sbsbsS'1010400062'
p337
g2
(g3
g4
Ntp338
Rp339
(dp340
g8
g337
sg9
g2
(g10
g4
Ntp341
Rp342
(dp343
g14
I17
sg15
I2
sg16
Nsg17
S'z(17, 2)'
p344
sg19
(I17
I2
tp345
sg21
g339
sbsbsS'1010400063'
p346
g2
(g3
g4
Ntp347
Rp348
(dp349
g8
g346
sg9
g2
(g10
g4
Ntp350
Rp351
(dp352
g14
I17
sg15
I3
sg16
Nsg17
S'z(17, 3)'
p353
sg19
(I17
I3
tp354
sg21
g348
sbsbsS'1010400068'
p355
g2
(g3
g4
Ntp356
Rp357
(dp358
g8
g355
sg9
g2
(g10
g4
Ntp359
Rp360
(dp361
g14
I18
sg15
I2
sg16
Nsg17
S'z(18, 2)'
p362
sg19
(I18
I2
tp363
sg21
g357
sbsbsS'1010400069'
p364
g2
(g3
g4
Ntp365
Rp366
(dp367
g8
g364
sg9
g2
(g10
g4
Ntp368
Rp369
(dp370
g14
I19
sg15
I2
sg16
Nsg17
S'z(19, 2)'
p371
sg19
(I19
I2
tp372
sg21
g366
sbsbsS'1010400086'
p373
g2
(g3
g4
Ntp374
Rp375
(dp376
g8
g373
sg9
g2
(g10
g4
Ntp377
Rp378
(dp379
g14
I1
sg15
I10
sg16
Nsg17
S'z(1, 10)'
p380
sg19
(I1
I10
tp381
sg21
g375
sbsbsS'1010400087'
p382
g2
(g3
g4
Ntp383
Rp384
(dp385
g8
g382
sg9
g2
(g10
g4
Ntp386
Rp387
(dp388
g14
I0
sg15
I7
sg16
Nsg17
S'z(0, 7)'
p389
sg19
(I0
I7
tp390
sg21
g384
sbsbsS'1010400084'
p391
g2
(g3
g4
Ntp392
Rp393
(dp394
g8
g391
sg9
g2
(g10
g4
Ntp395
Rp396
(dp397
g14
I7
sg15
I20
sg16
Nsg17
S'z(7, 20)'
p398
sg19
(I7
I20
tp399
sg21
g393
sbsbsS'1010400085'
p400
g2
(g3
g4
Ntp401
Rp402
(dp403
g8
g400
sg9
g2
(g10
g4
Ntp404
Rp405
(dp406
g14
I2
sg15
I13
sg16
Nsg17
S'z(2, 13)'
p407
sg19
(I2
I13
tp408
sg21
g402
sbsbsS'1010400082'
p409
g2
(g3
g4
Ntp410
Rp411
(dp412
g8
g409
sg9
g2
(g10
g4
Ntp413
Rp414
(dp415
g14
I4
sg15
I16
sg16
Nsg17
S'z(4, 16)'
p416
sg19
(I4
I16
tp417
sg21
g411
sbsbsS'1010400083'
p418
g2
(g3
g4
Ntp419
Rp420
(dp421
g8
g418
sg9
g2
(g10
g4
Ntp422
Rp423
(dp424
g14
I4
sg15
I18
sg16
Nsg17
S'z(4, 18)'
p425
sg19
(I4
I18
tp426
sg21
g420
sbsbsS'1010400080'
p427
g2
(g3
g4
Ntp428
Rp429
(dp430
g8
g427
sg9
g2
(g10
g4
Ntp431
Rp432
(dp433
g14
I10
sg15
I16
sg16
Nsg17
S'z(10, 16)'
p434
sg19
(I10
I16
tp435
sg21
g429
sbsbsS'1010400081'
p436
g2
(g3
g4
Ntp437
Rp438
(dp439
g8
g436
sg9
g2
(g10
g4
Ntp440
Rp441
(dp442
g14
I10
sg15
I18
sg16
Nsg17
S'z(10, 18)'
p443
sg19
(I10
I18
tp444
sg21
g438
sbsbsS'1010400088'
p445
g2
(g3
g4
Ntp446
Rp447
(dp448
g8
g445
sg9
g2
(g10
g4
Ntp449
Rp450
(dp451
g14
I2
sg15
I7
sg16
Nsg17
S'z(2, 7)'
p452
sg19
(I2
I7
tp453
sg21
g447
sbsbsS'1010400089'
p454
g2
(g3
g4
Ntp455
Rp456
(dp457
g8
g454
sg9
g2
(g10
g4
Ntp458
Rp459
(dp460
g14
I0
sg15
I6
sg16
Nsg17
S'z(0, 6)'
p461
sg19
(I0
I6
tp462
sg21
g456
sbsbsS'1010400079'
p463
g2
(g3
g4
Ntp464
Rp465
(dp466
g8
g463
sg9
g2
(g10
g4
Ntp467
Rp468
(dp469
g14
I10
sg15
I13
sg16
Nsg17
S'z(10, 13)'
p470
sg19
(I10
I13
tp471
sg21
g465
sbsbsS'1010400078'
p472
g2
(g3
g4
Ntp473
Rp474
(dp475
g8
g472
sg9
g2
(g10
g4
Ntp476
Rp477
(dp478
g14
I13
sg15
I16
sg16
Nsg17
S'z(13, 16)'
p479
sg19
(I13
I16
tp480
sg21
g474
sbsbsS'1010400073'
p481
g2
(g3
g4
Ntp482
Rp483
(dp484
g8
g481
sg9
g2
(g10
g4
Ntp485
Rp486
(dp487
g14
I20
sg15
I4
sg16
Nsg17
S'z(20, 4)'
p488
sg19
(I20
I4
tp489
sg21
g483
sbsbsS'1010400072'
p490
g2
(g3
g4
Ntp491
Rp492
(dp493
g8
g490
sg9
g2
(g10
g4
Ntp494
Rp495
(dp496
g14
I20
sg15
I3
sg16
Nsg17
S'z(20, 3)'
p497
sg19
(I20
I3
tp498
sg21
g492
sbsbsS'1010400071'
p499
g2
(g3
g4
Ntp500
Rp501
(dp502
g8
g499
sg9
g2
(g10
g4
Ntp503
Rp504
(dp505
g14
I21
sg15
I3
sg16
Nsg17
S'z(21, 3)'
p506
sg19
(I21
I3
tp507
sg21
g501
sbsbsS'1010400070'
p508
g2
(g3
g4
Ntp509
Rp510
(dp511
g8
g508
sg9
g2
(g10
g4
Ntp512
Rp513
(dp514
g14
I20
sg15
I2
sg16
Nsg17
S'z(20, 2)'
p515
sg19
(I20
I2
tp516
sg21
g510
sbsbsS'1010400077'
p517
g2
(g3
g4
Ntp518
Rp519
(dp520
g8
g517
sg9
g2
(g10
g4
Ntp521
Rp522
(dp523
g14
I13
sg15
I14
sg16
Nsg17
S'z(13, 14)'
p524
sg19
(I13
I14
tp525
sg21
g519
sbsbsS'1010400076'
p526
g2
(g3
g4
Ntp527
Rp528
(dp529
g8
g526
sg9
g2
(g10
g4
Ntp530
Rp531
(dp532
g14
I22
sg15
I0
sg16
Nsg17
S'z(22, 0)'
p533
sg19
(I22
I0
tp534
sg21
g528
sbsbsS'1010400075'
p535
g2
(g3
g4
Ntp536
Rp537
(dp538
g8
g535
sg9
g2
(g10
g4
Ntp539
Rp540
(dp541
g14
I20
sg15
I0
sg16
Nsg17
S'z(20, 0)'
p542
sg19
(I20
I0
tp543
sg21
g537
sbsbsS'1010400074'
p544
g2
(g3
g4
Ntp545
Rp546
(dp547
g8
g544
sg9
g2
(g10
g4
Ntp548
Rp549
(dp550
g14
I20
sg15
I1
sg16
Nsg17
S'z(20, 1)'
p551
sg19
(I20
I1
tp552
sg21
g546
sbsbsS'1010400091'
p553
g2
(g3
g4
Ntp554
Rp555
(dp556
g8
g553
sg9
g2
(g10
g4
Ntp557
Rp558
(dp559
g14
I6
sg15
I11
sg16
Nsg17
S'z(6, 11)'
p560
sg19
(I6
I11
tp561
sg21
g555
sbsbsS'1010400090'
p562
g2
(g3
g4
Ntp563
Rp564
(dp565
g8
g562
sg9
g2
(g10
g4
Ntp566
Rp567
(dp568
g14
I5
sg15
I5
sg16
Nsg17
S'z(5, 5)'
p569
sg19
(I5
I5
tp570
sg21
g564
sbsbsS'1010400008'
p571
g2
(g3
g4
Ntp572
Rp573
(dp574
g8
g571
sg9
g2
(g10
g4
Ntp575
Rp576
(dp577
g14
I10
sg15
I11
sg16
Nsg17
S'z(10, 11)'
p578
sg19
(I10
I11
tp579
sg21
g573
sbsbsS'1010400009'
p580
g2
(g3
g4
Ntp581
Rp582
(dp583
g8
g580
sg9
g2
(g10
g4
Ntp584
Rp585
(dp586
g14
I9
sg15
I9
sg16
Nsg17
S'z(9, 9)'
p587
sg19
(I9
I9
tp588
sg21
g582
sbsbsS'1010400006'
p589
g2
(g3
g4
Ntp590
Rp591
(dp592
g8
g589
sg9
g2
(g10
g4
Ntp593
Rp594
(dp595
g14
I10
sg15
I8
sg16
Nsg17
S'z(10, 8)'
p596
sg19
(I10
I8
tp597
sg21
g591
sbsbsS'1010400007'
p598
g2
(g3
g4
Ntp599
Rp600
(dp601
g8
g598
sg9
g2
(g10
g4
Ntp602
Rp603
(dp604
g14
I10
sg15
I10
sg16
Nsg17
S'z(10, 10)'
p605
sg19
(I10
I10
tp606
sg21
g600
sbsbsS'1010400004'
p607
g2
(g3
g4
Ntp608
Rp609
(dp610
g8
g607
sg9
g2
(g10
g4
Ntp611
Rp612
(dp613
g14
I11
sg15
I7
sg16
Nsg17
S'z(11, 7)'
p614
sg19
(I11
I7
tp615
sg21
g609
sbsbsS'1010400005'
p616
g2
(g3
g4
Ntp617
Rp618
(dp619
g8
g616
sg9
g2
(g10
g4
Ntp620
Rp621
(dp622
g14
I10
sg15
I7
sg16
Nsg17
S'z(10, 7)'
p623
sg19
(I10
I7
tp624
sg21
g618
sbsbsS'1010400002'
p625
g2
(g3
g4
Ntp626
Rp627
(dp628
g8
g625
sg9
g2
(g10
g4
Ntp629
Rp630
(dp631
g14
I11
sg15
I10
sg16
Nsg17
S'z(11, 10)'
p632
sg19
(I11
I10
tp633
sg21
g627
sbsbsS'1010400003'
p634
g2
(g3
g4
Ntp635
Rp636
(dp637
g8
g634
sg9
g2
(g10
g4
Ntp638
Rp639
(dp640
g14
I11
sg15
I8
sg16
Nsg17
S'z(11, 8)'
p641
sg19
(I11
I8
tp642
sg21
g636
sbsbsS'1010400001'
p643
g2
(g3
g4
Ntp644
Rp645
(dp646
g8
g643
sg9
g2
(g10
g4
Ntp647
Rp648
(dp649
g14
I11
sg15
I11
sg16
Nsg17
S'z(11, 11)'
p650
sg19
(I11
I11
tp651
sg21
g645
sbsbsS'1010400019'
p652
g2
(g3
g4
Ntp653
Rp654
(dp655
g8
g652
sg9
g2
(g10
g4
Ntp656
Rp657
(dp658
g14
I4
sg15
I8
sg16
Nsg17
S'z(4, 8)'
p659
sg19
(I4
I8
tp660
sg21
g654
sbsbsS'1010400018'
p661
g2
(g3
g4
Ntp662
Rp663
(dp664
g8
g661
sg9
g2
(g10
g4
Ntp665
Rp666
(dp667
g14
I4
sg15
I14
sg16
Nsg17
S'z(4, 14)'
p668
sg19
(I4
I14
tp669
sg21
g663
sbsbsS'1010400015'
p670
g2
(g3
g4
Ntp671
Rp672
(dp673
g8
g670
sg9
g2
(g10
g4
Ntp674
Rp675
(dp676
g14
I4
sg15
I10
sg16
Nsg17
S'z(4, 10)'
p677
sg19
(I4
I10
tp678
sg21
g672
sbsbsS'1010400014'
p679
g2
(g3
g4
Ntp680
Rp681
(dp682
g8
g679
sg9
g2
(g10
g4
Ntp683
Rp684
(dp685
g14
I4
sg15
I9
sg16
Nsg17
S'z(4, 9)'
p686
sg19
(I4
I9
tp687
sg21
g681
sbsbsS'1010400017'
p688
g2
(g3
g4
Ntp689
Rp690
(dp691
g8
g688
sg9
g2
(g10
g4
Ntp692
Rp693
(dp694
g14
I4
sg15
I13
sg16
Nsg17
S'z(4, 13)'
p695
sg19
(I4
I13
tp696
sg21
g690
sbsbsS'1010400016'
p697
g2
(g3
g4
Ntp698
Rp699
(dp700
g8
g697
sg9
g2
(g10
g4
Ntp701
Rp702
(dp703
g14
I4
sg15
I12
sg16
Nsg17
S'z(4, 12)'
p704
sg19
(I4
I12
tp705
sg21
g699
sbsbsS'1010400011'
p706
g2
(g3
g4
Ntp707
Rp708
(dp709
g8
g706
sg9
g2
(g10
g4
Ntp710
Rp711
(dp712
g14
I8
sg15
I7
sg16
Nsg17
S'z(8, 7)'
p713
sg19
(I8
I7
tp714
sg21
g708
sbsbsS'1010400010'
p715
g2
(g3
g4
Ntp716
Rp717
(dp718
g8
g715
sg9
g2
(g10
g4
Ntp719
Rp720
(dp721
g14
I8
sg15
I9
sg16
Nsg17
S'z(8, 9)'
p722
sg19
(I8
I9
tp723
sg21
g717
sbsbsS'1010400013'
p724
g2
(g3
g4
Ntp725
Rp726
(dp727
g8
g724
sg9
g2
(g10
g4
Ntp728
Rp729
(dp730
g14
I5
sg15
I9
sg16
Nsg17
S'z(5, 9)'
p731
sg19
(I5
I9
tp732
sg21
g726
sbsbsS'1010400012'
p733
g2
(g3
g4
Ntp734
Rp735
(dp736
g8
g733
sg9
g2
(g10
g4
Ntp737
Rp738
(dp739
g14
I7
sg15
I9
sg16
Nsg17
S'z(7, 9)'
p740
sg19
(I7
I9
tp741
sg21
g735
sbsbsS'1010400020'
p742
g2
(g3
g4
Ntp743
Rp744
(dp745
g8
g742
sg9
g2
(g10
g4
Ntp746
Rp747
(dp748
g14
I4
sg15
I7
sg16
Nsg17
S'z(4, 7)'
p749
sg19
(I4
I7
tp750
sg21
g744
sbsbsS'1010400021'
p751
g2
(g3
g4
Ntp752
Rp753
(dp754
g8
g751
sg9
g2
(g10
g4
Ntp755
Rp756
(dp757
g14
I4
sg15
I6
sg16
Nsg17
S'z(4, 6)'
p758
sg19
(I4
I6
tp759
sg21
g753
sbsbsS'1010400022'
p760
g2
(g3
g4
Ntp761
Rp762
(dp763
g8
g760
sg9
g2
(g10
g4
Ntp764
Rp765
(dp766
g14
I3
sg15
I6
sg16
Nsg17
S'z(3, 6)'
p767
sg19
(I3
I6
tp768
sg21
g762
sbsbsS'1010400023'
p769
g2
(g3
g4
Ntp770
Rp771
(dp772
g8
g769
sg9
g2
(g10
g4
Ntp773
Rp774
(dp775
g14
I2
sg15
I5
sg16
Nsg17
S'z(2, 5)'
p776
sg19
(I2
I5
tp777
sg21
g771
sbsbsS'1010400024'
p778
g2
(g3
g4
Ntp779
Rp780
(dp781
g8
g778
sg9
g2
(g10
g4
Ntp782
Rp783
(dp784
g14
I1
sg15
I6
sg16
Nsg17
S'z(1, 6)'
p785
sg19
(I1
I6
tp786
sg21
g780
sbsbsS'1010400025'
p787
g2
(g3
g4
Ntp788
Rp789
(dp790
g8
g787
sg9
g2
(g10
g4
Ntp791
Rp792
(dp793
g14
I4
sg15
I4
sg16
Nsg17
S'z(4, 4)'
p794
sg19
(I4
I4
tp795
sg21
g789
sbsbsS'1010400026'
p796
g2
(g3
g4
Ntp797
Rp798
(dp799
g8
g796
sg9
g2
(g10
g4
Ntp800
Rp801
(dp802
g14
I4
sg15
I3
sg16
Nsg17
S'z(4, 3)'
p803
sg19
(I4
I3
tp804
sg21
g798
sbsbsS'1010400027'
p805
g2
(g3
g4
Ntp806
Rp807
(dp808
g8
g805
sg9
g2
(g10
g4
Ntp809
Rp810
(dp811
g14
I4
sg15
I2
sg16
Nsg17
S'z(4, 2)'
p812
sg19
(I4
I2
tp813
sg21
g807
sbsbsS'1010400028'
p814
g2
(g3
g4
Ntp815
Rp816
(dp817
g8
g814
sg9
g2
(g10
g4
Ntp818
Rp819
(dp820
g14
I3
sg15
I2
sg16
Nsg17
S'z(3, 2)'
p821
sg19
(I3
I2
tp822
sg21
g816
sbsbsS'1010400029'
p823
g2
(g3
g4
Ntp824
Rp825
(dp826
g8
g823
sg9
g2
(g10
g4
Ntp827
Rp828
(dp829
g14
I3
sg15
I3
sg16
Nsg17
S'z(3, 3)'
p830
sg19
(I3
I3
tp831
sg21
g825
sbsbs.