(dp0
S'1010400037'
p1
ccopy_reg
_reconstructor
p2
(c_class
Landmark
p3
c__builtin__
object
p4
Ntp5
Rp6
(dp7
S'lid'
p8
g1
sS'z'
p9
g2
(c_class
Zone
p10
g4
Ntp11
Rp12
(dp13
S'i'
p14
I30
sS'j'
p15
I17
sS'feasible'
p16
I00
sS'zid'
p17
S'z(30, 17)'
p18
sS'coords'
p19
(I30
I17
tp20
sS'bs'
p21
(lp22
sbsbsS'1010400036'
p23
g2
(g3
g4
Ntp24
Rp25
(dp26
g8
g23
sg9
g2
(g10
g4
Ntp27
Rp28
(dp29
g14
I25
sg15
I18
sg16
I00
sg17
S'z(25, 18)'
p30
sg19
(I25
I18
tp31
sg21
(lp32
sbsbsS'1010400035'
p33
g2
(g3
g4
Ntp34
Rp35
(dp36
g8
g33
sg9
g2
(g10
g4
Ntp37
Rp38
(dp39
g14
I14
sg15
I16
sg16
I00
sg17
S'z(14, 16)'
p40
sg19
(I14
I16
tp41
sg21
(lp42
sbsbsS'1010400034'
p43
g2
(g3
g4
Ntp44
Rp45
(dp46
g8
g43
sg9
g2
(g10
g4
Ntp47
Rp48
(dp49
g14
I14
sg15
I12
sg16
I00
sg17
S'z(14, 12)'
p50
sg19
(I14
I12
tp51
sg21
(lp52
sbsbsS'1010400033'
p53
g2
(g3
g4
Ntp54
Rp55
(dp56
g8
g53
sg9
g2
(g10
g4
Ntp57
Rp58
(dp59
g14
I11
sg15
I9
sg16
I00
sg17
S'z(11, 9)'
p60
sg19
(I11
I9
tp61
sg21
(lp62
sbsbsS'1010400032'
p63
g2
(g3
g4
Ntp64
Rp65
(dp66
g8
g63
sg9
g2
(g10
g4
Ntp67
Rp68
(dp69
g14
I14
sg15
I9
sg16
I00
sg17
S'z(14, 9)'
p70
sg19
(I14
I9
tp71
sg21
(lp72
sbsbsS'1010400031'
p73
g2
(g3
g4
Ntp74
Rp75
(dp76
g8
g73
sg9
g2
(g10
g4
Ntp77
Rp78
(dp79
g14
I17
sg15
I9
sg16
I00
sg17
S'z(17, 9)'
p80
sg19
(I17
I9
tp81
sg21
(lp82
sbsbsS'1010400030'
p83
g2
(g3
g4
Ntp84
Rp85
(dp86
g8
g83
sg9
g2
(g10
g4
Ntp87
Rp88
(dp89
g14
I17
sg15
I12
sg16
I00
sg17
S'z(17, 12)'
p90
sg19
(I17
I12
tp91
sg21
(lp92
sbsbsS'1010400039'
p93
g2
(g3
g4
Ntp94
Rp95
(dp96
g8
g93
sg9
g2
(g10
g4
Ntp97
Rp98
(dp99
g14
I30
sg15
I25
sg16
I00
sg17
S'z(30, 25)'
p100
sg19
(I30
I25
tp101
sg21
(lp102
sbsbsS'1010400038'
p103
g2
(g3
g4
Ntp104
Rp105
(dp106
g8
g103
sg9
g2
(g10
g4
Ntp107
Rp108
(dp109
g14
I30
sg15
I20
sg16
I00
sg17
S'z(30, 20)'
p110
sg19
(I30
I20
tp111
sg21
(lp112
sbsbsS'1010400042'
p113
g2
(g3
g4
Ntp114
Rp115
(dp116
g8
g113
sg9
g2
(g10
g4
Ntp117
Rp118
(dp119
g14
I34
sg15
I18
sg16
I00
sg17
S'z(34, 18)'
p120
sg19
(I34
I18
tp121
sg21
(lp122
sbsbsS'1010400043'
p123
g2
(g3
g4
Ntp124
Rp125
(dp126
g8
g123
sg9
g2
(g10
g4
Ntp127
Rp128
(dp129
g14
I39
sg15
I18
sg16
I00
sg17
S'z(39, 18)'
p130
sg19
(I39
I18
tp131
sg21
(lp132
sbsbsS'1010400040'
p133
g2
(g3
g4
Ntp134
Rp135
(dp136
g8
g133
sg9
g2
(g10
g4
Ntp137
Rp138
(dp139
g14
I30
sg15
I12
sg16
I00
sg17
S'z(30, 12)'
p140
sg19
(I30
I12
tp141
sg21
(lp142
sbsbsS'1010400041'
p143
g2
(g3
g4
Ntp144
Rp145
(dp146
g8
g143
sg9
g2
(g10
g4
Ntp147
Rp148
(dp149
g14
I30
sg15
I9
sg16
I00
sg17
S'z(30, 9)'
p150
sg19
(I30
I9
tp151
sg21
(lp152
sbsbsS'1010400046'
p153
g2
(g3
g4
Ntp154
Rp155
(dp156
g8
g153
sg9
g2
(g10
g4
Ntp157
Rp158
(dp159
g14
I43
sg15
I25
sg16
I00
sg17
S'z(43, 25)'
p160
sg19
(I43
I25
tp161
sg21
(lp162
sbsbsS'1010400047'
p163
g2
(g3
g4
Ntp164
Rp165
(dp166
g8
g163
sg9
g2
(g10
g4
Ntp167
Rp168
(dp169
g14
I44
sg15
I28
sg16
I00
sg17
S'z(44, 28)'
p170
sg19
(I44
I28
tp171
sg21
(lp172
sbsbsS'1010400044'
p173
g2
(g3
g4
Ntp174
Rp175
(dp176
g8
g173
sg9
g2
(g10
g4
Ntp177
Rp178
(dp179
g14
I43
sg15
I17
sg16
I00
sg17
S'z(43, 17)'
p180
sg19
(I43
I17
tp181
sg21
(lp182
sbsbsS'1010400045'
p183
g2
(g3
g4
Ntp184
Rp185
(dp186
g8
g183
sg9
g2
(g10
g4
Ntp187
Rp188
(dp189
g14
I43
sg15
I20
sg16
I00
sg17
S'z(43, 20)'
p190
sg19
(I43
I20
tp191
sg21
(lp192
sbsbsS'1010400048'
p193
g2
(g3
g4
Ntp194
Rp195
(dp196
g8
g193
sg9
g2
(g10
g4
Ntp197
Rp198
(dp199
g14
I44
sg15
I32
sg16
I00
sg17
S'z(44, 32)'
p200
sg19
(I44
I32
tp201
sg21
(lp202
sbsbsS'1010400049'
p203
g2
(g3
g4
Ntp204
Rp205
(dp206
g8
g203
sg9
g2
(g10
g4
Ntp207
Rp208
(dp209
g14
I47
sg15
I32
sg16
I00
sg17
S'z(47, 32)'
p210
sg19
(I47
I32
tp211
sg21
(lp212
sbsbsS'1010400051'
p213
g2
(g3
g4
Ntp214
Rp215
(dp216
g8
g213
sg9
g2
(g10
g4
Ntp217
Rp218
(dp219
g14
I43
sg15
I12
sg16
I00
sg17
S'z(43, 12)'
p220
sg19
(I43
I12
tp221
sg21
(lp222
sbsbsS'1010400050'
p223
g2
(g3
g4
Ntp224
Rp225
(dp226
g8
g223
sg9
g2
(g10
g4
Ntp227
Rp228
(dp229
g14
I47
sg15
I28
sg16
I00
sg17
S'z(47, 28)'
p230
sg19
(I47
I28
tp231
sg21
(lp232
sbsbsS'1010400053'
p233
g2
(g3
g4
Ntp234
Rp235
(dp236
g8
g233
sg9
g2
(g10
g4
Ntp237
Rp238
(dp239
g14
I47
sg15
I18
sg16
I00
sg17
S'z(47, 18)'
p240
sg19
(I47
I18
tp241
sg21
(lp242
sbsbsS'1010400052'
p243
g2
(g3
g4
Ntp244
Rp245
(dp246
g8
g243
sg9
g2
(g10
g4
Ntp247
Rp248
(dp249
g14
I43
sg15
I9
sg16
I00
sg17
S'z(43, 9)'
p250
sg19
(I43
I9
tp251
sg21
(lp252
sbsbsS'1010400055'
p253
g2
(g3
g4
Ntp254
Rp255
(dp256
g8
g253
sg9
g2
(g10
g4
Ntp257
Rp258
(dp259
g14
I55
sg15
I17
sg16
I00
sg17
S'z(55, 17)'
p260
sg19
(I55
I17
tp261
sg21
(lp262
sbsbsS'1010400054'
p263
g2
(g3
g4
Ntp264
Rp265
(dp266
g8
g263
sg9
g2
(g10
g4
Ntp267
Rp268
(dp269
g14
I51
sg15
I18
sg16
I00
sg17
S'z(51, 18)'
p270
sg19
(I51
I18
tp271
sg21
(lp272
sbsbsS'1010400057'
p273
g2
(g3
g4
Ntp274
Rp275
(dp276
g8
g273
sg9
g2
(g10
g4
Ntp277
Rp278
(dp279
g14
I55
sg15
I24
sg16
I00
sg17
S'z(55, 24)'
p280
sg19
(I55
I24
tp281
sg21
(lp282
sbsbsS'1010400056'
p283
g2
(g3
g4
Ntp284
Rp285
(dp286
g8
g283
sg9
g2
(g10
g4
Ntp287
Rp288
(dp289
g14
I55
sg15
I20
sg16
I00
sg17
S'z(55, 20)'
p290
sg19
(I55
I20
tp291
sg21
(lp292
sbsbsS'1010400059'
p293
g2
(g3
g4
Ntp294
Rp295
(dp296
g8
g293
sg9
g2
(g10
g4
Ntp297
Rp298
(dp299
g14
I55
sg15
I9
sg16
I00
sg17
S'z(55, 9)'
p300
sg19
(I55
I9
tp301
sg21
(lp302
sbsbsS'1010400058'
p303
g2
(g3
g4
Ntp304
Rp305
(dp306
g8
g303
sg9
g2
(g10
g4
Ntp307
Rp308
(dp309
g14
I55
sg15
I12
sg16
I00
sg17
S'z(55, 12)'
p310
sg19
(I55
I12
tp311
sg21
(lp312
sbsbsS'1010400064'
p313
g2
(g3
g4
Ntp314
Rp315
(dp316
g8
g313
sg9
g2
(g10
g4
Ntp317
Rp318
(dp319
g14
I68
sg15
I23
sg16
I00
sg17
S'z(68, 23)'
p320
sg19
(I68
I23
tp321
sg21
(lp322
sbsbsS'1010400065'
p323
g2
(g3
g4
Ntp324
Rp325
(dp326
g8
g323
sg9
g2
(g10
g4
Ntp327
Rp328
(dp329
g14
I68
sg15
I26
sg16
I00
sg17
S'z(68, 26)'
p330
sg19
(I68
I26
tp331
sg21
(lp332
sbsbsS'1010400066'
p333
g2
(g3
g4
Ntp334
Rp335
(dp336
g8
g333
sg9
g2
(g10
g4
Ntp337
Rp338
(dp339
g14
I68
sg15
I12
sg16
I00
sg17
S'z(68, 12)'
p340
sg19
(I68
I12
tp341
sg21
(lp342
sbsbsS'1010400067'
p343
g2
(g3
g4
Ntp344
Rp345
(dp346
g8
g343
sg9
g2
(g10
g4
Ntp347
Rp348
(dp349
g14
I68
sg15
I9
sg16
I00
sg17
S'z(68, 9)'
p350
sg19
(I68
I9
tp351
sg21
(lp352
sbsbsS'1010400060'
p353
g2
(g3
g4
Ntp354
Rp355
(dp356
g8
g353
sg9
g2
(g10
g4
Ntp357
Rp358
(dp359
g14
I59
sg15
I18
sg16
I00
sg17
S'z(59, 18)'
p360
sg19
(I59
I18
tp361
sg21
(lp362
sbsbsS'1010400061'
p363
g2
(g3
g4
Ntp364
Rp365
(dp366
g8
g363
sg9
g2
(g10
g4
Ntp367
Rp368
(dp369
g14
I64
sg15
I18
sg16
I00
sg17
S'z(64, 18)'
p370
sg19
(I64
I18
tp371
sg21
(lp372
sbsbsS'1010400062'
p373
g2
(g3
g4
Ntp374
Rp375
(dp376
g8
g373
sg9
g2
(g10
g4
Ntp377
Rp378
(dp379
g14
I68
sg15
I17
sg16
I00
sg17
S'z(68, 17)'
p380
sg19
(I68
I17
tp381
sg21
(lp382
sbsbsS'1010400063'
p383
g2
(g3
g4
Ntp384
Rp385
(dp386
g8
g383
sg9
g2
(g10
g4
Ntp387
Rp388
(dp389
g14
I68
sg15
I20
sg16
I00
sg17
S'z(68, 20)'
p390
sg19
(I68
I20
tp391
sg21
(lp392
sbsbsS'1010400068'
p393
g2
(g3
g4
Ntp394
Rp395
(dp396
g8
g393
sg9
g2
(g10
g4
Ntp397
Rp398
(dp399
g14
I72
sg15
I18
sg16
I00
sg17
S'z(72, 18)'
p400
sg19
(I72
I18
tp401
sg21
(lp402
sbsbsS'1010400069'
p403
g2
(g3
g4
Ntp404
Rp405
(dp406
g8
g403
sg9
g2
(g10
g4
Ntp407
Rp408
(dp409
g14
I77
sg15
I18
sg16
I00
sg17
S'z(77, 18)'
p410
sg19
(I77
I18
tp411
sg21
(lp412
sbsbsS'1010400086'
p413
g2
(g3
g4
Ntp414
Rp415
(dp416
g8
g413
sg9
g2
(g10
g4
Ntp417
Rp418
(dp419
g14
I11
sg15
I46
sg16
I00
sg17
S'z(11, 46)'
p420
sg19
(I11
I46
tp421
sg21
(lp422
sbsbsS'1010400087'
p423
g2
(g3
g4
Ntp424
Rp425
(dp426
g8
g423
sg9
g2
(g10
g4
Ntp427
Rp428
(dp429
g14
I7
sg15
I37
sg16
I00
sg17
S'z(7, 37)'
p430
sg19
(I7
I37
tp431
sg21
(lp432
sbsbsS'1010400084'
p433
g2
(g3
g4
Ntp434
Rp435
(dp436
g8
g433
sg9
g2
(g10
g4
Ntp437
Rp438
(dp439
g14
I28
sg15
I84
sg16
I00
sg17
S'z(28, 84)'
p440
sg19
(I28
I84
tp441
sg21
(lp442
sbsbsS'1010400085'
p443
g2
(g3
g4
Ntp444
Rp445
(dp446
g8
g443
sg9
g2
(g10
g4
Ntp447
Rp448
(dp449
g14
I13
sg15
I54
sg16
I00
sg17
S'z(13, 54)'
p450
sg19
(I13
I54
tp451
sg21
(lp452
sbsbsS'1010400082'
p453
g2
(g3
g4
Ntp454
Rp455
(dp456
g8
g453
sg9
g2
(g10
g4
Ntp457
Rp458
(dp459
g14
I24
sg15
I67
sg16
I00
sg17
S'z(24, 67)'
p460
sg19
(I24
I67
tp461
sg21
(lp462
sbsbsS'1010400083'
p463
g2
(g3
g4
Ntp464
Rp465
(dp466
g8
g463
sg9
g2
(g10
g4
Ntp467
Rp468
(dp469
g14
I24
sg15
I79
sg16
I00
sg17
S'z(24, 79)'
p470
sg19
(I24
I79
tp471
sg21
(lp472
sbsbsS'1010400080'
p473
g2
(g3
g4
Ntp474
Rp475
(dp476
g8
g473
sg9
g2
(g10
g4
Ntp477
Rp478
(dp479
g14
I41
sg15
I64
sg16
I00
sg17
S'z(41, 64)'
p480
sg19
(I41
I64
tp481
sg21
(lp482
sbsbsS'1010400081'
p483
g2
(g3
g4
Ntp484
Rp485
(dp486
g8
g483
sg9
g2
(g10
g4
Ntp487
Rp488
(dp489
g14
I32
sg15
I79
sg16
I00
sg17
S'z(32, 79)'
p490
sg19
(I32
I79
tp491
sg21
(lp492
sbsbsS'1010400088'
p493
g2
(g3
g4
Ntp494
Rp495
(dp496
g8
g493
sg9
g2
(g10
g4
Ntp497
Rp498
(dp499
g14
I15
sg15
I36
sg16
I00
sg17
S'z(15, 36)'
p500
sg19
(I15
I36
tp501
sg21
(lp502
sbsbsS'1010400089'
p503
g2
(g3
g4
Ntp504
Rp505
(dp506
g8
g503
sg9
g2
(g10
g4
Ntp507
Rp508
(dp509
g14
I5
sg15
I31
sg16
I00
sg17
S'z(5, 31)'
p510
sg19
(I5
I31
tp511
sg21
(lp512
sbsbsS'1010400079'
p513
g2
(g3
g4
Ntp514
Rp515
(dp516
g8
g513
sg9
g2
(g10
g4
Ntp517
Rp518
(dp519
g14
I37
sg15
I54
sg16
I00
sg17
S'z(37, 54)'
p520
sg19
(I37
I54
tp521
sg21
(lp522
sbsbsS'1010400078'
p523
g2
(g3
g4
Ntp524
Rp525
(dp526
g8
g523
sg9
g2
(g10
g4
Ntp527
Rp528
(dp529
g14
I50
sg15
I67
sg16
I00
sg17
S'z(50, 67)'
p530
sg19
(I50
I67
tp531
sg21
(lp532
sbsbsS'1010400073'
p533
g2
(g3
g4
Ntp534
Rp535
(dp536
g8
g533
sg9
g2
(g10
g4
Ntp537
Rp538
(dp539
g14
I81
sg15
I26
sg16
I00
sg17
S'z(81, 26)'
p540
sg19
(I81
I26
tp541
sg21
(lp542
sbsbsS'1010400072'
p543
g2
(g3
g4
Ntp544
Rp545
(dp546
g8
g543
sg9
g2
(g10
g4
Ntp547
Rp548
(dp549
g14
I81
sg15
I23
sg16
I00
sg17
S'z(81, 23)'
p550
sg19
(I81
I23
tp551
sg21
(lp552
sbsbsS'1010400071'
p553
g2
(g3
g4
Ntp554
Rp555
(dp556
g8
g553
sg9
g2
(g10
g4
Ntp557
Rp558
(dp559
g14
I84
sg15
I20
sg16
I00
sg17
S'z(84, 20)'
p560
sg19
(I84
I20
tp561
sg21
(lp562
sbsbsS'1010400070'
p563
g2
(g3
g4
Ntp564
Rp565
(dp566
g8
g563
sg9
g2
(g10
g4
Ntp567
Rp568
(dp569
g14
I81
sg15
I17
sg16
I00
sg17
S'z(81, 17)'
p570
sg19
(I81
I17
tp571
sg21
(lp572
sbsbsS'1010400077'
p573
g2
(g3
g4
Ntp574
Rp575
(dp576
g8
g573
sg9
g2
(g10
g4
Ntp577
Rp578
(dp579
g14
I50
sg15
I59
sg16
I00
sg17
S'z(50, 59)'
p580
sg19
(I50
I59
tp581
sg21
(lp582
sbsbsS'1010400076'
p583
g2
(g3
g4
Ntp584
Rp585
(dp586
g8
g583
sg9
g2
(g10
g4
Ntp587
Rp588
(dp589
g14
I86
sg15
I9
sg16
I00
sg17
S'z(86, 9)'
p590
sg19
(I86
I9
tp591
sg21
(lp592
sbsbsS'1010400075'
p593
g2
(g3
g4
Ntp594
Rp595
(dp596
g8
g593
sg9
g2
(g10
g4
Ntp597
Rp598
(dp599
g14
I81
sg15
I9
sg16
I00
sg17
S'z(81, 9)'
p600
sg19
(I81
I9
tp601
sg21
(lp602
sbsbsS'1010400074'
p603
g2
(g3
g4
Ntp604
Rp605
(dp606
g8
g603
sg9
g2
(g10
g4
Ntp607
Rp608
(dp609
g14
I81
sg15
I12
sg16
I00
sg17
S'z(81, 12)'
p610
sg19
(I81
I12
tp611
sg21
(lp612
sbsbsS'1010400008'
p613
g2
(g3
g4
Ntp614
Rp615
(dp616
g8
g613
sg9
g2
(g10
g4
Ntp617
Rp618
(dp619
g14
I39
sg15
I48
sg16
I00
sg17
S'z(39, 48)'
p620
sg19
(I39
I48
tp621
sg21
(lp622
sbsbsS'1010400009'
p623
g2
(g3
g4
Ntp624
Rp625
(dp626
g8
g623
sg9
g2
(g10
g4
Ntp627
Rp628
(dp629
g14
I35
sg15
I43
sg16
I00
sg17
S'z(35, 43)'
p630
sg19
(I35
I43
tp631
sg21
(lp632
sbsbsS'1010400006'
p633
g2
(g3
g4
Ntp634
Rp635
(dp636
g8
g633
sg9
g2
(g10
g4
Ntp637
Rp638
(dp639
g14
I39
sg15
I41
sg16
I00
sg17
S'z(39, 41)'
p640
sg19
(I39
I41
tp641
sg21
(lp642
sbsbsS'1010400007'
p643
g2
(g3
g4
Ntp644
Rp645
(dp646
g8
g643
sg9
g2
(g10
g4
Ntp647
Rp648
(dp649
g14
I39
sg15
I44
sg16
I00
sg17
S'z(39, 44)'
p650
sg19
(I39
I44
tp651
sg21
(lp652
sbsbsS'1010400004'
p653
g2
(g3
g4
Ntp654
Rp655
(dp656
g8
g653
sg9
g2
(g10
g4
Ntp657
Rp658
(dp659
g14
I44
sg15
I37
sg16
I00
sg17
S'z(44, 37)'
p660
sg19
(I44
I37
tp661
sg21
(lp662
sbsbsS'1010400005'
p663
g2
(g3
g4
Ntp664
Rp665
(dp666
g8
g663
sg9
g2
(g10
g4
Ntp667
Rp668
(dp669
g14
I39
sg15
I37
sg16
I00
sg17
S'z(39, 37)'
p670
sg19
(I39
I37
tp671
sg21
(lp672
sbsbsS'1010400002'
p673
g2
(g3
g4
Ntp674
Rp675
(dp676
g8
g673
sg9
g2
(g10
g4
Ntp677
Rp678
(dp679
g14
I44
sg15
I44
sg16
I00
sg17
S'z(44, 44)'
p680
sg19
(I44
I44
tp681
sg21
(lp682
sbsbsS'1010400003'
p683
g2
(g3
g4
Ntp684
Rp685
(dp686
g8
g683
sg9
g2
(g10
g4
Ntp687
Rp688
(dp689
g14
I44
sg15
I41
sg16
I00
sg17
S'z(44, 41)'
p690
sg19
(I44
I41
tp691
sg21
(lp692
sbsbsS'1010400001'
p693
g2
(g3
g4
Ntp694
Rp695
(dp696
g8
g693
sg9
g2
(g10
g4
Ntp697
Rp698
(dp699
g14
I44
sg15
I48
sg16
I00
sg17
S'z(44, 48)'
p700
sg19
(I44
I48
tp701
sg21
(lp702
sbsbsS'1010400019'
p703
g2
(g3
g4
Ntp704
Rp705
(dp706
g8
g703
sg9
g2
(g10
g4
Ntp707
Rp708
(dp709
g14
I20
sg15
I39
sg16
I00
sg17
S'z(20, 39)'
p710
sg19
(I20
I39
tp711
sg21
(lp712
sbsbsS'1010400018'
p713
g2
(g3
g4
Ntp714
Rp715
(dp716
g8
g713
sg9
g2
(g10
g4
Ntp717
Rp718
(dp719
g14
I20
sg15
I60
sg16
I00
sg17
S'z(20, 60)'
p720
sg19
(I20
I60
tp721
sg21
(lp722
sbsbsS'1010400015'
p723
g2
(g3
g4
Ntp724
Rp725
(dp726
g8
g723
sg9
g2
(g10
g4
Ntp727
Rp728
(dp729
g14
I20
sg15
I47
sg16
I00
sg17
S'z(20, 47)'
p730
sg19
(I20
I47
tp731
sg21
(lp732
sbsbsS'1010400014'
p733
g2
(g3
g4
Ntp734
Rp735
(dp736
g8
g733
sg9
g2
(g10
g4
Ntp737
Rp738
(dp739
g14
I20
sg15
I43
sg16
I00
sg17
S'z(20, 43)'
p740
sg19
(I20
I43
tp741
sg21
(lp742
sbsbsS'1010400017'
p743
g2
(g3
g4
Ntp744
Rp745
(dp746
g8
g743
sg9
g2
(g10
g4
Ntp747
Rp748
(dp749
g14
I20
sg15
I55
sg16
I00
sg17
S'z(20, 55)'
p750
sg19
(I20
I55
tp751
sg21
(lp752
sbsbsS'1010400016'
p753
g2
(g3
g4
Ntp754
Rp755
(dp756
g8
g753
sg9
g2
(g10
g4
Ntp757
Rp758
(dp759
g14
I20
sg15
I51
sg16
I00
sg17
S'z(20, 51)'
p760
sg19
(I20
I51
tp761
sg21
(lp762
sbsbsS'1010400011'
p763
g2
(g3
g4
Ntp764
Rp765
(dp766
g8
g763
sg9
g2
(g10
g4
Ntp767
Rp768
(dp769
g14
I32
sg15
I37
sg16
I00
sg17
S'z(32, 37)'
p770
sg19
(I32
I37
tp771
sg21
(lp772
sbsbsS'1010400010'
p773
g2
(g3
g4
Ntp774
Rp775
(dp776
g8
g773
sg9
g2
(g10
g4
Ntp777
Rp778
(dp779
g14
I32
sg15
I43
sg16
I00
sg17
S'z(32, 43)'
p780
sg19
(I32
I43
tp781
sg21
(lp782
sbsbsS'1010400013'
p783
g2
(g3
g4
Ntp784
Rp785
(dp786
g8
g783
sg9
g2
(g10
g4
Ntp787
Rp788
(dp789
g14
I24
sg15
I43
sg16
I00
sg17
S'z(24, 43)'
p790
sg19
(I24
I43
tp791
sg21
(lp792
sbsbsS'1010400012'
p793
g2
(g3
g4
Ntp794
Rp795
(dp796
g8
g793
sg9
g2
(g10
g4
Ntp797
Rp798
(dp799
g14
I28
sg15
I43
sg16
I00
sg17
S'z(28, 43)'
p800
sg19
(I28
I43
tp801
sg21
(lp802
sbsbsS'1010400020'
p803
g2
(g3
g4
Ntp804
Rp805
(dp806
g8
g803
sg9
g2
(g10
g4
Ntp807
Rp808
(dp809
g14
I20
sg15
I35
sg16
I00
sg17
S'z(20, 35)'
p810
sg19
(I20
I35
tp811
sg21
(lp812
sbsbsS'1010400021'
p813
g2
(g3
g4
Ntp814
Rp815
(dp816
g8
g813
sg9
g2
(g10
g4
Ntp817
Rp818
(dp819
g14
I20
sg15
I31
sg16
I00
sg17
S'z(20, 31)'
p820
sg19
(I20
I31
tp821
sg21
(lp822
sbsbsS'1010400022'
p823
g2
(g3
g4
Ntp824
Rp825
(dp826
g8
g823
sg9
g2
(g10
g4
Ntp827
Rp828
(dp829
g14
I16
sg15
I31
sg16
I00
sg17
S'z(16, 31)'
p830
sg19
(I16
I31
tp831
sg21
(lp832
sbsbsS'1010400023'
p833
g2
(g3
g4
Ntp834
Rp835
(dp836
g8
g833
sg9
g2
(g10
g4
Ntp837
Rp838
(dp839
g14
I12
sg15
I31
sg16
I00
sg17
S'z(12, 31)'
p840
sg19
(I12
I31
tp841
sg21
(lp842
sbsbsS'1010400024'
p843
g2
(g3
g4
Ntp844
Rp845
(dp846
g8
g843
sg9
g2
(g10
g4
Ntp847
Rp848
(dp849
g14
I11
sg15
I33
sg16
I00
sg17
S'z(11, 33)'
p850
sg19
(I11
I33
tp851
sg21
(lp852
sbsbsS'1010400025'
p853
g2
(g3
g4
Ntp854
Rp855
(dp856
g8
g853
sg9
g2
(g10
g4
Ntp857
Rp858
(dp859
g14
I20
sg15
I28
sg16
I00
sg17
S'z(20, 28)'
p860
sg19
(I20
I28
tp861
sg21
(lp862
sbsbsS'1010400026'
p863
g2
(g3
g4
Ntp864
Rp865
(dp866
g8
g863
sg9
g2
(g10
g4
Ntp867
Rp868
(dp869
g14
I20
sg15
I22
sg16
I00
sg17
S'z(20, 22)'
p870
sg19
(I20
I22
tp871
sg21
(lp872
sbsbsS'1010400027'
p873
g2
(g3
g4
Ntp874
Rp875
(dp876
g8
g873
sg9
g2
(g10
g4
Ntp877
Rp878
(dp879
g14
I21
sg15
I18
sg16
I00
sg17
S'z(21, 18)'
p880
sg19
(I21
I18
tp881
sg21
(lp882
sbsbsS'1010400028'
p883
g2
(g3
g4
Ntp884
Rp885
(dp886
g8
g883
sg9
g2
(g10
g4
Ntp887
Rp888
(dp889
g14
I18
sg15
I18
sg16
I00
sg17
S'z(18, 18)'
p890
sg19
(I18
I18
tp891
sg21
(lp892
sbsbsS'1010400029'
p893
g2
(g3
g4
Ntp894
Rp895
(dp896
g8
g893
sg9
g2
(g10
g4
Ntp897
Rp898
(dp899
g14
I17
sg15
I21
sg16
I00
sg17
S'z(17, 21)'
p900
sg19
(I17
I21
tp901
sg21
(lp902
sbsbs.