(dp0
S'z(13, 2)'
p1
ccopy_reg
_reconstructor
p2
(c_class
Zone
p3
c__builtin__
object
p4
Ntp5
Rp6
(dp7
S'i'
p8
I13
sS'zid'
p9
g1
sS'j'
p10
I2
sS'coords'
p11
(I13
I2
tp12
sS'bs'
p13
(lp14
sbsS'z(14, 11)'
p15
g2
(g3
g4
Ntp16
Rp17
(dp18
g8
I14
sg9
g15
sg10
I11
sg11
(I14
I11
tp19
sg13
(lp20
sbsS'z(18, 10)'
p21
g2
(g3
g4
Ntp22
Rp23
(dp24
g8
I18
sg9
g21
sg10
I10
sg11
(I18
I10
tp25
sg13
(lp26
sbsS'z(8, 5)'
p27
g2
(g3
g4
Ntp28
Rp29
(dp30
g8
I8
sg9
g27
sg10
I5
sg11
(I8
I5
tp31
sg13
(lp32
sbsS'z(18, 8)'
p33
g2
(g3
g4
Ntp34
Rp35
(dp36
g8
I18
sg9
g33
sg10
I8
sg11
(I18
I8
tp37
sg13
(lp38
sbsS'z(0, 10)'
p39
g2
(g3
g4
Ntp40
Rp41
(dp42
g8
I0
sg9
g39
sg10
I10
sg11
(I0
I10
tp43
sg13
(lp44
sbsS'z(17, 14)'
p45
g2
(g3
g4
Ntp46
Rp47
(dp48
g8
I17
sg9
g45
sg10
I14
sg11
(I17
I14
tp49
sg13
(lp50
sbsS'z(15, 17)'
p51
g2
(g3
g4
Ntp52
Rp53
(dp54
g8
I15
sg9
g51
sg10
I17
sg11
(I15
I17
tp55
sg13
(lp56
sbsS'z(2, 0)'
p57
g2
(g3
g4
Ntp58
Rp59
(dp60
g8
I2
sg9
g57
sg10
I0
sg11
(I2
I0
tp61
sg13
(lp62
sbsS'z(4, 6)'
p63
g2
(g3
g4
Ntp64
Rp65
(dp66
g8
I4
sg9
g63
sg10
I6
sg11
(I4
I6
tp67
sg13
(lp68
sbsS'z(21, 5)'
p69
g2
(g3
g4
Ntp70
Rp71
(dp72
g8
I21
sg9
g69
sg10
I5
sg11
(I21
I5
tp73
sg13
(lp74
sbsS'z(0, 19)'
p75
g2
(g3
g4
Ntp76
Rp77
(dp78
g8
I0
sg9
g75
sg10
I19
sg11
(I0
I19
tp79
sg13
(lp80
sbsS'z(19, 2)'
p81
g2
(g3
g4
Ntp82
Rp83
(dp84
g8
I19
sg9
g81
sg10
I2
sg11
(I19
I2
tp85
sg13
(lp86
sbsS'z(6, 6)'
p87
g2
(g3
g4
Ntp88
Rp89
(dp90
g8
I6
sg9
g87
sg10
I6
sg11
(I6
I6
tp91
sg13
(lp92
sbsS'z(14, 6)'
p93
g2
(g3
g4
Ntp94
Rp95
(dp96
g8
I14
sg9
g93
sg10
I6
sg11
(I14
I6
tp97
sg13
(lp98
sbsS'z(19, 16)'
p99
g2
(g3
g4
Ntp100
Rp101
(dp102
g8
I19
sg9
g99
sg10
I16
sg11
(I19
I16
tp103
sg13
(lp104
sbsS'z(17, 4)'
p105
g2
(g3
g4
Ntp106
Rp107
(dp108
g8
I17
sg9
g105
sg10
I4
sg11
(I17
I4
tp109
sg13
(lp110
sbsS'z(13, 17)'
p111
g2
(g3
g4
Ntp112
Rp113
(dp114
g8
I13
sg9
g111
sg10
I17
sg11
(I13
I17
tp115
sg13
(lp116
sbsS'z(5, 6)'
p117
g2
(g3
g4
Ntp118
Rp119
(dp120
g8
I5
sg9
g117
sg10
I6
sg11
(I5
I6
tp121
sg13
(lp122
sbsS'z(13, 19)'
p123
g2
(g3
g4
Ntp124
Rp125
(dp126
g8
I13
sg9
g123
sg10
I19
sg11
(I13
I19
tp127
sg13
(lp128
sbsS'z(13, 20)'
p129
g2
(g3
g4
Ntp130
Rp131
(dp132
g8
I13
sg9
g129
sg10
I20
sg11
(I13
I20
tp133
sg13
(lp134
sbsS'z(0, 9)'
p135
g2
(g3
g4
Ntp136
Rp137
(dp138
g8
I0
sg9
g135
sg10
I9
sg11
(I0
I9
tp139
sg13
(lp140
sbsS'z(12, 1)'
p141
g2
(g3
g4
Ntp142
Rp143
(dp144
g8
I12
sg9
g141
sg10
I1
sg11
(I12
I1
tp145
sg13
(lp146
sbsS'z(14, 16)'
p147
g2
(g3
g4
Ntp148
Rp149
(dp150
g8
I14
sg9
g147
sg10
I16
sg11
(I14
I16
tp151
sg13
(lp152
sbsS'z(2, 9)'
p153
g2
(g3
g4
Ntp154
Rp155
(dp156
g8
I2
sg9
g153
sg10
I9
sg11
(I2
I9
tp157
sg13
(lp158
sbsS'z(3, 13)'
p159
g2
(g3
g4
Ntp160
Rp161
(dp162
g8
I3
sg9
g159
sg10
I13
sg11
(I3
I13
tp163
sg13
(lp164
sbsS'z(12, 6)'
p165
g2
(g3
g4
Ntp166
Rp167
(dp168
g8
I12
sg9
g165
sg10
I6
sg11
(I12
I6
tp169
sg13
(lp170
sbsS'z(14, 20)'
p171
g2
(g3
g4
Ntp172
Rp173
(dp174
g8
I14
sg9
g171
sg10
I20
sg11
(I14
I20
tp175
sg13
(lp176
sbsS'z(8, 2)'
p177
g2
(g3
g4
Ntp178
Rp179
(dp180
g8
I8
sg9
g177
sg10
I2
sg11
(I8
I2
tp181
sg13
(lp182
sbsS'z(10, 3)'
p183
g2
(g3
g4
Ntp184
Rp185
(dp186
g8
I10
sg9
g183
sg10
I3
sg11
(I10
I3
tp187
sg13
(lp188
sbsS'z(5, 13)'
p189
g2
(g3
g4
Ntp190
Rp191
(dp192
g8
I5
sg9
g189
sg10
I13
sg11
(I5
I13
tp193
sg13
(lp194
sbsS'z(15, 15)'
p195
g2
(g3
g4
Ntp196
Rp197
(dp198
g8
I15
sg9
g195
sg10
I15
sg11
(I15
I15
tp199
sg13
(lp200
sbsS'z(2, 18)'
p201
g2
(g3
g4
Ntp202
Rp203
(dp204
g8
I2
sg9
g201
sg10
I18
sg11
(I2
I18
tp205
sg13
(lp206
sbsS'z(4, 19)'
p207
g2
(g3
g4
Ntp208
Rp209
(dp210
g8
I4
sg9
g207
sg10
I19
sg11
(I4
I19
tp211
sg13
(lp212
sbsS'z(9, 11)'
p213
g2
(g3
g4
Ntp214
Rp215
(dp216
g8
I9
sg9
g213
sg10
I11
sg11
(I9
I11
tp217
sg13
(lp218
sbsS'z(4, 16)'
p219
g2
(g3
g4
Ntp220
Rp221
(dp222
g8
I4
sg9
g219
sg10
I16
sg11
(I4
I16
tp223
sg13
(lp224
sbsS'z(18, 6)'
p225
g2
(g3
g4
Ntp226
Rp227
(dp228
g8
I18
sg9
g225
sg10
I6
sg11
(I18
I6
tp229
sg13
(lp230
sbsS'z(8, 15)'
p231
g2
(g3
g4
Ntp232
Rp233
(dp234
g8
I8
sg9
g231
sg10
I15
sg11
(I8
I15
tp235
sg13
(lp236
sbsS'z(16, 4)'
p237
g2
(g3
g4
Ntp238
Rp239
(dp240
g8
I16
sg9
g237
sg10
I4
sg11
(I16
I4
tp241
sg13
(lp242
sbsS'z(3, 1)'
p243
g2
(g3
g4
Ntp244
Rp245
(dp246
g8
I3
sg9
g243
sg10
I1
sg11
(I3
I1
tp247
sg13
(lp248
sbsS'z(10, 17)'
p249
g2
(g3
g4
Ntp250
Rp251
(dp252
g8
I10
sg9
g249
sg10
I17
sg11
(I10
I17
tp253
sg13
(lp254
sbsS'z(10, 8)'
p255
g2
(g3
g4
Ntp256
Rp257
(dp258
g8
I10
sg9
g255
sg10
I8
sg11
(I10
I8
tp259
sg13
(lp260
sbsS'z(5, 1)'
p261
g2
(g3
g4
Ntp262
Rp263
(dp264
g8
I5
sg9
g261
sg10
I1
sg11
(I5
I1
tp265
sg13
(lp266
sbsS'z(11, 12)'
p267
g2
(g3
g4
Ntp268
Rp269
(dp270
g8
I11
sg9
g267
sg10
I12
sg11
(I11
I12
tp271
sg13
(lp272
sbsS'z(12, 18)'
p273
g2
(g3
g4
Ntp274
Rp275
(dp276
g8
I12
sg9
g273
sg10
I18
sg11
(I12
I18
tp277
sg13
(lp278
sbsS'z(16, 17)'
p279
g2
(g3
g4
Ntp280
Rp281
(dp282
g8
I16
sg9
g279
sg10
I17
sg11
(I16
I17
tp283
sg13
(lp284
sbsS'z(20, 9)'
p285
g2
(g3
g4
Ntp286
Rp287
(dp288
g8
I20
sg9
g285
sg10
I9
sg11
(I20
I9
tp289
sg13
(lp290
sbsS'z(22, 0)'
p291
g2
(g3
g4
Ntp292
Rp293
(dp294
g8
I22
sg9
g291
sg10
I0
sg11
(I22
I0
tp295
sg13
(lp296
sbsS'z(21, 14)'
p297
g2
(g3
g4
Ntp298
Rp299
(dp300
g8
I21
sg9
g297
sg10
I14
sg11
(I21
I14
tp301
sg13
(lp302
sbsS'z(1, 3)'
p303
g2
(g3
g4
Ntp304
Rp305
(dp306
g8
I1
sg9
g303
sg10
I3
sg11
(I1
I3
tp307
sg13
(lp308
sbsS'z(20, 20)'
p309
g2
(g3
g4
Ntp310
Rp311
(dp312
g8
I20
sg9
g309
sg10
I20
sg11
(I20
I20
tp313
sg13
(lp314
sbsS'z(15, 0)'
p315
g2
(g3
g4
Ntp316
Rp317
(dp318
g8
I15
sg9
g315
sg10
I0
sg11
(I15
I0
tp319
sg13
(lp320
sbsS'z(12, 17)'
p321
g2
(g3
g4
Ntp322
Rp323
(dp324
g8
I12
sg9
g321
sg10
I17
sg11
(I12
I17
tp325
sg13
(lp326
sbsS'z(22, 18)'
p327
g2
(g3
g4
Ntp328
Rp329
(dp330
g8
I22
sg9
g327
sg10
I18
sg11
(I22
I18
tp331
sg13
(lp332
sbsS'z(20, 0)'
p333
g2
(g3
g4
Ntp334
Rp335
(dp336
g8
I20
sg9
g333
sg10
I0
sg11
(I20
I0
tp337
sg13
(lp338
sbsS'z(9, 6)'
p339
g2
(g3
g4
Ntp340
Rp341
(dp342
g8
I9
sg9
g339
sg10
I6
sg11
(I9
I6
tp343
sg13
(lp344
sbsS'z(15, 7)'
p345
g2
(g3
g4
Ntp346
Rp347
(dp348
g8
I15
sg9
g345
sg10
I7
sg11
(I15
I7
tp349
sg13
(lp350
sbsS'z(6, 16)'
p351
g2
(g3
g4
Ntp352
Rp353
(dp354
g8
I6
sg9
g351
sg10
I16
sg11
(I6
I16
tp355
sg13
(lp356
sbsS'z(7, 18)'
p357
g2
(g3
g4
Ntp358
Rp359
(dp360
g8
I7
sg9
g357
sg10
I18
sg11
(I7
I18
tp361
sg13
(lp362
sbsS'z(7, 2)'
p363
g2
(g3
g4
Ntp364
Rp365
(dp366
g8
I7
sg9
g363
sg10
I2
sg11
(I7
I2
tp367
sg13
(lp368
sbsS'z(11, 9)'
p369
g2
(g3
g4
Ntp370
Rp371
(dp372
g8
I11
sg9
g369
sg10
I9
sg11
(I11
I9
tp373
sg13
(lp374
sbsS'z(20, 12)'
p375
g2
(g3
g4
Ntp376
Rp377
(dp378
g8
I20
sg9
g375
sg10
I12
sg11
(I20
I12
tp379
sg13
(lp380
sbsS'z(8, 20)'
p381
g2
(g3
g4
Ntp382
Rp383
(dp384
g8
I8
sg9
g381
sg10
I20
sg11
(I8
I20
tp385
sg13
(lp386
sbsS'z(15, 9)'
p387
g2
(g3
g4
Ntp388
Rp389
(dp390
g8
I15
sg9
g387
sg10
I9
sg11
(I15
I9
tp391
sg13
(lp392
sbsS'z(17, 0)'
p393
g2
(g3
g4
Ntp394
Rp395
(dp396
g8
I17
sg9
g393
sg10
I0
sg11
(I17
I0
tp397
sg13
(lp398
sbsS'z(13, 6)'
p399
g2
(g3
g4
Ntp400
Rp401
(dp402
g8
I13
sg9
g399
sg10
I6
sg11
(I13
I6
tp403
sg13
(lp404
sbsS'z(18, 14)'
p405
g2
(g3
g4
Ntp406
Rp407
(dp408
g8
I18
sg9
g405
sg10
I14
sg11
(I18
I14
tp409
sg13
(lp410
sbsS'z(7, 19)'
p411
g2
(g3
g4
Ntp412
Rp413
(dp414
g8
I7
sg9
g411
sg10
I19
sg11
(I7
I19
tp415
sg13
(lp416
sbsS'z(1, 11)'
p417
g2
(g3
g4
Ntp418
Rp419
(dp420
g8
I1
sg9
g417
sg10
I11
sg11
(I1
I11
tp421
sg13
(lp422
sbsS'z(6, 3)'
p423
g2
(g3
g4
Ntp424
Rp425
(dp426
g8
I6
sg9
g423
sg10
I3
sg11
(I6
I3
tp427
sg13
(lp428
sbsS'z(0, 14)'
p429
g2
(g3
g4
Ntp430
Rp431
(dp432
g8
I0
sg9
g429
sg10
I14
sg11
(I0
I14
tp433
sg13
(lp434
sbsS'z(8, 9)'
p435
g2
(g3
g4
Ntp436
Rp437
(dp438
g8
I8
sg9
g435
sg10
I9
sg11
(I8
I9
tp439
sg13
(lp440
sbsS'z(22, 11)'
p441
g2
(g3
g4
Ntp442
Rp443
(dp444
g8
I22
sg9
g441
sg10
I11
sg11
(I22
I11
tp445
sg13
(lp446
sbsS'z(2, 16)'
p447
g2
(g3
g4
Ntp448
Rp449
(dp450
g8
I2
sg9
g447
sg10
I16
sg11
(I2
I16
tp451
sg13
(lp452
sbsS'z(11, 2)'
p453
g2
(g3
g4
Ntp454
Rp455
(dp456
g8
I11
sg9
g453
sg10
I2
sg11
(I11
I2
tp457
sg13
(lp458
sbsS'z(17, 20)'
p459
g2
(g3
g4
Ntp460
Rp461
(dp462
g8
I17
sg9
g459
sg10
I20
sg11
(I17
I20
tp463
sg13
(lp464
sbsS'z(16, 16)'
p465
g2
(g3
g4
Ntp466
Rp467
(dp468
g8
I16
sg9
g465
sg10
I16
sg11
(I16
I16
tp469
sg13
(lp470
sbsS'z(7, 9)'
p471
g2
(g3
g4
Ntp472
Rp473
(dp474
g8
I7
sg9
g471
sg10
I9
sg11
(I7
I9
tp475
sg13
(lp476
sbsS'z(7, 10)'
p477
g2
(g3
g4
Ntp478
Rp479
(dp480
g8
I7
sg9
g477
sg10
I10
sg11
(I7
I10
tp481
sg13
(lp482
sbsS'z(0, 0)'
p483
g2
(g3
g4
Ntp484
Rp485
(dp486
g8
I0
sg9
g483
sg10
I0
sg11
(I0
I0
tp487
sg13
(lp488
sbsS'z(11, 19)'
p489
g2
(g3
g4
Ntp490
Rp491
(dp492
g8
I11
sg9
g489
sg10
I19
sg11
(I11
I19
tp493
sg13
(lp494
sbsS'z(21, 1)'
p495
g2
(g3
g4
Ntp496
Rp497
(dp498
g8
I21
sg9
g495
sg10
I1
sg11
(I21
I1
tp499
sg13
(lp500
sbsS'z(17, 19)'
p501
g2
(g3
g4
Ntp502
Rp503
(dp504
g8
I17
sg9
g501
sg10
I19
sg11
(I17
I19
tp505
sg13
(lp506
sbsS'z(22, 9)'
p507
g2
(g3
g4
Ntp508
Rp509
(dp510
g8
I22
sg9
g507
sg10
I9
sg11
(I22
I9
tp511
sg13
(lp512
sbsS'z(4, 2)'
p513
g2
(g3
g4
Ntp514
Rp515
(dp516
g8
I4
sg9
g513
sg10
I2
sg11
(I4
I2
tp517
sg13
(lp518
sbsS'z(9, 2)'
p519
g2
(g3
g4
Ntp520
Rp521
(dp522
g8
I9
sg9
g519
sg10
I2
sg11
(I9
I2
tp523
sg13
(lp524
sbsS'z(19, 12)'
p525
g2
(g3
g4
Ntp526
Rp527
(dp528
g8
I19
sg9
g525
sg10
I12
sg11
(I19
I12
tp529
sg13
(lp530
sbsS'z(12, 2)'
p531
g2
(g3
g4
Ntp532
Rp533
(dp534
g8
I12
sg9
g531
sg10
I2
sg11
(I12
I2
tp535
sg13
(lp536
sbsS'z(2, 5)'
p537
g2
(g3
g4
Ntp538
Rp539
(dp540
g8
I2
sg9
g537
sg10
I5
sg11
(I2
I5
tp541
sg13
(lp542
sbsS'z(19, 8)'
p543
g2
(g3
g4
Ntp544
Rp545
(dp546
g8
I19
sg9
g543
sg10
I8
sg11
(I19
I8
tp547
sg13
(lp548
sbsS'z(19, 7)'
p549
g2
(g3
g4
Ntp550
Rp551
(dp552
g8
I19
sg9
g549
sg10
I7
sg11
(I19
I7
tp553
sg13
(lp554
sbsS'z(16, 19)'
p555
g2
(g3
g4
Ntp556
Rp557
(dp558
g8
I16
sg9
g555
sg10
I19
sg11
(I16
I19
tp559
sg13
(lp560
sbsS'z(14, 1)'
p561
g2
(g3
g4
Ntp562
Rp563
(dp564
g8
I14
sg9
g561
sg10
I1
sg11
(I14
I1
tp565
sg13
(lp566
sbsS'z(9, 5)'
p567
g2
(g3
g4
Ntp568
Rp569
(dp570
g8
I9
sg9
g567
sg10
I5
sg11
(I9
I5
tp571
sg13
(lp572
sbsS'z(13, 12)'
p573
g2
(g3
g4
Ntp574
Rp575
(dp576
g8
I13
sg9
g573
sg10
I12
sg11
(I13
I12
tp577
sg13
(lp578
sbsS'z(8, 6)'
p579
g2
(g3
g4
Ntp580
Rp581
(dp582
g8
I8
sg9
g579
sg10
I6
sg11
(I8
I6
tp583
sg13
(lp584
sbsS'z(6, 19)'
p585
g2
(g3
g4
Ntp586
Rp587
(dp588
g8
I6
sg9
g585
sg10
I19
sg11
(I6
I19
tp589
sg13
(lp590
sbsS'z(14, 12)'
p591
g2
(g3
g4
Ntp592
Rp593
(dp594
g8
I14
sg9
g591
sg10
I12
sg11
(I14
I12
tp595
sg13
(lp596
sbsS'z(3, 17)'
p597
g2
(g3
g4
Ntp598
Rp599
(dp600
g8
I3
sg9
g597
sg10
I17
sg11
(I3
I17
tp601
sg13
(lp602
sbsS'z(16, 7)'
p603
g2
(g3
g4
Ntp604
Rp605
(dp606
g8
I16
sg9
g603
sg10
I7
sg11
(I16
I7
tp607
sg13
(lp608
sbsS'z(5, 17)'
p609
g2
(g3
g4
Ntp610
Rp611
(dp612
g8
I5
sg9
g609
sg10
I17
sg11
(I5
I17
tp613
sg13
(lp614
sbsS'z(3, 4)'
p615
g2
(g3
g4
Ntp616
Rp617
(dp618
g8
I3
sg9
g615
sg10
I4
sg11
(I3
I4
tp619
sg13
(lp620
sbsS'z(4, 15)'
p621
g2
(g3
g4
Ntp622
Rp623
(dp624
g8
I4
sg9
g621
sg10
I15
sg11
(I4
I15
tp625
sg13
(lp626
sbsS'z(8, 10)'
p627
g2
(g3
g4
Ntp628
Rp629
(dp630
g8
I8
sg9
g627
sg10
I10
sg11
(I8
I10
tp631
sg13
(lp632
sbsS'z(16, 3)'
p633
g2
(g3
g4
Ntp634
Rp635
(dp636
g8
I16
sg9
g633
sg10
I3
sg11
(I16
I3
tp637
sg13
(lp638
sbsS'z(4, 12)'
p639
g2
(g3
g4
Ntp640
Rp641
(dp642
g8
I4
sg9
g639
sg10
I12
sg11
(I4
I12
tp643
sg13
(lp644
sbsS'z(18, 2)'
p645
g2
(g3
g4
Ntp646
Rp647
(dp648
g8
I18
sg9
g645
sg10
I2
sg11
(I18
I2
tp649
sg13
(lp650
sbsS'z(12, 5)'
p651
g2
(g3
g4
Ntp652
Rp653
(dp654
g8
I12
sg9
g651
sg10
I5
sg11
(I12
I5
tp655
sg13
(lp656
sbsS'z(5, 5)'
p657
g2
(g3
g4
Ntp658
Rp659
(dp660
g8
I5
sg9
g657
sg10
I5
sg11
(I5
I5
tp661
sg13
(lp662
sbsS'z(5, 10)'
p663
g2
(g3
g4
Ntp664
Rp665
(dp666
g8
I5
sg9
g663
sg10
I10
sg11
(I5
I10
tp667
sg13
(lp668
sbsS'z(7, 6)'
p669
g2
(g3
g4
Ntp670
Rp671
(dp672
g8
I7
sg9
g669
sg10
I6
sg11
(I7
I6
tp673
sg13
(lp674
sbsS'z(9, 16)'
p675
g2
(g3
g4
Ntp676
Rp677
(dp678
g8
I9
sg9
g675
sg10
I16
sg11
(I9
I16
tp679
sg13
(lp680
sbsS'z(12, 14)'
p681
g2
(g3
g4
Ntp682
Rp683
(dp684
g8
I12
sg9
g681
sg10
I14
sg11
(I12
I14
tp685
sg13
(lp686
sbsS'z(10, 19)'
p687
g2
(g3
g4
Ntp688
Rp689
(dp690
g8
I10
sg9
g687
sg10
I19
sg11
(I10
I19
tp691
sg13
(lp692
sbsS'z(20, 5)'
p693
g2
(g3
g4
Ntp694
Rp695
(dp696
g8
I20
sg9
g693
sg10
I5
sg11
(I20
I5
tp697
sg13
(lp698
sbsS'z(22, 4)'
p699
g2
(g3
g4
Ntp700
Rp701
(dp702
g8
I22
sg9
g699
sg10
I4
sg11
(I22
I4
tp703
sg13
(lp704
sbsS'z(21, 18)'
p705
g2
(g3
g4
Ntp706
Rp707
(dp708
g8
I21
sg9
g705
sg10
I18
sg11
(I21
I18
tp709
sg13
(lp710
sbsS'z(15, 19)'
p711
g2
(g3
g4
Ntp712
Rp713
(dp714
g8
I15
sg9
g711
sg10
I19
sg11
(I15
I19
tp715
sg13
(lp716
sbsS'z(19, 13)'
p717
g2
(g3
g4
Ntp718
Rp719
(dp720
g8
I19
sg9
g717
sg10
I13
sg11
(I19
I13
tp721
sg13
(lp722
sbsS'z(12, 13)'
p723
g2
(g3
g4
Ntp724
Rp725
(dp726
g8
I12
sg9
g723
sg10
I13
sg11
(I12
I13
tp727
sg13
(lp728
sbsS'z(10, 10)'
p729
g2
(g3
g4
Ntp730
Rp731
(dp732
g8
I10
sg9
g729
sg10
I10
sg11
(I10
I10
tp733
sg13
(lp734
sbsS'z(6, 20)'
p735
g2
(g3
g4
Ntp736
Rp737
(dp738
g8
I6
sg9
g735
sg10
I20
sg11
(I6
I20
tp739
sg13
(lp740
sbsS'z(10, 6)'
p741
g2
(g3
g4
Ntp742
Rp743
(dp744
g8
I10
sg9
g741
sg10
I6
sg11
(I10
I6
tp745
sg13
(lp746
sbsS'z(0, 4)'
p747
g2
(g3
g4
Ntp748
Rp749
(dp750
g8
I0
sg9
g747
sg10
I4
sg11
(I0
I4
tp751
sg13
(lp752
sbsS'z(1, 19)'
p753
g2
(g3
g4
Ntp754
Rp755
(dp756
g8
I1
sg9
g753
sg10
I19
sg11
(I1
I19
tp757
sg13
(lp758
sbsS'z(21, 11)'
p759
g2
(g3
g4
Ntp760
Rp761
(dp762
g8
I21
sg9
g759
sg10
I11
sg11
(I21
I11
tp763
sg13
(lp764
sbsS'z(11, 7)'
p765
g2
(g3
g4
Ntp766
Rp767
(dp768
g8
I11
sg9
g765
sg10
I7
sg11
(I11
I7
tp769
sg13
(lp770
sbsS'z(14, 19)'
p771
g2
(g3
g4
Ntp772
Rp773
(dp774
g8
I14
sg9
g771
sg10
I19
sg11
(I14
I19
tp775
sg13
(lp776
sbsS'z(18, 18)'
p777
g2
(g3
g4
Ntp778
Rp779
(dp780
g8
I18
sg9
g777
sg10
I18
sg11
(I18
I18
tp781
sg13
(lp782
sbsS'z(1, 6)'
p783
g2
(g3
g4
Ntp784
Rp785
(dp786
g8
I1
sg9
g783
sg10
I6
sg11
(I1
I6
tp787
sg13
(lp788
sbsS'z(15, 4)'
p789
g2
(g3
g4
Ntp790
Rp791
(dp792
g8
I15
sg9
g789
sg10
I4
sg11
(I15
I4
tp793
sg13
(lp794
sbsS'z(6, 11)'
p795
g2
(g3
g4
Ntp796
Rp797
(dp798
g8
I6
sg9
g795
sg10
I11
sg11
(I6
I11
tp799
sg13
(lp800
sbsS'z(22, 15)'
p801
g2
(g3
g4
Ntp802
Rp803
(dp804
g8
I22
sg9
g801
sg10
I15
sg11
(I22
I15
tp805
sg13
(lp806
sbsS'z(2, 12)'
p807
g2
(g3
g4
Ntp808
Rp809
(dp810
g8
I2
sg9
g807
sg10
I12
sg11
(I2
I12
tp811
sg13
(lp812
sbsS'z(20, 15)'
p813
g2
(g3
g4
Ntp814
Rp815
(dp816
g8
I20
sg9
g813
sg10
I15
sg11
(I20
I15
tp817
sg13
(lp818
sbsS'z(11, 15)'
p819
g2
(g3
g4
Ntp820
Rp821
(dp822
g8
I11
sg9
g819
sg10
I15
sg11
(I11
I15
tp823
sg13
(lp824
sbsS'z(13, 3)'
p825
g2
(g3
g4
Ntp826
Rp827
(dp828
g8
I13
sg9
g825
sg10
I3
sg11
(I13
I3
tp829
sg13
(lp830
sbsS'z(18, 11)'
p831
g2
(g3
g4
Ntp832
Rp833
(dp834
g8
I18
sg9
g831
sg10
I11
sg11
(I18
I11
tp835
sg13
(lp836
sbsS'z(17, 17)'
p837
g2
(g3
g4
Ntp838
Rp839
(dp840
g8
I17
sg9
g837
sg10
I17
sg11
(I17
I17
tp841
sg13
(lp842
sbsS'z(0, 13)'
p843
g2
(g3
g4
Ntp844
Rp845
(dp846
g8
I0
sg9
g843
sg10
I13
sg11
(I0
I13
tp847
sg13
(lp848
sbsS'z(19, 4)'
p849
g2
(g3
g4
Ntp850
Rp851
(dp852
g8
I19
sg9
g849
sg10
I4
sg11
(I19
I4
tp853
sg13
(lp854
sbsS'z(5, 20)'
p855
g2
(g3
g4
Ntp856
Rp857
(dp858
g8
I5
sg9
g855
sg10
I20
sg11
(I5
I20
tp859
sg13
(lp860
sbsS'z(12, 19)'
p861
g2
(g3
g4
Ntp862
Rp863
(dp864
g8
I12
sg9
g861
sg10
I19
sg11
(I12
I19
tp865
sg13
(lp866
sbsS'z(6, 0)'
p867
g2
(g3
g4
Ntp868
Rp869
(dp870
g8
I6
sg9
g867
sg10
I0
sg11
(I6
I0
tp871
sg13
(lp872
sbsS'z(7, 15)'
p873
g2
(g3
g4
Ntp874
Rp875
(dp876
g8
I7
sg9
g873
sg10
I15
sg11
(I7
I15
tp877
sg13
(lp878
sbsS'z(9, 1)'
p879
g2
(g3
g4
Ntp880
Rp881
(dp882
g8
I9
sg9
g879
sg10
I1
sg11
(I9
I1
tp883
sg13
(lp884
sbsS'z(4, 7)'
p885
g2
(g3
g4
Ntp886
Rp887
(dp888
g8
I4
sg9
g885
sg10
I7
sg11
(I4
I7
tp889
sg13
(lp890
sbsS'z(21, 4)'
p891
g2
(g3
g4
Ntp892
Rp893
(dp894
g8
I21
sg9
g891
sg10
I4
sg11
(I21
I4
tp895
sg13
(lp896
sbsS'z(0, 18)'
p897
g2
(g3
g4
Ntp898
Rp899
(dp900
g8
I0
sg9
g897
sg10
I18
sg11
(I0
I18
tp901
sg13
(lp902
sbsS'z(6, 7)'
p903
g2
(g3
g4
Ntp904
Rp905
(dp906
g8
I6
sg9
g903
sg10
I7
sg11
(I6
I7
tp907
sg13
(lp908
sbsS'z(19, 3)'
p909
g2
(g3
g4
Ntp910
Rp911
(dp912
g8
I19
sg9
g909
sg10
I3
sg11
(I19
I3
tp913
sg13
(lp914
sbsS'z(1, 9)'
p915
g2
(g3
g4
Ntp916
Rp917
(dp918
g8
I1
sg9
g915
sg10
I9
sg11
(I1
I9
tp919
sg13
(lp920
sbsS'z(1, 12)'
p921
g2
(g3
g4
Ntp922
Rp923
(dp924
g8
I1
sg9
g921
sg10
I12
sg11
(I1
I12
tp925
sg13
(lp926
sbsS'z(19, 15)'
p927
g2
(g3
g4
Ntp928
Rp929
(dp930
g8
I19
sg9
g927
sg10
I15
sg11
(I19
I15
tp931
sg13
(lp932
sbsS'z(17, 5)'
p933
g2
(g3
g4
Ntp934
Rp935
(dp936
g8
I17
sg9
g933
sg10
I5
sg11
(I17
I5
tp937
sg13
(lp938
sbsS'z(13, 16)'
p939
g2
(g3
g4
Ntp940
Rp941
(dp942
g8
I13
sg9
g939
sg10
I16
sg11
(I13
I16
tp943
sg13
(lp944
sbsS'z(5, 9)'
p945
g2
(g3
g4
Ntp946
Rp947
(dp948
g8
I5
sg9
g945
sg10
I9
sg11
(I5
I9
tp949
sg13
(lp950
sbsS'z(15, 10)'
p951
g2
(g3
g4
Ntp952
Rp953
(dp954
g8
I15
sg9
g951
sg10
I10
sg11
(I15
I10
tp955
sg13
(lp956
sbsS'z(13, 18)'
p957
g2
(g3
g4
Ntp958
Rp959
(dp960
g8
I13
sg9
g957
sg10
I18
sg11
(I13
I18
tp961
sg13
(lp962
sbsS'z(21, 20)'
p963
g2
(g3
g4
Ntp964
Rp965
(dp966
g8
I21
sg9
g963
sg10
I20
sg11
(I21
I20
tp967
sg13
(lp968
sbsS'z(13, 11)'
p969
g2
(g3
g4
Ntp970
Rp971
(dp972
g8
I13
sg9
g969
sg10
I11
sg11
(I13
I11
tp973
sg13
(lp974
sbsS'z(14, 17)'
p975
g2
(g3
g4
Ntp976
Rp977
(dp978
g8
I14
sg9
g975
sg10
I17
sg11
(I14
I17
tp979
sg13
(lp980
sbsS'z(3, 9)'
p981
g2
(g3
g4
Ntp982
Rp983
(dp984
g8
I3
sg9
g981
sg10
I9
sg11
(I3
I9
tp985
sg13
(lp986
sbsS'z(3, 10)'
p987
g2
(g3
g4
Ntp988
Rp989
(dp990
g8
I3
sg9
g987
sg10
I10
sg11
(I3
I10
tp991
sg13
(lp992
sbsS'z(8, 3)'
p993
g2
(g3
g4
Ntp994
Rp995
(dp996
g8
I8
sg9
g993
sg10
I3
sg11
(I8
I3
tp997
sg13
(lp998
sbsS'z(10, 2)'
p999
g2
(g3
g4
Ntp1000
Rp1001
(dp1002
g8
I10
sg9
g999
sg10
I2
sg11
(I10
I2
tp1003
sg13
(lp1004
sbsS'z(2, 20)'
p1005
g2
(g3
g4
Ntp1006
Rp1007
(dp1008
g8
I2
sg9
g1005
sg10
I20
sg11
(I2
I20
tp1009
sg13
(lp1010
sbsS'z(5, 14)'
p1011
g2
(g3
g4
Ntp1012
Rp1013
(dp1014
g8
I5
sg9
g1011
sg10
I14
sg11
(I5
I14
tp1015
sg13
(lp1016
sbsS'z(4, 18)'
p1017
g2
(g3
g4
Ntp1018
Rp1019
(dp1020
g8
I4
sg9
g1017
sg10
I18
sg11
(I4
I18
tp1021
sg13
(lp1022
sbsS'z(6, 15)'
p1023
g2
(g3
g4
Ntp1024
Rp1025
(dp1026
g8
I6
sg9
g1023
sg10
I15
sg11
(I6
I15
tp1027
sg13
(lp1028
sbsS'z(9, 12)'
p1029
g2
(g3
g4
Ntp1030
Rp1031
(dp1032
g8
I9
sg9
g1029
sg10
I12
sg11
(I9
I12
tp1033
sg13
(lp1034
sbsS'z(18, 20)'
p1035
g2
(g3
g4
Ntp1036
Rp1037
(dp1038
g8
I18
sg9
g1035
sg10
I20
sg11
(I18
I20
tp1039
sg13
(lp1040
sbsS'z(3, 7)'
p1041
g2
(g3
g4
Ntp1042
Rp1043
(dp1044
g8
I3
sg9
g1041
sg10
I7
sg11
(I3
I7
tp1045
sg13
(lp1046
sbsS'z(4, 11)'
p1047
g2
(g3
g4
Ntp1048
Rp1049
(dp1050
g8
I4
sg9
g1047
sg10
I11
sg11
(I4
I11
tp1051
sg13
(lp1052
sbsS'z(8, 14)'
p1053
g2
(g3
g4
Ntp1054
Rp1055
(dp1056
g8
I8
sg9
g1053
sg10
I14
sg11
(I8
I14
tp1057
sg13
(lp1058
sbsS'z(18, 5)'
p1059
g2
(g3
g4
Ntp1060
Rp1061
(dp1062
g8
I18
sg9
g1059
sg10
I5
sg11
(I18
I5
tp1063
sg13
(lp1064
sbsS'z(3, 0)'
p1065
g2
(g3
g4
Ntp1066
Rp1067
(dp1068
g8
I3
sg9
g1065
sg10
I0
sg11
(I3
I0
tp1069
sg13
(lp1070
sbsS'z(16, 20)'
p1071
g2
(g3
g4
Ntp1072
Rp1073
(dp1074
g8
I16
sg9
g1071
sg10
I20
sg11
(I16
I20
tp1075
sg13
(lp1076
sbsS'z(10, 14)'
p1077
g2
(g3
g4
Ntp1078
Rp1079
(dp1080
g8
I10
sg9
g1077
sg10
I14
sg11
(I10
I14
tp1081
sg13
(lp1082
sbsS'z(5, 0)'
p1083
g2
(g3
g4
Ntp1084
Rp1085
(dp1086
g8
I5
sg9
g1083
sg10
I0
sg11
(I5
I0
tp1087
sg13
(lp1088
sbsS'z(16, 9)'
p1089
g2
(g3
g4
Ntp1090
Rp1091
(dp1092
g8
I16
sg9
g1089
sg10
I9
sg11
(I16
I9
tp1093
sg13
(lp1094
sbsS'z(20, 11)'
p1095
g2
(g3
g4
Ntp1096
Rp1097
(dp1098
g8
I20
sg9
g1095
sg10
I11
sg11
(I20
I11
tp1099
sg13
(lp1100
sbsS'z(11, 11)'
p1101
g2
(g3
g4
Ntp1102
Rp1103
(dp1104
g8
I11
sg9
g1101
sg10
I11
sg11
(I11
I11
tp1105
sg13
(lp1106
sbsS'z(21, 9)'
p1107
g2
(g3
g4
Ntp1108
Rp1109
(dp1110
g8
I21
sg9
g1107
sg10
I9
sg11
(I21
I9
tp1111
sg13
(lp1112
sbsS'z(19, 20)'
p1113
g2
(g3
g4
Ntp1114
Rp1115
(dp1116
g8
I19
sg9
g1113
sg10
I20
sg11
(I19
I20
tp1117
sg13
(lp1118
sbsS'z(13, 9)'
p1119
g2
(g3
g4
Ntp1120
Rp1121
(dp1122
g8
I13
sg9
g1119
sg10
I9
sg11
(I13
I9
tp1123
sg13
(lp1124
sbsS'z(22, 1)'
p1125
g2
(g3
g4
Ntp1126
Rp1127
(dp1128
g8
I22
sg9
g1125
sg10
I1
sg11
(I22
I1
tp1129
sg13
(lp1130
sbsS'z(1, 2)'
p1131
g2
(g3
g4
Ntp1132
Rp1133
(dp1134
g8
I1
sg9
g1131
sg10
I2
sg11
(I1
I2
tp1135
sg13
(lp1136
sbsS'z(21, 15)'
p1137
g2
(g3
g4
Ntp1138
Rp1139
(dp1140
g8
I21
sg9
g1137
sg10
I15
sg11
(I21
I15
tp1141
sg13
(lp1142
sbsS'z(15, 1)'
p1143
g2
(g3
g4
Ntp1144
Rp1145
(dp1146
g8
I15
sg9
g1143
sg10
I1
sg11
(I15
I1
tp1147
sg13
(lp1148
sbsS'z(17, 8)'
p1149
g2
(g3
g4
Ntp1150
Rp1151
(dp1152
g8
I17
sg9
g1149
sg10
I8
sg11
(I17
I8
tp1153
sg13
(lp1154
sbsS'z(12, 20)'
p1155
g2
(g3
g4
Ntp1156
Rp1157
(dp1158
g8
I12
sg9
g1155
sg10
I20
sg11
(I12
I20
tp1159
sg13
(lp1160
sbsS'z(1, 16)'
p1161
g2
(g3
g4
Ntp1162
Rp1163
(dp1164
g8
I1
sg9
g1161
sg10
I16
sg11
(I1
I16
tp1165
sg13
(lp1166
sbsS'z(12, 10)'
p1167
g2
(g3
g4
Ntp1168
Rp1169
(dp1170
g8
I12
sg9
g1167
sg10
I10
sg11
(I12
I10
tp1171
sg13
(lp1172
sbsS'z(20, 1)'
p1173
g2
(g3
g4
Ntp1174
Rp1175
(dp1176
g8
I20
sg9
g1173
sg10
I1
sg11
(I20
I1
tp1177
sg13
(lp1178
sbsS'z(22, 20)'
p1179
g2
(g3
g4
Ntp1180
Rp1181
(dp1182
g8
I22
sg9
g1179
sg10
I20
sg11
(I22
I20
tp1183
sg13
(lp1184
sbsS'z(7, 1)'
p1185
g2
(g3
g4
Ntp1186
Rp1187
(dp1188
g8
I7
sg9
g1185
sg10
I1
sg11
(I7
I1
tp1189
sg13
(lp1190
sbsS'z(10, 9)'
p1191
g2
(g3
g4
Ntp1192
Rp1193
(dp1194
g8
I10
sg9
g1191
sg10
I9
sg11
(I10
I9
tp1195
sg13
(lp1196
sbsS'z(15, 13)'
p1197
g2
(g3
g4
Ntp1198
Rp1199
(dp1200
g8
I15
sg9
g1197
sg10
I13
sg11
(I15
I13
tp1201
sg13
(lp1202
sbsS'z(21, 12)'
p1203
g2
(g3
g4
Ntp1204
Rp1205
(dp1206
g8
I21
sg9
g1203
sg10
I12
sg11
(I21
I12
tp1207
sg13
(lp1208
sbsS'z(19, 11)'
p1209
g2
(g3
g4
Ntp1210
Rp1211
(dp1212
g8
I19
sg9
g1209
sg10
I11
sg11
(I19
I11
tp1213
sg13
(lp1214
sbsS'z(17, 1)'
p1215
g2
(g3
g4
Ntp1216
Rp1217
(dp1218
g8
I17
sg9
g1215
sg10
I1
sg11
(I17
I1
tp1219
sg13
(lp1220
sbsS'z(1, 5)'
p1221
g2
(g3
g4
Ntp1222
Rp1223
(dp1224
g8
I1
sg9
g1221
sg10
I5
sg11
(I1
I5
tp1225
sg13
(lp1226
sbsS'z(13, 7)'
p1227
g2
(g3
g4
Ntp1228
Rp1229
(dp1230
g8
I13
sg9
g1227
sg10
I7
sg11
(I13
I7
tp1231
sg13
(lp1232
sbsS'z(0, 1)'
p1233
g2
(g3
g4
Ntp1234
Rp1235
(dp1236
g8
I0
sg9
g1233
sg10
I1
sg11
(I0
I1
tp1237
sg13
(lp1238
sbsS'z(11, 4)'
p1239
g2
(g3
g4
Ntp1240
Rp1241
(dp1242
g8
I11
sg9
g1239
sg10
I4
sg11
(I11
I4
tp1243
sg13
(lp1244
sbsS'z(6, 4)'
p1245
g2
(g3
g4
Ntp1246
Rp1247
(dp1248
g8
I6
sg9
g1245
sg10
I4
sg11
(I6
I4
tp1249
sg13
(lp1250
sbsS'z(18, 15)'
p1251
g2
(g3
g4
Ntp1252
Rp1253
(dp1254
g8
I18
sg9
g1251
sg10
I15
sg11
(I18
I15
tp1255
sg13
(lp1256
sbsS'z(7, 16)'
p1257
g2
(g3
g4
Ntp1258
Rp1259
(dp1260
g8
I7
sg9
g1257
sg10
I16
sg11
(I7
I16
tp1261
sg13
(lp1262
sbsS'z(22, 10)'
p1263
g2
(g3
g4
Ntp1264
Rp1265
(dp1266
g8
I22
sg9
g1263
sg10
I10
sg11
(I22
I10
tp1267
sg13
(lp1268
sbsS'z(11, 3)'
p1269
g2
(g3
g4
Ntp1270
Rp1271
(dp1272
g8
I11
sg9
g1269
sg10
I3
sg11
(I11
I3
tp1273
sg13
(lp1274
sbsS'z(7, 8)'
p1275
g2
(g3
g4
Ntp1276
Rp1277
(dp1278
g8
I7
sg9
g1275
sg10
I8
sg11
(I7
I8
tp1279
sg13
(lp1280
sbsS'z(7, 11)'
p1281
g2
(g3
g4
Ntp1282
Rp1283
(dp1284
g8
I7
sg9
g1281
sg10
I11
sg11
(I7
I11
tp1285
sg13
(lp1286
sbsS'z(21, 0)'
p1287
g2
(g3
g4
Ntp1288
Rp1289
(dp1290
g8
I21
sg9
g1287
sg10
I0
sg11
(I21
I0
tp1291
sg13
(lp1292
sbsS'z(11, 18)'
p1293
g2
(g3
g4
Ntp1294
Rp1295
(dp1296
g8
I11
sg9
g1293
sg10
I18
sg11
(I11
I18
tp1297
sg13
(lp1298
sbsS'z(17, 18)'
p1299
g2
(g3
g4
Ntp1300
Rp1301
(dp1302
g8
I17
sg9
g1299
sg10
I18
sg11
(I17
I18
tp1303
sg13
(lp1304
sbsS'z(4, 3)'
p1305
g2
(g3
g4
Ntp1306
Rp1307
(dp1308
g8
I4
sg9
g1305
sg10
I3
sg11
(I4
I3
tp1309
sg13
(lp1310
sbsS'z(16, 11)'
p1311
g2
(g3
g4
Ntp1312
Rp1313
(dp1314
g8
I16
sg9
g1311
sg10
I11
sg11
(I16
I11
tp1315
sg13
(lp1316
sbsS'z(14, 9)'
p1317
g2
(g3
g4
Ntp1318
Rp1319
(dp1320
g8
I14
sg9
g1317
sg10
I9
sg11
(I14
I9
tp1321
sg13
(lp1322
sbsS'z(2, 6)'
p1323
g2
(g3
g4
Ntp1324
Rp1325
(dp1326
g8
I2
sg9
g1323
sg10
I6
sg11
(I2
I6
tp1327
sg13
(lp1328
sbsS'z(3, 14)'
p1329
g2
(g3
g4
Ntp1330
Rp1331
(dp1332
g8
I3
sg9
g1329
sg10
I14
sg11
(I3
I14
tp1333
sg13
(lp1334
sbsS'z(19, 9)'
p1335
g2
(g3
g4
Ntp1336
Rp1337
(dp1338
g8
I19
sg9
g1335
sg10
I9
sg11
(I19
I9
tp1339
sg13
(lp1340
sbsS'z(14, 7)'
p1341
g2
(g3
g4
Ntp1342
Rp1343
(dp1344
g8
I14
sg9
g1341
sg10
I7
sg11
(I14
I7
tp1345
sg13
(lp1346
sbsS'z(7, 20)'
p1347
g2
(g3
g4
Ntp1348
Rp1349
(dp1350
g8
I7
sg9
g1347
sg10
I20
sg11
(I7
I20
tp1351
sg13
(lp1352
sbsS'z(21, 7)'
p1353
g2
(g3
g4
Ntp1354
Rp1355
(dp1356
g8
I21
sg9
g1353
sg10
I7
sg11
(I21
I7
tp1357
sg13
(lp1358
sbsS'z(17, 13)'
p1359
g2
(g3
g4
Ntp1360
Rp1361
(dp1362
g8
I17
sg9
g1359
sg10
I13
sg11
(I17
I13
tp1363
sg13
(lp1364
sbsS'z(0, 17)'
p1365
g2
(g3
g4
Ntp1366
Rp1367
(dp1368
g8
I0
sg9
g1365
sg10
I17
sg11
(I0
I17
tp1369
sg13
(lp1370
sbsS'z(19, 0)'
p1371
g2
(g3
g4
Ntp1372
Rp1373
(dp1374
g8
I19
sg9
g1371
sg10
I0
sg11
(I19
I0
tp1375
sg13
(lp1376
sbsS'z(14, 0)'
p1377
g2
(g3
g4
Ntp1378
Rp1379
(dp1380
g8
I14
sg9
g1377
sg10
I0
sg11
(I14
I0
tp1381
sg13
(lp1382
sbsS'z(4, 8)'
p1383
g2
(g3
g4
Ntp1384
Rp1385
(dp1386
g8
I4
sg9
g1383
sg10
I8
sg11
(I4
I8
tp1387
sg13
(lp1388
sbsS'z(9, 4)'
p1389
g2
(g3
g4
Ntp1390
Rp1391
(dp1392
g8
I9
sg9
g1389
sg10
I4
sg11
(I9
I4
tp1393
sg13
(lp1394
sbsS'z(17, 6)'
p1395
g2
(g3
g4
Ntp1396
Rp1397
(dp1398
g8
I17
sg9
g1395
sg10
I6
sg11
(I17
I6
tp1399
sg13
(lp1400
sbsS'z(13, 15)'
p1401
g2
(g3
g4
Ntp1402
Rp1403
(dp1404
g8
I13
sg9
g1401
sg10
I15
sg11
(I13
I15
tp1405
sg13
(lp1406
sbsS'z(14, 13)'
p1407
g2
(g3
g4
Ntp1408
Rp1409
(dp1410
g8
I14
sg9
g1407
sg10
I13
sg11
(I14
I13
tp1411
sg13
(lp1412
sbsS'z(18, 19)'
p1413
g2
(g3
g4
Ntp1414
Rp1415
(dp1416
g8
I18
sg9
g1413
sg10
I19
sg11
(I18
I19
tp1417
sg13
(lp1418
sbsS'z(3, 20)'
p1419
g2
(g3
g4
Ntp1420
Rp1421
(dp1422
g8
I3
sg9
g1419
sg10
I20
sg11
(I3
I20
tp1423
sg13
(lp1424
sbsS'z(3, 3)'
p1425
g2
(g3
g4
Ntp1426
Rp1427
(dp1428
g8
I3
sg9
g1425
sg10
I3
sg11
(I3
I3
tp1429
sg13
(lp1430
sbsS'z(5, 18)'
p1431
g2
(g3
g4
Ntp1432
Rp1433
(dp1434
g8
I5
sg9
g1431
sg10
I18
sg11
(I5
I18
tp1435
sg13
(lp1436
sbsS'z(4, 14)'
p1437
g2
(g3
g4
Ntp1438
Rp1439
(dp1440
g8
I4
sg9
g1437
sg10
I14
sg11
(I4
I14
tp1441
sg13
(lp1442
sbsS'z(8, 13)'
p1443
g2
(g3
g4
Ntp1444
Rp1445
(dp1446
g8
I8
sg9
g1443
sg10
I13
sg11
(I8
I13
tp1447
sg13
(lp1448
sbsS'z(5, 4)'
p1449
g2
(g3
g4
Ntp1450
Rp1451
(dp1452
g8
I5
sg9
g1449
sg10
I4
sg11
(I5
I4
tp1453
sg13
(lp1454
sbsS'z(12, 4)'
p1455
g2
(g3
g4
Ntp1456
Rp1457
(dp1458
g8
I12
sg9
g1455
sg10
I4
sg11
(I12
I4
tp1459
sg13
(lp1460
sbsS'z(18, 1)'
p1461
g2
(g3
g4
Ntp1462
Rp1463
(dp1464
g8
I18
sg9
g1461
sg10
I1
sg11
(I18
I1
tp1465
sg13
(lp1466
sbsS'z(5, 11)'
p1467
g2
(g3
g4
Ntp1468
Rp1469
(dp1470
g8
I5
sg9
g1467
sg10
I11
sg11
(I5
I11
tp1471
sg13
(lp1472
sbsS'z(7, 5)'
p1473
g2
(g3
g4
Ntp1474
Rp1475
(dp1476
g8
I7
sg9
g1473
sg10
I5
sg11
(I7
I5
tp1477
sg13
(lp1478
sbsS'z(9, 17)'
p1479
g2
(g3
g4
Ntp1480
Rp1481
(dp1482
g8
I9
sg9
g1479
sg10
I17
sg11
(I9
I17
tp1483
sg13
(lp1484
sbsS'z(16, 14)'
p1485
g2
(g3
g4
Ntp1486
Rp1487
(dp1488
g8
I16
sg9
g1485
sg10
I14
sg11
(I16
I14
tp1489
sg13
(lp1490
sbsS'z(12, 15)'
p1491
g2
(g3
g4
Ntp1492
Rp1493
(dp1494
g8
I12
sg9
g1491
sg10
I15
sg11
(I12
I15
tp1495
sg13
(lp1496
sbsS'z(22, 5)'
p1497
g2
(g3
g4
Ntp1498
Rp1499
(dp1500
g8
I22
sg9
g1497
sg10
I5
sg11
(I22
I5
tp1501
sg13
(lp1502
sbsS'z(20, 6)'
p1503
g2
(g3
g4
Ntp1504
Rp1505
(dp1506
g8
I20
sg9
g1503
sg10
I6
sg11
(I20
I6
tp1507
sg13
(lp1508
sbsS'z(16, 2)'
p1509
g2
(g3
g4
Ntp1510
Rp1511
(dp1512
g8
I16
sg9
g1509
sg10
I2
sg11
(I16
I2
tp1513
sg13
(lp1514
sbsS'z(10, 11)'
p1515
g2
(g3
g4
Ntp1516
Rp1517
(dp1518
g8
I10
sg9
g1515
sg10
I11
sg11
(I10
I11
tp1519
sg13
(lp1520
sbsS'z(11, 20)'
p1521
g2
(g3
g4
Ntp1522
Rp1523
(dp1524
g8
I11
sg9
g1521
sg10
I20
sg11
(I11
I20
tp1525
sg13
(lp1526
sbsS'z(14, 4)'
p1527
g2
(g3
g4
Ntp1528
Rp1529
(dp1530
g8
I14
sg9
g1527
sg10
I4
sg11
(I14
I4
tp1531
sg13
(lp1532
sbsS'z(10, 5)'
p1533
g2
(g3
g4
Ntp1534
Rp1535
(dp1536
g8
I10
sg9
g1533
sg10
I5
sg11
(I10
I5
tp1537
sg13
(lp1538
sbsS'z(11, 14)'
p1539
g2
(g3
g4
Ntp1540
Rp1541
(dp1542
g8
I11
sg9
g1539
sg10
I14
sg11
(I11
I14
tp1543
sg13
(lp1544
sbsS'z(0, 5)'
p1545
g2
(g3
g4
Ntp1546
Rp1547
(dp1548
g8
I0
sg9
g1545
sg10
I5
sg11
(I0
I5
tp1549
sg13
(lp1550
sbsS'z(16, 15)'
p1551
g2
(g3
g4
Ntp1552
Rp1553
(dp1554
g8
I16
sg9
g1551
sg10
I15
sg11
(I16
I15
tp1555
sg13
(lp1556
sbsS'z(22, 2)'
p1557
g2
(g3
g4
Ntp1558
Rp1559
(dp1560
g8
I22
sg9
g1557
sg10
I2
sg11
(I22
I2
tp1561
sg13
(lp1562
sbsS'z(9, 9)'
p1563
g2
(g3
g4
Ntp1564
Rp1565
(dp1566
g8
I9
sg9
g1563
sg10
I9
sg11
(I9
I9
tp1567
sg13
(lp1568
sbsS'z(21, 16)'
p1569
g2
(g3
g4
Ntp1570
Rp1571
(dp1572
g8
I21
sg9
g1569
sg10
I16
sg11
(I21
I16
tp1573
sg13
(lp1574
sbsS'z(4, 20)'
p1575
g2
(g3
g4
Ntp1576
Rp1577
(dp1578
g8
I4
sg9
g1575
sg10
I20
sg11
(I4
I20
tp1579
sg13
(lp1580
sbsS'z(1, 1)'
p1581
g2
(g3
g4
Ntp1582
Rp1583
(dp1584
g8
I1
sg9
g1581
sg10
I1
sg11
(I1
I1
tp1585
sg13
(lp1586
sbsS'z(11, 0)'
p1587
g2
(g3
g4
Ntp1588
Rp1589
(dp1590
g8
I11
sg9
g1587
sg10
I0
sg11
(I11
I0
tp1591
sg13
(lp1592
sbsS'z(21, 19)'
p1593
g2
(g3
g4
Ntp1594
Rp1595
(dp1596
g8
I21
sg9
g1593
sg10
I19
sg11
(I21
I19
tp1597
sg13
(lp1598
sbsS'z(10, 20)'
p1599
g2
(g3
g4
Ntp1600
Rp1601
(dp1602
g8
I10
sg9
g1599
sg10
I20
sg11
(I10
I20
tp1603
sg13
(lp1604
sbsS'z(15, 5)'
p1605
g2
(g3
g4
Ntp1606
Rp1607
(dp1608
g8
I15
sg9
g1605
sg10
I5
sg11
(I15
I5
tp1609
sg13
(lp1610
sbsS'z(6, 10)'
p1611
g2
(g3
g4
Ntp1612
Rp1613
(dp1614
g8
I6
sg9
g1611
sg10
I10
sg11
(I6
I10
tp1615
sg13
(lp1616
sbsS'z(2, 15)'
p1617
g2
(g3
g4
Ntp1618
Rp1619
(dp1620
g8
I2
sg9
g1617
sg10
I15
sg11
(I2
I15
tp1621
sg13
(lp1622
sbsS'z(22, 14)'
p1623
g2
(g3
g4
Ntp1624
Rp1625
(dp1626
g8
I22
sg9
g1623
sg10
I14
sg11
(I22
I14
tp1627
sg13
(lp1628
sbsS'z(0, 11)'
p1629
g2
(g3
g4
Ntp1630
Rp1631
(dp1632
g8
I0
sg9
g1629
sg10
I11
sg11
(I0
I11
tp1633
sg13
(lp1634
sbsS'z(2, 11)'
p1635
g2
(g3
g4
Ntp1636
Rp1637
(dp1638
g8
I2
sg9
g1635
sg10
I11
sg11
(I2
I11
tp1639
sg13
(lp1640
sbsS'z(20, 14)'
p1641
g2
(g3
g4
Ntp1642
Rp1643
(dp1644
g8
I20
sg9
g1641
sg10
I14
sg11
(I20
I14
tp1645
sg13
(lp1646
sbsS'z(9, 18)'
p1647
g2
(g3
g4
Ntp1648
Rp1649
(dp1650
g8
I9
sg9
g1647
sg10
I18
sg11
(I9
I18
tp1651
sg13
(lp1652
sbsS'z(13, 0)'
p1653
g2
(g3
g4
Ntp1654
Rp1655
(dp1656
g8
I13
sg9
g1653
sg10
I0
sg11
(I13
I0
tp1657
sg13
(lp1658
sbsS'z(18, 16)'
p1659
g2
(g3
g4
Ntp1660
Rp1661
(dp1662
g8
I18
sg9
g1659
sg10
I16
sg11
(I18
I16
tp1663
sg13
(lp1664
sbsS'z(3, 18)'
p1665
g2
(g3
g4
Ntp1666
Rp1667
(dp1668
g8
I3
sg9
g1665
sg10
I18
sg11
(I3
I18
tp1669
sg13
(lp1670
sbsS'z(2, 2)'
p1671
g2
(g3
g4
Ntp1672
Rp1673
(dp1674
g8
I2
sg9
g1671
sg10
I2
sg11
(I2
I2
tp1675
sg13
(lp1676
sbsS'z(12, 9)'
p1677
g2
(g3
g4
Ntp1678
Rp1679
(dp1680
g8
I12
sg9
g1677
sg10
I9
sg11
(I12
I9
tp1681
sg13
(lp1682
sbsS'z(0, 12)'
p1683
g2
(g3
g4
Ntp1684
Rp1685
(dp1686
g8
I0
sg9
g1683
sg10
I12
sg11
(I0
I12
tp1687
sg13
(lp1688
sbsS'z(17, 16)'
p1689
g2
(g3
g4
Ntp1690
Rp1691
(dp1692
g8
I17
sg9
g1689
sg10
I16
sg11
(I17
I16
tp1693
sg13
(lp1694
sbsS'z(19, 5)'
p1695
g2
(g3
g4
Ntp1696
Rp1697
(dp1698
g8
I19
sg9
g1695
sg10
I5
sg11
(I19
I5
tp1699
sg13
(lp1700
sbsS'z(6, 1)'
p1701
g2
(g3
g4
Ntp1702
Rp1703
(dp1704
g8
I6
sg9
g1701
sg10
I1
sg11
(I6
I1
tp1705
sg13
(lp1706
sbsS'z(4, 4)'
p1707
g2
(g3
g4
Ntp1708
Rp1709
(dp1710
g8
I4
sg9
g1707
sg10
I4
sg11
(I4
I4
tp1711
sg13
(lp1712
sbsS'z(9, 0)'
p1713
g2
(g3
g4
Ntp1714
Rp1715
(dp1716
g8
I9
sg9
g1713
sg10
I0
sg11
(I9
I0
tp1717
sg13
(lp1718
sbsS'z(7, 12)'
p1719
g2
(g3
g4
Ntp1720
Rp1721
(dp1722
g8
I7
sg9
g1719
sg10
I12
sg11
(I7
I12
tp1723
sg13
(lp1724
sbsS'z(6, 8)'
p1725
g2
(g3
g4
Ntp1726
Rp1727
(dp1728
g8
I6
sg9
g1725
sg10
I8
sg11
(I6
I8
tp1729
sg13
(lp1730
sbsS'z(21, 3)'
p1731
g2
(g3
g4
Ntp1732
Rp1733
(dp1734
g8
I21
sg9
g1731
sg10
I3
sg11
(I21
I3
tp1735
sg13
(lp1736
sbsS'z(1, 8)'
p1737
g2
(g3
g4
Ntp1738
Rp1739
(dp1740
g8
I1
sg9
g1737
sg10
I8
sg11
(I1
I8
tp1741
sg13
(lp1742
sbsS'z(1, 13)'
p1743
g2
(g3
g4
Ntp1744
Rp1745
(dp1746
g8
I1
sg9
g1743
sg10
I13
sg11
(I1
I13
tp1747
sg13
(lp1748
sbsS'z(0, 2)'
p1749
g2
(g3
g4
Ntp1750
Rp1751
(dp1752
g8
I0
sg9
g1749
sg10
I2
sg11
(I0
I2
tp1753
sg13
(lp1754
sbsS'z(19, 14)'
p1755
g2
(g3
g4
Ntp1756
Rp1757
(dp1758
g8
I19
sg9
g1755
sg10
I14
sg11
(I19
I14
tp1759
sg13
(lp1760
sbsS'z(17, 2)'
p1761
g2
(g3
g4
Ntp1762
Rp1763
(dp1764
g8
I17
sg9
g1761
sg10
I2
sg11
(I17
I2
tp1765
sg13
(lp1766
sbsS'z(5, 8)'
p1767
g2
(g3
g4
Ntp1768
Rp1769
(dp1770
g8
I5
sg9
g1767
sg10
I8
sg11
(I5
I8
tp1771
sg13
(lp1772
sbsS'z(10, 18)'
p1773
g2
(g3
g4
Ntp1774
Rp1775
(dp1776
g8
I10
sg9
g1773
sg10
I18
sg11
(I10
I18
tp1777
sg13
(lp1778
sbsS'z(14, 3)'
p1779
g2
(g3
g4
Ntp1780
Rp1781
(dp1782
g8
I14
sg9
g1779
sg10
I3
sg11
(I14
I3
tp1783
sg13
(lp1784
sbsS'z(13, 10)'
p1785
g2
(g3
g4
Ntp1786
Rp1787
(dp1788
g8
I13
sg9
g1785
sg10
I10
sg11
(I13
I10
tp1789
sg13
(lp1790
sbsS'z(3, 8)'
p1791
g2
(g3
g4
Ntp1792
Rp1793
(dp1794
g8
I3
sg9
g1791
sg10
I8
sg11
(I3
I8
tp1795
sg13
(lp1796
sbsS'z(14, 14)'
p1797
g2
(g3
g4
Ntp1798
Rp1799
(dp1800
g8
I14
sg9
g1797
sg10
I14
sg11
(I14
I14
tp1801
sg13
(lp1802
sbsS'z(3, 11)'
p1803
g2
(g3
g4
Ntp1804
Rp1805
(dp1806
g8
I3
sg9
g1803
sg10
I11
sg11
(I3
I11
tp1807
sg13
(lp1808
sbsS'z(1, 15)'
p1809
g2
(g3
g4
Ntp1810
Rp1811
(dp1812
g8
I1
sg9
g1809
sg10
I15
sg11
(I1
I15
tp1813
sg13
(lp1814
sbsS'z(12, 0)'
p1815
g2
(g3
g4
Ntp1816
Rp1817
(dp1818
g8
I12
sg9
g1815
sg10
I0
sg11
(I12
I0
tp1819
sg13
(lp1820
sbsS'z(18, 12)'
p1821
g2
(g3
g4
Ntp1822
Rp1823
(dp1824
g8
I18
sg9
g1821
sg10
I12
sg11
(I18
I12
tp1825
sg13
(lp1826
sbsS'z(10, 1)'
p1827
g2
(g3
g4
Ntp1828
Rp1829
(dp1830
g8
I10
sg9
g1827
sg10
I1
sg11
(I10
I1
tp1831
sg13
(lp1832
sbsS'z(5, 15)'
p1833
g2
(g3
g4
Ntp1834
Rp1835
(dp1836
g8
I5
sg9
g1833
sg10
I15
sg11
(I5
I15
tp1837
sg13
(lp1838
sbsS'z(16, 1)'
p1839
g2
(g3
g4
Ntp1840
Rp1841
(dp1842
g8
I16
sg9
g1839
sg10
I1
sg11
(I16
I1
tp1843
sg13
(lp1844
sbsS'z(20, 19)'
p1845
g2
(g3
g4
Ntp1846
Rp1847
(dp1848
g8
I20
sg9
g1845
sg10
I19
sg11
(I20
I19
tp1849
sg13
(lp1850
sbsS'z(9, 13)'
p1851
g2
(g3
g4
Ntp1852
Rp1853
(dp1854
g8
I9
sg9
g1851
sg10
I13
sg11
(I9
I13
tp1855
sg13
(lp1856
sbsS'z(3, 6)'
p1857
g2
(g3
g4
Ntp1858
Rp1859
(dp1860
g8
I3
sg9
g1857
sg10
I6
sg11
(I3
I6
tp1861
sg13
(lp1862
sbsS'z(4, 10)'
p1863
g2
(g3
g4
Ntp1864
Rp1865
(dp1866
g8
I4
sg9
g1863
sg10
I10
sg11
(I4
I10
tp1867
sg13
(lp1868
sbsS'z(18, 4)'
p1869
g2
(g3
g4
Ntp1870
Rp1871
(dp1872
g8
I18
sg9
g1869
sg10
I4
sg11
(I18
I4
tp1873
sg13
(lp1874
sbsS'z(8, 17)'
p1875
g2
(g3
g4
Ntp1876
Rp1877
(dp1878
g8
I8
sg9
g1875
sg10
I17
sg11
(I8
I17
tp1879
sg13
(lp1880
sbsS'z(16, 6)'
p1881
g2
(g3
g4
Ntp1882
Rp1883
(dp1884
g8
I16
sg9
g1881
sg10
I6
sg11
(I16
I6
tp1885
sg13
(lp1886
sbsS'z(5, 3)'
p1887
g2
(g3
g4
Ntp1888
Rp1889
(dp1890
g8
I5
sg9
g1887
sg10
I3
sg11
(I5
I3
tp1891
sg13
(lp1892
sbsS'z(9, 15)'
p1893
g2
(g3
g4
Ntp1894
Rp1895
(dp1896
g8
I9
sg9
g1893
sg10
I15
sg11
(I9
I15
tp1897
sg13
(lp1898
sbsS'z(8, 19)'
p1899
g2
(g3
g4
Ntp1900
Rp1901
(dp1902
g8
I8
sg9
g1899
sg10
I19
sg11
(I8
I19
tp1903
sg13
(lp1904
sbsS'z(16, 8)'
p1905
g2
(g3
g4
Ntp1906
Rp1907
(dp1908
g8
I16
sg9
g1905
sg10
I8
sg11
(I16
I8
tp1909
sg13
(lp1910
sbsS'z(20, 10)'
p1911
g2
(g3
g4
Ntp1912
Rp1913
(dp1914
g8
I20
sg9
g1911
sg10
I10
sg11
(I20
I10
tp1915
sg13
(lp1916
sbsS'z(1, 14)'
p1917
g2
(g3
g4
Ntp1918
Rp1919
(dp1920
g8
I1
sg9
g1917
sg10
I14
sg11
(I1
I14
tp1921
sg13
(lp1922
sbsS'z(9, 14)'
p1923
g2
(g3
g4
Ntp1924
Rp1925
(dp1926
g8
I9
sg9
g1923
sg10
I14
sg11
(I9
I14
tp1927
sg13
(lp1928
sbsS'z(21, 8)'
p1929
g2
(g3
g4
Ntp1930
Rp1931
(dp1932
g8
I21
sg9
g1929
sg10
I8
sg11
(I21
I8
tp1933
sg13
(lp1934
sbsS'z(11, 10)'
p1935
g2
(g3
g4
Ntp1936
Rp1937
(dp1938
g8
I11
sg9
g1935
sg10
I10
sg11
(I11
I10
tp1939
sg13
(lp1940
sbsS'z(7, 0)'
p1941
g2
(g3
g4
Ntp1942
Rp1943
(dp1944
g8
I7
sg9
g1941
sg10
I0
sg11
(I7
I0
tp1945
sg13
(lp1946
sbsS'z(22, 6)'
p1947
g2
(g3
g4
Ntp1948
Rp1949
(dp1950
g8
I22
sg9
g1947
sg10
I6
sg11
(I22
I6
tp1951
sg13
(lp1952
sbsS'z(19, 19)'
p1953
g2
(g3
g4
Ntp1954
Rp1955
(dp1956
g8
I19
sg9
g1953
sg10
I19
sg11
(I19
I19
tp1957
sg13
(lp1958
sbsS'z(17, 9)'
p1959
g2
(g3
g4
Ntp1960
Rp1961
(dp1962
g8
I17
sg9
g1959
sg10
I9
sg11
(I17
I9
tp1963
sg13
(lp1964
sbsS'z(15, 2)'
p1965
g2
(g3
g4
Ntp1966
Rp1967
(dp1968
g8
I15
sg9
g1965
sg10
I2
sg11
(I15
I2
tp1969
sg13
(lp1970
sbsS'z(12, 11)'
p1971
g2
(g3
g4
Ntp1972
Rp1973
(dp1974
g8
I12
sg9
g1971
sg10
I11
sg11
(I12
I11
tp1975
sg13
(lp1976
sbsS'z(10, 12)'
p1977
g2
(g3
g4
Ntp1978
Rp1979
(dp1980
g8
I10
sg9
g1977
sg10
I12
sg11
(I10
I12
tp1981
sg13
(lp1982
sbsS'z(20, 2)'
p1983
g2
(g3
g4
Ntp1984
Rp1985
(dp1986
g8
I20
sg9
g1983
sg10
I2
sg11
(I20
I2
tp1987
sg13
(lp1988
sbsS'z(6, 14)'
p1989
g2
(g3
g4
Ntp1990
Rp1991
(dp1992
g8
I6
sg9
g1989
sg10
I14
sg11
(I6
I14
tp1993
sg13
(lp1994
sbsS'z(15, 12)'
p1995
g2
(g3
g4
Ntp1996
Rp1997
(dp1998
g8
I15
sg9
g1995
sg10
I12
sg11
(I15
I12
tp1999
sg13
(lp2000
sbsS'z(14, 8)'
p2001
g2
(g3
g4
Ntp2002
Rp2003
(dp2004
g8
I14
sg9
g2001
sg10
I8
sg11
(I14
I8
tp2005
sg13
(lp2006
sbsS'z(6, 18)'
p2007
g2
(g3
g4
Ntp2008
Rp2009
(dp2010
g8
I6
sg9
g2007
sg10
I18
sg11
(I6
I18
tp2011
sg13
(lp2012
sbsS'z(21, 13)'
p2013
g2
(g3
g4
Ntp2014
Rp2015
(dp2016
g8
I21
sg9
g2013
sg10
I13
sg11
(I21
I13
tp2017
sg13
(lp2018
sbsS'z(19, 10)'
p2019
g2
(g3
g4
Ntp2020
Rp2021
(dp2022
g8
I19
sg9
g2019
sg10
I10
sg11
(I19
I10
tp2023
sg13
(lp2024
sbsS'z(0, 6)'
p2025
g2
(g3
g4
Ntp2026
Rp2027
(dp2028
g8
I0
sg9
g2025
sg10
I6
sg11
(I0
I6
tp2029
sg13
(lp2030
sbsS'z(6, 5)'
p2031
g2
(g3
g4
Ntp2032
Rp2033
(dp2034
g8
I6
sg9
g2031
sg10
I5
sg11
(I6
I5
tp2035
sg13
(lp2036
sbsS'z(11, 5)'
p2037
g2
(g3
g4
Ntp2038
Rp2039
(dp2040
g8
I11
sg9
g2037
sg10
I5
sg11
(I11
I5
tp2041
sg13
(lp2042
sbsS'z(13, 4)'
p2043
g2
(g3
g4
Ntp2044
Rp2045
(dp2046
g8
I13
sg9
g2043
sg10
I4
sg11
(I13
I4
tp2047
sg13
(lp2048
sbsS'z(7, 17)'
p2049
g2
(g3
g4
Ntp2050
Rp2051
(dp2052
g8
I7
sg9
g2049
sg10
I17
sg11
(I7
I17
tp2053
sg13
(lp2054
sbsS'z(6, 13)'
p2055
g2
(g3
g4
Ntp2056
Rp2057
(dp2058
g8
I6
sg9
g2055
sg10
I13
sg11
(I6
I13
tp2059
sg13
(lp2060
sbsS'z(22, 13)'
p2061
g2
(g3
g4
Ntp2062
Rp2063
(dp2064
g8
I22
sg9
g2061
sg10
I13
sg11
(I22
I13
tp2065
sg13
(lp2066
sbsS'z(2, 14)'
p2067
g2
(g3
g4
Ntp2068
Rp2069
(dp2070
g8
I2
sg9
g2067
sg10
I14
sg11
(I2
I14
tp2071
sg13
(lp2072
sbsS'z(15, 16)'
p2073
g2
(g3
g4
Ntp2074
Rp2075
(dp2076
g8
I15
sg9
g2073
sg10
I16
sg11
(I15
I16
tp2077
sg13
(lp2078
sbsS'z(22, 19)'
p2079
g2
(g3
g4
Ntp2080
Rp2081
(dp2082
g8
I22
sg9
g2079
sg10
I19
sg11
(I22
I19
tp2083
sg13
(lp2084
sbsS'z(20, 17)'
p2085
g2
(g3
g4
Ntp2086
Rp2087
(dp2088
g8
I20
sg9
g2085
sg10
I17
sg11
(I20
I17
tp2089
sg13
(lp2090
sbsS'z(4, 0)'
p2091
g2
(g3
g4
Ntp2092
Rp2093
(dp2094
g8
I4
sg9
g2091
sg10
I0
sg11
(I4
I0
tp2095
sg13
(lp2096
sbsS'z(11, 17)'
p2097
g2
(g3
g4
Ntp2098
Rp2099
(dp2100
g8
I11
sg9
g2097
sg10
I17
sg11
(I11
I17
tp2101
sg13
(lp2102
sbsS'z(16, 12)'
p2103
g2
(g3
g4
Ntp2104
Rp2105
(dp2106
g8
I16
sg9
g2103
sg10
I12
sg11
(I16
I12
tp2107
sg13
(lp2108
sbsS'z(22, 16)'
p2109
g2
(g3
g4
Ntp2110
Rp2111
(dp2112
g8
I22
sg9
g2109
sg10
I16
sg11
(I22
I16
tp2113
sg13
(lp2114
sbsS'z(14, 10)'
p2115
g2
(g3
g4
Ntp2116
Rp2117
(dp2118
g8
I14
sg9
g2115
sg10
I10
sg11
(I14
I10
tp2119
sg13
(lp2120
sbsS'z(18, 13)'
p2121
g2
(g3
g4
Ntp2122
Rp2123
(dp2124
g8
I18
sg9
g2121
sg10
I13
sg11
(I18
I13
tp2125
sg13
(lp2126
sbsS'z(3, 15)'
p2127
g2
(g3
g4
Ntp2128
Rp2129
(dp2130
g8
I3
sg9
g2127
sg10
I15
sg11
(I3
I15
tp2131
sg13
(lp2132
sbsS'z(18, 9)'
p2133
g2
(g3
g4
Ntp2134
Rp2135
(dp2136
g8
I18
sg9
g2133
sg10
I9
sg11
(I18
I9
tp2137
sg13
(lp2138
sbsS'z(8, 4)'
p2139
g2
(g3
g4
Ntp2140
Rp2141
(dp2142
g8
I8
sg9
g2139
sg10
I4
sg11
(I8
I4
tp2143
sg13
(lp2144
sbsS'z(17, 15)'
p2145
g2
(g3
g4
Ntp2146
Rp2147
(dp2148
g8
I17
sg9
g2145
sg10
I15
sg11
(I17
I15
tp2149
sg13
(lp2150
sbsS'z(8, 0)'
p2151
g2
(g3
g4
Ntp2152
Rp2153
(dp2154
g8
I8
sg9
g2151
sg10
I0
sg11
(I8
I0
tp2155
sg13
(lp2156
sbsS'z(2, 7)'
p2157
g2
(g3
g4
Ntp2158
Rp2159
(dp2160
g8
I2
sg9
g2157
sg10
I7
sg11
(I2
I7
tp2161
sg13
(lp2162
sbsS'z(21, 6)'
p2163
g2
(g3
g4
Ntp2164
Rp2165
(dp2166
g8
I21
sg9
g2163
sg10
I6
sg11
(I21
I6
tp2167
sg13
(lp2168
sbsS'z(0, 16)'
p2169
g2
(g3
g4
Ntp2170
Rp2171
(dp2172
g8
I0
sg9
g2169
sg10
I16
sg11
(I0
I16
tp2173
sg13
(lp2174
sbsS'z(17, 12)'
p2175
g2
(g3
g4
Ntp2176
Rp2177
(dp2178
g8
I17
sg9
g2175
sg10
I12
sg11
(I17
I12
tp2179
sg13
(lp2180
sbsS'z(19, 1)'
p2181
g2
(g3
g4
Ntp2182
Rp2183
(dp2184
g8
I19
sg9
g2181
sg10
I1
sg11
(I19
I1
tp2185
sg13
(lp2186
sbsS'z(9, 7)'
p2187
g2
(g3
g4
Ntp2188
Rp2189
(dp2190
g8
I9
sg9
g2187
sg10
I7
sg11
(I9
I7
tp2191
sg13
(lp2192
sbsS'z(4, 9)'
p2193
g2
(g3
g4
Ntp2194
Rp2195
(dp2196
g8
I4
sg9
g2193
sg10
I9
sg11
(I4
I9
tp2197
sg13
(lp2198
sbsS'z(1, 10)'
p2199
g2
(g3
g4
Ntp2200
Rp2201
(dp2202
g8
I1
sg9
g2199
sg10
I10
sg11
(I1
I10
tp2203
sg13
(lp2204
sbsS'z(19, 17)'
p2205
g2
(g3
g4
Ntp2206
Rp2207
(dp2208
g8
I19
sg9
g2205
sg10
I17
sg11
(I19
I17
tp2209
sg13
(lp2210
sbsS'z(1, 17)'
p2211
g2
(g3
g4
Ntp2212
Rp2213
(dp2214
g8
I1
sg9
g2211
sg10
I17
sg11
(I1
I17
tp2215
sg13
(lp2216
sbsS'z(17, 7)'
p2217
g2
(g3
g4
Ntp2218
Rp2219
(dp2220
g8
I17
sg9
g2217
sg10
I7
sg11
(I17
I7
tp2221
sg13
(lp2222
sbsS'z(13, 14)'
p2223
g2
(g3
g4
Ntp2224
Rp2225
(dp2226
g8
I13
sg9
g2223
sg10
I14
sg11
(I13
I14
tp2227
sg13
(lp2228
sbsS'z(5, 7)'
p2229
g2
(g3
g4
Ntp2230
Rp2231
(dp2232
g8
I5
sg9
g2229
sg10
I7
sg11
(I5
I7
tp2233
sg13
(lp2234
sbsS'z(3, 2)'
p2235
g2
(g3
g4
Ntp2236
Rp2237
(dp2238
g8
I3
sg9
g2235
sg10
I2
sg11
(I3
I2
tp2239
sg13
(lp2240
sbsS'z(2, 1)'
p2241
g2
(g3
g4
Ntp2242
Rp2243
(dp2244
g8
I2
sg9
g2241
sg10
I1
sg11
(I2
I1
tp2245
sg13
(lp2246
sbsS'z(5, 19)'
p2247
g2
(g3
g4
Ntp2248
Rp2249
(dp2250
g8
I5
sg9
g2247
sg10
I19
sg11
(I5
I19
tp2251
sg13
(lp2252
sbsS'z(4, 17)'
p2253
g2
(g3
g4
Ntp2254
Rp2255
(dp2256
g8
I4
sg9
g2253
sg10
I17
sg11
(I4
I17
tp2257
sg13
(lp2258
sbsS'z(15, 14)'
p2259
g2
(g3
g4
Ntp2260
Rp2261
(dp2262
g8
I15
sg9
g2259
sg10
I14
sg11
(I15
I14
tp2263
sg13
(lp2264
sbsS'z(8, 7)'
p2265
g2
(g3
g4
Ntp2266
Rp2267
(dp2268
g8
I8
sg9
g2265
sg10
I7
sg11
(I8
I7
tp2269
sg13
(lp2270
sbsS'z(3, 12)'
p2271
g2
(g3
g4
Ntp2272
Rp2273
(dp2274
g8
I3
sg9
g2271
sg10
I12
sg11
(I3
I12
tp2275
sg13
(lp2276
sbsS'z(2, 8)'
p2277
g2
(g3
g4
Ntp2278
Rp2279
(dp2280
g8
I2
sg9
g2277
sg10
I8
sg11
(I2
I8
tp2281
sg13
(lp2282
sbsS'z(18, 0)'
p2283
g2
(g3
g4
Ntp2284
Rp2285
(dp2286
g8
I18
sg9
g2283
sg10
I0
sg11
(I18
I0
tp2287
sg13
(lp2288
sbsS'z(12, 7)'
p2289
g2
(g3
g4
Ntp2290
Rp2291
(dp2292
g8
I12
sg9
g2289
sg10
I7
sg11
(I12
I7
tp2293
sg13
(lp2294
sbsS'z(10, 4)'
p2295
g2
(g3
g4
Ntp2296
Rp2297
(dp2298
g8
I10
sg9
g2295
sg10
I4
sg11
(I10
I4
tp2299
sg13
(lp2300
sbsS'z(7, 4)'
p2301
g2
(g3
g4
Ntp2302
Rp2303
(dp2304
g8
I7
sg9
g2301
sg10
I4
sg11
(I7
I4
tp2305
sg13
(lp2306
sbsS'z(1, 20)'
p2307
g2
(g3
g4
Ntp2308
Rp2309
(dp2310
g8
I1
sg9
g2307
sg10
I20
sg11
(I1
I20
tp2311
sg13
(lp2312
sbsS'z(5, 12)'
p2313
g2
(g3
g4
Ntp2314
Rp2315
(dp2316
g8
I5
sg9
g2313
sg10
I12
sg11
(I5
I12
tp2317
sg13
(lp2318
sbsS'z(2, 19)'
p2319
g2
(g3
g4
Ntp2320
Rp2321
(dp2322
g8
I2
sg9
g2319
sg10
I19
sg11
(I2
I19
tp2323
sg13
(lp2324
sbsS'z(9, 10)'
p2325
g2
(g3
g4
Ntp2326
Rp2327
(dp2328
g8
I9
sg9
g2325
sg10
I10
sg11
(I9
I10
tp2329
sg13
(lp2330
sbsS'z(12, 16)'
p2331
g2
(g3
g4
Ntp2332
Rp2333
(dp2334
g8
I12
sg9
g2331
sg10
I16
sg11
(I12
I16
tp2335
sg13
(lp2336
sbsS'z(8, 12)'
p2337
g2
(g3
g4
Ntp2338
Rp2339
(dp2340
g8
I8
sg9
g2337
sg10
I12
sg11
(I8
I12
tp2341
sg13
(lp2342
sbsS'z(18, 7)'
p2343
g2
(g3
g4
Ntp2344
Rp2345
(dp2346
g8
I18
sg9
g2343
sg10
I7
sg11
(I18
I7
tp2347
sg13
(lp2348
sbsS'z(16, 5)'
p2349
g2
(g3
g4
Ntp2350
Rp2351
(dp2352
g8
I16
sg9
g2349
sg10
I5
sg11
(I16
I5
tp2353
sg13
(lp2354
sbsS'z(10, 16)'
p2355
g2
(g3
g4
Ntp2356
Rp2357
(dp2358
g8
I10
sg9
g2355
sg10
I16
sg11
(I10
I16
tp2359
sg13
(lp2360
sbsS'z(11, 13)'
p2361
g2
(g3
g4
Ntp2362
Rp2363
(dp2364
g8
I11
sg9
g2361
sg10
I13
sg11
(I11
I13
tp2365
sg13
(lp2366
sbsS'z(9, 8)'
p2367
g2
(g3
g4
Ntp2368
Rp2369
(dp2370
g8
I9
sg9
g2367
sg10
I8
sg11
(I9
I8
tp2371
sg13
(lp2372
sbsS'z(22, 3)'
p2373
g2
(g3
g4
Ntp2374
Rp2375
(dp2376
g8
I22
sg9
g2373
sg10
I3
sg11
(I22
I3
tp2377
sg13
(lp2378
sbsS'z(20, 8)'
p2379
g2
(g3
g4
Ntp2380
Rp2381
(dp2382
g8
I20
sg9
g2379
sg10
I8
sg11
(I20
I8
tp2383
sg13
(lp2384
sbsS'z(9, 20)'
p2385
g2
(g3
g4
Ntp2386
Rp2387
(dp2388
g8
I9
sg9
g2385
sg10
I20
sg11
(I9
I20
tp2389
sg13
(lp2390
sbsS'z(21, 17)'
p2391
g2
(g3
g4
Ntp2392
Rp2393
(dp2394
g8
I21
sg9
g2391
sg10
I17
sg11
(I21
I17
tp2395
sg13
(lp2396
sbsS'z(15, 18)'
p2397
g2
(g3
g4
Ntp2398
Rp2399
(dp2400
g8
I15
sg9
g2397
sg10
I18
sg11
(I15
I18
tp2401
sg13
(lp2402
sbsS'z(1, 0)'
p2403
g2
(g3
g4
Ntp2404
Rp2405
(dp2406
g8
I1
sg9
g2403
sg10
I0
sg11
(I1
I0
tp2407
sg13
(lp2408
sbsS'z(11, 1)'
p2409
g2
(g3
g4
Ntp2410
Rp2411
(dp2412
g8
I11
sg9
g2409
sg10
I1
sg11
(I11
I1
tp2413
sg13
(lp2414
sbsS'z(13, 8)'
p2415
g2
(g3
g4
Ntp2416
Rp2417
(dp2418
g8
I13
sg9
g2415
sg10
I8
sg11
(I13
I8
tp2419
sg13
(lp2420
sbsS'z(20, 7)'
p2421
g2
(g3
g4
Ntp2422
Rp2423
(dp2424
g8
I20
sg9
g2421
sg10
I7
sg11
(I20
I7
tp2425
sg13
(lp2426
sbsS'z(15, 6)'
p2427
g2
(g3
g4
Ntp2428
Rp2429
(dp2430
g8
I15
sg9
g2427
sg10
I6
sg11
(I15
I6
tp2431
sg13
(lp2432
sbsS'z(6, 17)'
p2433
g2
(g3
g4
Ntp2434
Rp2435
(dp2436
g8
I6
sg9
g2433
sg10
I17
sg11
(I6
I17
tp2437
sg13
(lp2438
sbsS'z(22, 17)'
p2439
g2
(g3
g4
Ntp2440
Rp2441
(dp2442
g8
I22
sg9
g2439
sg10
I17
sg11
(I22
I17
tp2443
sg13
(lp2444
sbsS'z(14, 5)'
p2445
g2
(g3
g4
Ntp2446
Rp2447
(dp2448
g8
I14
sg9
g2445
sg10
I5
sg11
(I14
I5
tp2449
sg13
(lp2450
sbsS'z(2, 10)'
p2451
g2
(g3
g4
Ntp2452
Rp2453
(dp2454
g8
I2
sg9
g2451
sg10
I10
sg11
(I2
I10
tp2455
sg13
(lp2456
sbsS'z(11, 8)'
p2457
g2
(g3
g4
Ntp2458
Rp2459
(dp2460
g8
I11
sg9
g2457
sg10
I8
sg11
(I11
I8
tp2461
sg13
(lp2462
sbsS'z(7, 3)'
p2463
g2
(g3
g4
Ntp2464
Rp2465
(dp2466
g8
I7
sg9
g2463
sg10
I3
sg11
(I7
I3
tp2467
sg13
(lp2468
sbsS'z(17, 10)'
p2469
g2
(g3
g4
Ntp2470
Rp2471
(dp2472
g8
I17
sg9
g2469
sg10
I10
sg11
(I17
I10
tp2473
sg13
(lp2474
sbsS'z(20, 13)'
p2475
g2
(g3
g4
Ntp2476
Rp2477
(dp2478
g8
I20
sg9
g2475
sg10
I13
sg11
(I20
I13
tp2479
sg13
(lp2480
sbsS'z(9, 19)'
p2481
g2
(g3
g4
Ntp2482
Rp2483
(dp2484
g8
I9
sg9
g2481
sg10
I19
sg11
(I9
I19
tp2485
sg13
(lp2486
sbsS'z(8, 8)'
p2487
g2
(g3
g4
Ntp2488
Rp2489
(dp2490
g8
I8
sg9
g2487
sg10
I8
sg11
(I8
I8
tp2491
sg13
(lp2492
sbsS'z(15, 8)'
p2493
g2
(g3
g4
Ntp2494
Rp2495
(dp2496
g8
I15
sg9
g2493
sg10
I8
sg11
(I15
I8
tp2497
sg13
(lp2498
sbsS'z(13, 1)'
p2499
g2
(g3
g4
Ntp2500
Rp2501
(dp2502
g8
I13
sg9
g2499
sg10
I1
sg11
(I13
I1
tp2503
sg13
(lp2504
sbsS'z(18, 17)'
p2505
g2
(g3
g4
Ntp2506
Rp2507
(dp2508
g8
I18
sg9
g2505
sg10
I17
sg11
(I18
I17
tp2509
sg13
(lp2510
sbsS'z(3, 19)'
p2511
g2
(g3
g4
Ntp2512
Rp2513
(dp2514
g8
I3
sg9
g2511
sg10
I19
sg11
(I3
I19
tp2515
sg13
(lp2516
sbsS'z(2, 3)'
p2517
g2
(g3
g4
Ntp2518
Rp2519
(dp2520
g8
I2
sg9
g2517
sg10
I3
sg11
(I2
I3
tp2521
sg13
(lp2522
sbsS'z(12, 8)'
p2523
g2
(g3
g4
Ntp2524
Rp2525
(dp2526
g8
I12
sg9
g2523
sg10
I8
sg11
(I12
I8
tp2527
sg13
(lp2528
sbsS'z(6, 2)'
p2529
g2
(g3
g4
Ntp2530
Rp2531
(dp2532
g8
I6
sg9
g2529
sg10
I2
sg11
(I6
I2
tp2533
sg13
(lp2534
sbsS'z(17, 11)'
p2535
g2
(g3
g4
Ntp2536
Rp2537
(dp2538
g8
I17
sg9
g2535
sg10
I11
sg11
(I17
I11
tp2539
sg13
(lp2540
sbsS'z(0, 15)'
p2541
g2
(g3
g4
Ntp2542
Rp2543
(dp2544
g8
I0
sg9
g2541
sg10
I15
sg11
(I0
I15
tp2545
sg13
(lp2546
sbsS'z(19, 6)'
p2547
g2
(g3
g4
Ntp2548
Rp2549
(dp2550
g8
I19
sg9
g2547
sg10
I6
sg11
(I19
I6
tp2551
sg13
(lp2552
sbsS'z(2, 17)'
p2553
g2
(g3
g4
Ntp2554
Rp2555
(dp2556
g8
I2
sg9
g2553
sg10
I17
sg11
(I2
I17
tp2557
sg13
(lp2558
sbsS'z(6, 9)'
p2559
g2
(g3
g4
Ntp2560
Rp2561
(dp2562
g8
I6
sg9
g2559
sg10
I9
sg11
(I6
I9
tp2563
sg13
(lp2564
sbsS'z(7, 13)'
p2565
g2
(g3
g4
Ntp2566
Rp2567
(dp2568
g8
I7
sg9
g2565
sg10
I13
sg11
(I7
I13
tp2569
sg13
(lp2570
sbsS'z(21, 2)'
p2571
g2
(g3
g4
Ntp2572
Rp2573
(dp2574
g8
I21
sg9
g2571
sg10
I2
sg11
(I21
I2
tp2575
sg13
(lp2576
sbsS'z(0, 3)'
p2577
g2
(g3
g4
Ntp2578
Rp2579
(dp2580
g8
I0
sg9
g2577
sg10
I3
sg11
(I0
I3
tp2581
sg13
(lp2582
sbsS'z(22, 8)'
p2583
g2
(g3
g4
Ntp2584
Rp2585
(dp2586
g8
I22
sg9
g2583
sg10
I8
sg11
(I22
I8
tp2587
sg13
(lp2588
sbsS'z(9, 3)'
p2589
g2
(g3
g4
Ntp2590
Rp2591
(dp2592
g8
I9
sg9
g2589
sg10
I3
sg11
(I9
I3
tp2593
sg13
(lp2594
sbsS'z(17, 3)'
p2595
g2
(g3
g4
Ntp2596
Rp2597
(dp2598
g8
I17
sg9
g2595
sg10
I3
sg11
(I17
I3
tp2599
sg13
(lp2600
sbsS'z(4, 5)'
p2601
g2
(g3
g4
Ntp2602
Rp2603
(dp2604
g8
I4
sg9
g2601
sg10
I5
sg11
(I4
I5
tp2605
sg13
(lp2606
sbsS'z(12, 3)'
p2607
g2
(g3
g4
Ntp2608
Rp2609
(dp2610
g8
I12
sg9
g2607
sg10
I3
sg11
(I12
I3
tp2611
sg13
(lp2612
sbsS'z(2, 4)'
p2613
g2
(g3
g4
Ntp2614
Rp2615
(dp2616
g8
I2
sg9
g2613
sg10
I4
sg11
(I2
I4
tp2617
sg13
(lp2618
sbsS'z(16, 18)'
p2619
g2
(g3
g4
Ntp2620
Rp2621
(dp2622
g8
I16
sg9
g2619
sg10
I18
sg11
(I16
I18
tp2623
sg13
(lp2624
sbsS'z(14, 2)'
p2625
g2
(g3
g4
Ntp2626
Rp2627
(dp2628
g8
I14
sg9
g2625
sg10
I2
sg11
(I14
I2
tp2629
sg13
(lp2630
sbsS'z(0, 8)'
p2631
g2
(g3
g4
Ntp2632
Rp2633
(dp2634
g8
I0
sg9
g2631
sg10
I8
sg11
(I0
I8
tp2635
sg13
(lp2636
sbsS'z(13, 13)'
p2637
g2
(g3
g4
Ntp2638
Rp2639
(dp2640
g8
I13
sg9
g2637
sg10
I13
sg11
(I13
I13
tp2641
sg13
(lp2642
sbsS'z(8, 1)'
p2643
g2
(g3
g4
Ntp2644
Rp2645
(dp2646
g8
I8
sg9
g2643
sg10
I1
sg11
(I8
I1
tp2647
sg13
(lp2648
sbsS'z(14, 15)'
p2649
g2
(g3
g4
Ntp2650
Rp2651
(dp2652
g8
I14
sg9
g2649
sg10
I15
sg11
(I14
I15
tp2653
sg13
(lp2654
sbsS'z(3, 16)'
p2655
g2
(g3
g4
Ntp2656
Rp2657
(dp2658
g8
I3
sg9
g2655
sg10
I16
sg11
(I3
I16
tp2659
sg13
(lp2660
sbsS'z(15, 20)'
p2661
g2
(g3
g4
Ntp2662
Rp2663
(dp2664
g8
I15
sg9
g2661
sg10
I20
sg11
(I15
I20
tp2665
sg13
(lp2666
sbsS'z(10, 0)'
p2667
g2
(g3
g4
Ntp2668
Rp2669
(dp2670
g8
I10
sg9
g2667
sg10
I0
sg11
(I10
I0
tp2671
sg13
(lp2672
sbsS'z(16, 10)'
p2673
g2
(g3
g4
Ntp2674
Rp2675
(dp2676
g8
I16
sg9
g2673
sg10
I10
sg11
(I16
I10
tp2677
sg13
(lp2678
sbsS'z(5, 16)'
p2679
g2
(g3
g4
Ntp2680
Rp2681
(dp2682
g8
I5
sg9
g2679
sg10
I16
sg11
(I5
I16
tp2683
sg13
(lp2684
sbsS'z(3, 5)'
p2685
g2
(g3
g4
Ntp2686
Rp2687
(dp2688
g8
I3
sg9
g2685
sg10
I5
sg11
(I3
I5
tp2689
sg13
(lp2690
sbsS'z(8, 11)'
p2691
g2
(g3
g4
Ntp2692
Rp2693
(dp2694
g8
I8
sg9
g2691
sg10
I11
sg11
(I8
I11
tp2695
sg13
(lp2696
sbsS'z(16, 0)'
p2697
g2
(g3
g4
Ntp2698
Rp2699
(dp2700
g8
I16
sg9
g2697
sg10
I0
sg11
(I16
I0
tp2701
sg13
(lp2702
sbsS'z(20, 18)'
p2703
g2
(g3
g4
Ntp2704
Rp2705
(dp2706
g8
I20
sg9
g2703
sg10
I18
sg11
(I20
I18
tp2707
sg13
(lp2708
sbsS'z(4, 13)'
p2709
g2
(g3
g4
Ntp2710
Rp2711
(dp2712
g8
I4
sg9
g2709
sg10
I13
sg11
(I4
I13
tp2713
sg13
(lp2714
sbsS'z(8, 16)'
p2715
g2
(g3
g4
Ntp2716
Rp2717
(dp2718
g8
I8
sg9
g2715
sg10
I16
sg11
(I8
I16
tp2719
sg13
(lp2720
sbsS'z(18, 3)'
p2721
g2
(g3
g4
Ntp2722
Rp2723
(dp2724
g8
I18
sg9
g2721
sg10
I3
sg11
(I18
I3
tp2725
sg13
(lp2726
sbsS'z(10, 15)'
p2727
g2
(g3
g4
Ntp2728
Rp2729
(dp2730
g8
I10
sg9
g2727
sg10
I15
sg11
(I10
I15
tp2731
sg13
(lp2732
sbsS'z(5, 2)'
p2733
g2
(g3
g4
Ntp2734
Rp2735
(dp2736
g8
I5
sg9
g2733
sg10
I2
sg11
(I5
I2
tp2737
sg13
(lp2738
sbsS'z(8, 18)'
p2739
g2
(g3
g4
Ntp2740
Rp2741
(dp2742
g8
I8
sg9
g2739
sg10
I18
sg11
(I8
I18
tp2743
sg13
(lp2744
sbsS'z(1, 4)'
p2745
g2
(g3
g4
Ntp2746
Rp2747
(dp2748
g8
I1
sg9
g2745
sg10
I4
sg11
(I1
I4
tp2749
sg13
(lp2750
sbsS'z(7, 7)'
p2751
g2
(g3
g4
Ntp2752
Rp2753
(dp2754
g8
I7
sg9
g2751
sg10
I7
sg11
(I7
I7
tp2755
sg13
(lp2756
sbsS'z(22, 7)'
p2757
g2
(g3
g4
Ntp2758
Rp2759
(dp2760
g8
I22
sg9
g2757
sg10
I7
sg11
(I22
I7
tp2761
sg13
(lp2762
sbsS'z(20, 4)'
p2763
g2
(g3
g4
Ntp2764
Rp2765
(dp2766
g8
I20
sg9
g2763
sg10
I4
sg11
(I20
I4
tp2767
sg13
(lp2768
sbsS'z(19, 18)'
p2769
g2
(g3
g4
Ntp2770
Rp2771
(dp2772
g8
I19
sg9
g2769
sg10
I18
sg11
(I19
I18
tp2773
sg13
(lp2774
sbsS'z(12, 12)'
p2775
g2
(g3
g4
Ntp2776
Rp2777
(dp2778
g8
I12
sg9
g2775
sg10
I12
sg11
(I12
I12
tp2779
sg13
(lp2780
sbsS'z(10, 13)'
p2781
g2
(g3
g4
Ntp2782
Rp2783
(dp2784
g8
I10
sg9
g2781
sg10
I13
sg11
(I10
I13
tp2785
sg13
(lp2786
sbsS'z(20, 3)'
p2787
g2
(g3
g4
Ntp2788
Rp2789
(dp2790
g8
I20
sg9
g2787
sg10
I3
sg11
(I20
I3
tp2791
sg13
(lp2792
sbsS'z(20, 16)'
p2793
g2
(g3
g4
Ntp2794
Rp2795
(dp2796
g8
I20
sg9
g2793
sg10
I16
sg11
(I20
I16
tp2797
sg13
(lp2798
sbsS'z(10, 7)'
p2799
g2
(g3
g4
Ntp2800
Rp2801
(dp2802
g8
I10
sg9
g2799
sg10
I7
sg11
(I10
I7
tp2803
sg13
(lp2804
sbsS'z(15, 11)'
p2805
g2
(g3
g4
Ntp2806
Rp2807
(dp2808
g8
I15
sg9
g2805
sg10
I11
sg11
(I15
I11
tp2809
sg13
(lp2810
sbsS'z(1, 7)'
p2811
g2
(g3
g4
Ntp2812
Rp2813
(dp2814
g8
I1
sg9
g2811
sg10
I7
sg11
(I1
I7
tp2815
sg13
(lp2816
sbsS'z(16, 13)'
p2817
g2
(g3
g4
Ntp2818
Rp2819
(dp2820
g8
I16
sg9
g2817
sg10
I13
sg11
(I16
I13
tp2821
sg13
(lp2822
sbsS'z(1, 18)'
p2823
g2
(g3
g4
Ntp2824
Rp2825
(dp2826
g8
I1
sg9
g2823
sg10
I18
sg11
(I1
I18
tp2827
sg13
(lp2828
sbsS'z(21, 10)'
p2829
g2
(g3
g4
Ntp2830
Rp2831
(dp2832
g8
I21
sg9
g2829
sg10
I10
sg11
(I21
I10
tp2833
sg13
(lp2834
sbsS'z(0, 7)'
p2835
g2
(g3
g4
Ntp2836
Rp2837
(dp2838
g8
I0
sg9
g2835
sg10
I7
sg11
(I0
I7
tp2839
sg13
(lp2840
sbsS'z(13, 5)'
p2841
g2
(g3
g4
Ntp2842
Rp2843
(dp2844
g8
I13
sg9
g2841
sg10
I5
sg11
(I13
I5
tp2845
sg13
(lp2846
sbsS'z(11, 6)'
p2847
g2
(g3
g4
Ntp2848
Rp2849
(dp2850
g8
I11
sg9
g2847
sg10
I6
sg11
(I11
I6
tp2851
sg13
(lp2852
sbsS'z(0, 20)'
p2853
g2
(g3
g4
Ntp2854
Rp2855
(dp2856
g8
I0
sg9
g2853
sg10
I20
sg11
(I0
I20
tp2857
sg13
(lp2858
sbsS'z(14, 18)'
p2859
g2
(g3
g4
Ntp2860
Rp2861
(dp2862
g8
I14
sg9
g2859
sg10
I18
sg11
(I14
I18
tp2863
sg13
(lp2864
sbsS'z(7, 14)'
p2865
g2
(g3
g4
Ntp2866
Rp2867
(dp2868
g8
I7
sg9
g2865
sg10
I14
sg11
(I7
I14
tp2869
sg13
(lp2870
sbsS'z(15, 3)'
p2871
g2
(g3
g4
Ntp2872
Rp2873
(dp2874
g8
I15
sg9
g2871
sg10
I3
sg11
(I15
I3
tp2875
sg13
(lp2876
sbsS'z(6, 12)'
p2877
g2
(g3
g4
Ntp2878
Rp2879
(dp2880
g8
I6
sg9
g2877
sg10
I12
sg11
(I6
I12
tp2881
sg13
(lp2882
sbsS'z(22, 12)'
p2883
g2
(g3
g4
Ntp2884
Rp2885
(dp2886
g8
I22
sg9
g2883
sg10
I12
sg11
(I22
I12
tp2887
sg13
(lp2888
sbsS'z(2, 13)'
p2889
g2
(g3
g4
Ntp2890
Rp2891
(dp2892
g8
I2
sg9
g2889
sg10
I13
sg11
(I2
I13
tp2893
sg13
(lp2894
sbsS'z(4, 1)'
p2895
g2
(g3
g4
Ntp2896
Rp2897
(dp2898
g8
I4
sg9
g2895
sg10
I1
sg11
(I4
I1
tp2899
sg13
(lp2900
sbsS'z(11, 16)'
p2901
g2
(g3
g4
Ntp2902
Rp2903
(dp2904
g8
I11
sg9
g2901
sg10
I16
sg11
(I11
I16
tp2905
sg13
(lp2906
sbs.