(dp0
S'z(5, 11)'
p1
ccopy_reg
_reconstructor
p2
(c_class
Zone
p3
c__builtin__
object
p4
Ntp5
Rp6
(dp7
S'i'
p8
I5
sS'j'
p9
I11
sS'beacon'
p10
NsS'zid'
p11
g1
sS'coords'
p12
(I5
I11
tp13
sS'landmark'
p14
NsbsS'z(0, 4)'
p15
g2
(g3
g4
Ntp16
Rp17
(dp18
g8
I0
sg9
I4
sg10
Nsg11
g15
sg12
(I0
I4
tp19
sg14
g2
(c_class
Landmark
p20
g4
Ntp21
Rp22
(dp23
S'lid'
p24
S'1010100018'
p25
sS'z'
p26
g17
sbsbsS'z(5, 7)'
p27
g2
(g3
g4
Ntp28
Rp29
(dp30
g8
I5
sg9
I7
sg10
Nsg11
g27
sg12
(I5
I7
tp31
sg14
NsbsS'z(3, 2)'
p32
g2
(g3
g4
Ntp33
Rp34
(dp35
g8
I3
sg9
I2
sg10
Nsg11
g32
sg12
(I3
I2
tp36
sg14
NsbsS'z(0, 10)'
p37
g2
(g3
g4
Ntp38
Rp39
(dp40
g8
I0
sg9
I10
sg10
Nsg11
g37
sg12
(I0
I10
tp41
sg14
NsbsS'z(7, 5)'
p42
g2
(g3
g4
Ntp43
Rp44
(dp45
g8
I7
sg9
I5
sg10
Nsg11
g42
sg12
(I7
I5
tp46
sg14
NsbsS'z(2, 0)'
p47
g2
(g3
g4
Ntp48
Rp49
(dp50
g8
I2
sg9
I0
sg10
Nsg11
g47
sg12
(I2
I0
tp51
sg14
NsbsS'z(1, 6)'
p52
g2
(g3
g4
Ntp53
Rp54
(dp55
g8
I1
sg9
I6
sg10
Nsg11
g52
sg12
(I1
I6
tp56
sg14
NsbsS'z(4, 6)'
p57
g2
(g3
g4
Ntp58
Rp59
(dp60
g8
I4
sg9
I6
sg10
Nsg11
g57
sg12
(I4
I6
tp61
sg14
g2
(g20
g4
Ntp62
Rp63
(dp64
g24
S'1010100007'
p65
sg26
g59
sbsbsS'z(6, 11)'
p66
g2
(g3
g4
Ntp67
Rp68
(dp69
g8
I6
sg9
I11
sg10
Nsg11
g66
sg12
(I6
I11
tp70
sg14
NsbsS'z(6, 6)'
p71
g2
(g3
g4
Ntp72
Rp73
(dp74
g8
I6
sg9
I6
sg10
Nsg11
g71
sg12
(I6
I6
tp75
sg14
g2
(g20
g4
Ntp76
Rp77
(dp78
g24
S'1010100005'
p79
sg26
g73
sbsbsS'z(1, 11)'
p80
g2
(g3
g4
Ntp81
Rp82
(dp83
g8
I1
sg9
I11
sg10
Nsg11
g80
sg12
(I1
I11
tp84
sg14
NsbsS'z(2, 8)'
p85
g2
(g3
g4
Ntp86
Rp87
(dp88
g8
I2
sg9
I8
sg10
Nsg11
g85
sg12
(I2
I8
tp89
sg14
g2
(g20
g4
Ntp90
Rp91
(dp92
g24
S'1010100011'
p93
sg26
g87
sbsbsS'z(3, 9)'
p94
g2
(g3
g4
Ntp95
Rp96
(dp97
g8
I3
sg9
I9
sg10
Nsg11
g94
sg12
(I3
I9
tp98
sg14
NsbsS'z(0, 5)'
p99
g2
(g3
g4
Ntp100
Rp101
(dp102
g8
I0
sg9
I5
sg10
Nsg11
g99
sg12
(I0
I5
tp103
sg14
g2
(g20
g4
Ntp104
Rp105
(dp106
g24
S'1010100017'
p107
sg26
g101
sbsbsS'z(7, 3)'
p108
g2
(g3
g4
Ntp109
Rp110
(dp111
g8
I7
sg9
I3
sg10
Nsg11
g108
sg12
(I7
I3
tp112
sg14
g2
(g20
g4
Ntp113
Rp114
(dp115
g24
S'1010100002'
p116
sg26
g110
sbsbsS'z(5, 6)'
p117
g2
(g3
g4
Ntp118
Rp119
(dp120
g8
I5
sg9
I6
sg10
Nsg11
g117
sg12
(I5
I6
tp121
sg14
g2
(g20
g4
Ntp122
Rp123
(dp124
g24
S'1010100006'
p125
sg26
g119
sbsbsS'z(2, 1)'
p126
g2
(g3
g4
Ntp127
Rp128
(dp129
g8
I2
sg9
I1
sg10
Nsg11
g126
sg12
(I2
I1
tp130
sg14
g2
(g20
g4
Ntp131
Rp132
(dp133
g24
S'1010100038'
p134
sg26
g128
sbsbsS'z(1, 1)'
p135
g2
(g3
g4
Ntp136
Rp137
(dp138
g8
I1
sg9
I1
sg10
Nsg11
g135
sg12
(I1
I1
tp139
sg14
NsbsS'z(6, 0)'
p140
g2
(g3
g4
Ntp141
Rp142
(dp143
g8
I6
sg9
I0
sg10
Nsg11
g140
sg12
(I6
I0
tp144
sg14
NsbsS'z(4, 7)'
p145
g2
(g3
g4
Ntp146
Rp147
(dp148
g8
I4
sg9
I7
sg10
Nsg11
g145
sg12
(I4
I7
tp149
sg14
NsbsS'z(7, 8)'
p150
g2
(g3
g4
Ntp151
Rp152
(dp153
g8
I7
sg9
I8
sg10
Nsg11
g150
sg12
(I7
I8
tp154
sg14
NsbsS'z(6, 10)'
p155
g2
(g3
g4
Ntp156
Rp157
(dp158
g8
I6
sg9
I10
sg10
Nsg11
g155
sg12
(I6
I10
tp159
sg14
NsbsS'z(6, 7)'
p160
g2
(g3
g4
Ntp161
Rp162
(dp163
g8
I6
sg9
I7
sg10
Nsg11
g160
sg12
(I6
I7
tp164
sg14
NsbsS'z(2, 9)'
p165
g2
(g3
g4
Ntp166
Rp167
(dp168
g8
I2
sg9
I9
sg10
Nsg11
g165
sg12
(I2
I9
tp169
sg14
NsbsS'z(1, 9)'
p170
g2
(g3
g4
Ntp171
Rp172
(dp173
g8
I1
sg9
I9
sg10
Nsg11
g170
sg12
(I1
I9
tp174
sg14
NsbsS'z(2, 11)'
p175
g2
(g3
g4
Ntp176
Rp177
(dp178
g8
I2
sg9
I11
sg10
Nsg11
g175
sg12
(I2
I11
tp179
sg14
g2
(g20
g4
Ntp180
Rp181
(dp182
g24
S'1010100012'
p183
sg26
g177
sbsbsS'z(5, 9)'
p184
g2
(g3
g4
Ntp185
Rp186
(dp187
g8
I5
sg9
I9
sg10
Nsg11
g184
sg12
(I5
I9
tp188
sg14
NsbsS'z(2, 2)'
p189
g2
(g3
g4
Ntp190
Rp191
(dp192
g8
I2
sg9
I2
sg10
Nsg11
g189
sg12
(I2
I2
tp193
sg14
NsbsS'z(1, 0)'
p194
g2
(g3
g4
Ntp195
Rp196
(dp197
g8
I1
sg9
I0
sg10
Nsg11
g194
sg12
(I1
I0
tp198
sg14
NsbsS'z(6, 1)'
p199
g2
(g3
g4
Ntp200
Rp201
(dp202
g8
I6
sg9
I1
sg10
Nsg11
g199
sg12
(I6
I1
tp203
sg14
g2
(g20
g4
Ntp204
Rp205
(dp206
g24
S'1010100034'
p207
sg26
g201
sbsbsS'z(4, 4)'
p208
g2
(g3
g4
Ntp209
Rp210
(dp211
g8
I4
sg9
I4
sg10
Nsg11
g208
sg12
(I4
I4
tp212
sg14
g2
(g20
g4
Ntp213
Rp214
(dp215
g24
S'1010100025'
p216
sg26
g210
sbsbsS'z(6, 8)'
p217
g2
(g3
g4
Ntp218
Rp219
(dp220
g8
I6
sg9
I8
sg10
Nsg11
g217
sg12
(I6
I8
tp221
sg14
NsbsS'z(3, 1)'
p222
g2
(g3
g4
Ntp223
Rp224
(dp225
g8
I3
sg9
I1
sg10
Nsg11
g222
sg12
(I3
I1
tp226
sg14
g2
(g20
g4
Ntp227
Rp228
(dp229
g24
S'1010100037'
p230
sg26
g224
sbsbsS'z(1, 8)'
p231
g2
(g3
g4
Ntp232
Rp233
(dp234
g8
I1
sg9
I8
sg10
Nsg11
g231
sg12
(I1
I8
tp235
sg14
g2
(g20
g4
Ntp236
Rp237
(dp238
g24
S'1010100016'
p239
sg26
g233
sbsbsS'z(2, 10)'
p240
g2
(g3
g4
Ntp241
Rp242
(dp243
g8
I2
sg9
I10
sg10
Nsg11
g240
sg12
(I2
I10
tp244
sg14
NsbsS'z(0, 2)'
p245
g2
(g3
g4
Ntp246
Rp247
(dp248
g8
I0
sg9
I2
sg10
Nsg11
g245
sg12
(I0
I2
tp249
sg14
g2
(g20
g4
Ntp250
Rp251
(dp252
g24
S'1010100020'
p253
sg26
g247
sbsbsS'z(7, 6)'
p254
g2
(g3
g4
Ntp255
Rp256
(dp257
g8
I7
sg9
I6
sg10
Nsg11
g254
sg12
(I7
I6
tp258
sg14
g2
(g20
g4
Ntp259
Rp260
(dp261
g24
S'1010100004'
p262
sg26
g256
sbsbsS'z(5, 1)'
p263
g2
(g3
g4
Ntp264
Rp265
(dp266
g8
I5
sg9
I1
sg10
Nsg11
g263
sg12
(I5
I1
tp267
sg14
g2
(g20
g4
Ntp268
Rp269
(dp270
g24
S'1010100035'
p271
sg26
g265
sbsbsS'z(5, 8)'
p272
g2
(g3
g4
Ntp273
Rp274
(dp275
g8
I5
sg9
I8
sg10
Nsg11
g272
sg12
(I5
I8
tp276
sg14
NsbsS'z(2, 3)'
p277
g2
(g3
g4
Ntp278
Rp279
(dp280
g8
I2
sg9
I3
sg10
Nsg11
g277
sg12
(I2
I3
tp281
sg14
NsbsS'z(1, 3)'
p282
g2
(g3
g4
Ntp283
Rp284
(dp285
g8
I1
sg9
I3
sg10
Nsg11
g282
sg12
(I1
I3
tp286
sg14
g2
(g20
g4
Ntp287
Rp288
(dp289
g24
S'1010100022'
p290
sg26
g284
sbsbsS'z(6, 2)'
p291
g2
(g3
g4
Ntp292
Rp293
(dp294
g8
I6
sg9
I2
sg10
Nsg11
g291
sg12
(I6
I2
tp295
sg14
g2
(g20
g4
Ntp296
Rp297
(dp298
g24
S'1010100029'
p299
sg26
g293
sbsbsS'z(3, 7)'
p300
g2
(g3
g4
Ntp301
Rp302
(dp303
g8
I3
sg9
I7
sg10
Nsg11
g300
sg12
(I3
I7
tp304
sg14
NsbsS'z(6, 9)'
p305
g2
(g3
g4
Ntp306
Rp307
(dp308
g8
I6
sg9
I9
sg10
Nsg11
g305
sg12
(I6
I9
tp309
sg14
NsbsS'z(3, 0)'
p310
g2
(g3
g4
Ntp311
Rp312
(dp313
g8
I3
sg9
I0
sg10
Nsg11
g310
sg12
(I3
I0
tp314
sg14
NsbsS'z(7, 9)'
p315
g2
(g3
g4
Ntp316
Rp317
(dp318
g8
I7
sg9
I9
sg10
Nsg11
g315
sg12
(I7
I9
tp319
sg14
NsbsS'z(3, 8)'
p320
g2
(g3
g4
Ntp321
Rp322
(dp323
g8
I3
sg9
I8
sg10
Nsg11
g320
sg12
(I3
I8
tp324
sg14
NsbsS'z(0, 3)'
p325
g2
(g3
g4
Ntp326
Rp327
(dp328
g8
I0
sg9
I3
sg10
Nsg11
g325
sg12
(I0
I3
tp329
sg14
g2
(g20
g4
Ntp330
Rp331
(dp332
g24
S'1010100019'
p333
sg26
g327
sbsbsS'z(3, 11)'
p334
g2
(g3
g4
Ntp335
Rp336
(dp337
g8
I3
sg9
I11
sg10
Nsg11
g334
sg12
(I3
I11
tp338
sg14
NsbsS'z(5, 0)'
p339
g2
(g3
g4
Ntp340
Rp341
(dp342
g8
I5
sg9
I0
sg10
Nsg11
g339
sg12
(I5
I0
tp343
sg14
NsbsS'z(4, 5)'
p344
g2
(g3
g4
Ntp345
Rp346
(dp347
g8
I4
sg9
I5
sg10
Nsg11
g344
sg12
(I4
I5
tp348
sg14
NsbsS'z(2, 4)'
p349
g2
(g3
g4
Ntp350
Rp351
(dp352
g8
I2
sg9
I4
sg10
Nsg11
g349
sg12
(I2
I4
tp353
sg14
g2
(g20
g4
Ntp354
Rp355
(dp356
g24
S'1010100023'
p357
sg26
g351
sbsbsS'z(1, 2)'
p358
g2
(g3
g4
Ntp359
Rp360
(dp361
g8
I1
sg9
I2
sg10
Nsg11
g358
sg12
(I1
I2
tp362
sg14
g2
(g20
g4
Ntp363
Rp364
(dp365
g24
S'1010100021'
p366
sg26
g360
sbsbsS'z(6, 3)'
p367
g2
(g3
g4
Ntp368
Rp369
(dp370
g8
I6
sg9
I3
sg10
Nsg11
g367
sg12
(I6
I3
tp371
sg14
g2
(g20
g4
Ntp372
Rp373
(dp374
g24
S'1010100028'
p375
sg26
g369
sbsbsS'z(3, 6)'
p376
g2
(g3
g4
Ntp377
Rp378
(dp379
g8
I3
sg9
I6
sg10
Nsg11
g376
sg12
(I3
I6
tp380
sg14
g2
(g20
g4
Ntp381
Rp382
(dp383
g24
S'1010100008'
p384
sg26
g378
sbsbsS'z(7, 1)'
p385
g2
(g3
g4
Ntp386
Rp387
(dp388
g8
I7
sg9
I1
sg10
Nsg11
g385
sg12
(I7
I1
tp389
sg14
g2
(g20
g4
Ntp390
Rp391
(dp392
g24
S'1010100033'
p393
sg26
g387
sbsbsS'z(4, 10)'
p394
g2
(g3
g4
Ntp395
Rp396
(dp397
g8
I4
sg9
I10
sg10
Nsg11
g394
sg12
(I4
I10
tp398
sg14
NsbsS'z(0, 8)'
p399
g2
(g3
g4
Ntp400
Rp401
(dp402
g8
I0
sg9
I8
sg10
Nsg11
g399
sg12
(I0
I8
tp403
sg14
NsbsS'z(7, 10)'
p404
g2
(g3
g4
Ntp405
Rp406
(dp407
g8
I7
sg9
I10
sg10
Nsg11
g404
sg12
(I7
I10
tp408
sg14
NsbsS'z(0, 0)'
p409
g2
(g3
g4
Ntp410
Rp411
(dp412
g8
I0
sg9
I0
sg10
Nsg11
g409
sg12
(I0
I0
tp413
sg14
NsbsS'z(5, 3)'
p414
g2
(g3
g4
Ntp415
Rp416
(dp417
g8
I5
sg9
I3
sg10
Nsg11
g414
sg12
(I5
I3
tp418
sg14
g2
(g20
g4
Ntp419
Rp420
(dp421
g24
S'1010100031'
p422
sg26
g416
sbsbsS'z(4, 2)'
p423
g2
(g3
g4
Ntp424
Rp425
(dp426
g8
I4
sg9
I2
sg10
Nsg11
g423
sg12
(I4
I2
tp427
sg14
NsbsS'z(7, 7)'
p428
g2
(g3
g4
Ntp429
Rp430
(dp431
g8
I7
sg9
I7
sg10
Nsg11
g428
sg12
(I7
I7
tp432
sg14
NsbsS'z(2, 5)'
p433
g2
(g3
g4
Ntp434
Rp435
(dp436
g8
I2
sg9
I5
sg10
Nsg11
g433
sg12
(I2
I5
tp437
sg14
g2
(g20
g4
Ntp438
Rp439
(dp440
g24
S'1010100009'
p441
sg26
g435
sbsbsS'z(1, 5)'
p442
g2
(g3
g4
Ntp443
Rp444
(dp445
g8
I1
sg9
I5
sg10
Nsg11
g442
sg12
(I1
I5
tp446
sg14
NsbsS'z(3, 10)'
p447
g2
(g3
g4
Ntp448
Rp449
(dp450
g8
I3
sg9
I10
sg10
Nsg11
g447
sg12
(I3
I10
tp451
sg14
NsbsS'z(7, 0)'
p452
g2
(g3
g4
Ntp453
Rp454
(dp455
g8
I7
sg9
I0
sg10
Nsg11
g452
sg12
(I7
I0
tp456
sg14
g2
(g20
g4
Ntp457
Rp458
(dp459
g24
S'1010100032'
p460
sg26
g454
sbsbsS'z(6, 4)'
p461
g2
(g3
g4
Ntp462
Rp463
(dp464
g8
I6
sg9
I4
sg10
Nsg11
g461
sg12
(I6
I4
tp465
sg14
g2
(g20
g4
Ntp466
Rp467
(dp468
g24
S'1010100027'
p469
sg26
g463
sbsbsS'z(3, 5)'
p470
g2
(g3
g4
Ntp471
Rp472
(dp473
g8
I3
sg9
I5
sg10
Nsg11
g470
sg12
(I3
I5
tp474
sg14
NsbsS'z(4, 11)'
p475
g2
(g3
g4
Ntp476
Rp477
(dp478
g8
I4
sg9
I11
sg10
Nsg11
g475
sg12
(I4
I11
tp479
sg14
NsbsS'z(0, 9)'
p480
g2
(g3
g4
Ntp481
Rp482
(dp483
g8
I0
sg9
I9
sg10
Nsg11
g480
sg12
(I0
I9
tp484
sg14
g2
(g20
g4
Ntp485
Rp486
(dp487
g24
S'1010100014'
p488
sg26
g482
sbsbsS'z(7, 11)'
p489
g2
(g3
g4
Ntp490
Rp491
(dp492
g8
I7
sg9
I11
sg10
Nsg11
g489
sg12
(I7
I11
tp493
sg14
NsbsS'z(5, 2)'
p494
g2
(g3
g4
Ntp495
Rp496
(dp497
g8
I5
sg9
I2
sg10
Nsg11
g494
sg12
(I5
I2
tp498
sg14
g2
(g20
g4
Ntp499
Rp500
(dp501
g24
S'1010100030'
p502
sg26
g496
sbsbsS'z(4, 3)'
p503
g2
(g3
g4
Ntp504
Rp505
(dp506
g8
I4
sg9
I3
sg10
Nsg11
g503
sg12
(I4
I3
tp507
sg14
NsbsS'z(2, 6)'
p508
g2
(g3
g4
Ntp509
Rp510
(dp511
g8
I2
sg9
I6
sg10
Nsg11
g508
sg12
(I2
I6
tp512
sg14
NsbsS'z(1, 4)'
p513
g2
(g3
g4
Ntp514
Rp515
(dp516
g8
I1
sg9
I4
sg10
Nsg11
g513
sg12
(I1
I4
tp517
sg14
NsbsS'z(0, 6)'
p518
g2
(g3
g4
Ntp519
Rp520
(dp521
g8
I0
sg9
I6
sg10
Nsg11
g518
sg12
(I0
I6
tp522
sg14
NsbsS'z(6, 5)'
p523
g2
(g3
g4
Ntp524
Rp525
(dp526
g8
I6
sg9
I5
sg10
Nsg11
g523
sg12
(I6
I5
tp527
sg14
NsbsS'z(7, 4)'
p528
g2
(g3
g4
Ntp529
Rp530
(dp531
g8
I7
sg9
I4
sg10
Nsg11
g528
sg12
(I7
I4
tp532
sg14
g2
(g20
g4
Ntp533
Rp534
(dp535
g24
S'1010100003'
p536
sg26
g530
sbsbsS'z(3, 4)'
p537
g2
(g3
g4
Ntp538
Rp539
(dp540
g8
I3
sg9
I4
sg10
Nsg11
g537
sg12
(I3
I4
tp541
sg14
g2
(g20
g4
Ntp542
Rp543
(dp544
g24
S'1010100024'
p545
sg26
g539
sbsbsS'z(4, 8)'
p546
g2
(g3
g4
Ntp547
Rp548
(dp549
g8
I4
sg9
I8
sg10
Nsg11
g546
sg12
(I4
I8
tp550
sg14
NsbsS'z(5, 5)'
p551
g2
(g3
g4
Ntp552
Rp553
(dp554
g8
I5
sg9
I5
sg10
Nsg11
g551
sg12
(I5
I5
tp555
sg14
NsbsS'z(4, 0)'
p556
g2
(g3
g4
Ntp557
Rp558
(dp559
g8
I4
sg9
I0
sg10
Nsg11
g556
sg12
(I4
I0
tp560
sg14
NsbsS'z(7, 2)'
p561
g2
(g3
g4
Ntp562
Rp563
(dp564
g8
I7
sg9
I2
sg10
Nsg11
g561
sg12
(I7
I2
tp565
sg14
g2
(g20
g4
Ntp566
Rp567
(dp568
g24
S'1010100001'
p569
sg26
g563
sbsbsS'z(1, 7)'
p570
g2
(g3
g4
Ntp571
Rp572
(dp573
g8
I1
sg9
I7
sg10
Nsg11
g570
sg12
(I1
I7
tp574
sg14
NsbsS'z(5, 10)'
p575
g2
(g3
g4
Ntp576
Rp577
(dp578
g8
I5
sg9
I10
sg10
Nsg11
g575
sg12
(I5
I10
tp579
sg14
NsbsS'z(0, 7)'
p580
g2
(g3
g4
Ntp581
Rp582
(dp583
g8
I0
sg9
I7
sg10
Nsg11
g580
sg12
(I0
I7
tp584
sg14
g2
(g20
g4
Ntp585
Rp586
(dp587
g24
S'1010100015'
p588
sg26
g582
sbsbsS'z(0, 11)'
p589
g2
(g3
g4
Ntp590
Rp591
(dp592
g8
I0
sg9
I11
sg10
Nsg11
g589
sg12
(I0
I11
tp593
sg14
NsbsS'z(3, 3)'
p594
g2
(g3
g4
Ntp595
Rp596
(dp597
g8
I3
sg9
I3
sg10
Nsg11
g594
sg12
(I3
I3
tp598
sg14
NsbsS'z(0, 1)'
p599
g2
(g3
g4
Ntp600
Rp601
(dp602
g8
I0
sg9
I1
sg10
Nsg11
g599
sg12
(I0
I1
tp603
sg14
g2
(g20
g4
Ntp604
Rp605
(dp606
g24
S'1010100039'
p607
sg26
g601
sbsbsS'z(2, 7)'
p608
g2
(g3
g4
Ntp609
Rp610
(dp611
g8
I2
sg9
I7
sg10
Nsg11
g608
sg12
(I2
I7
tp612
sg14
g2
(g20
g4
Ntp613
Rp614
(dp615
g24
S'1010100010'
p616
sg26
g610
sbsbsS'z(4, 9)'
p617
g2
(g3
g4
Ntp618
Rp619
(dp620
g8
I4
sg9
I9
sg10
Nsg11
g617
sg12
(I4
I9
tp621
sg14
NsbsS'z(1, 10)'
p622
g2
(g3
g4
Ntp623
Rp624
(dp625
g8
I1
sg9
I10
sg10
Nsg11
g622
sg12
(I1
I10
tp626
sg14
g2
(g20
g4
Ntp627
Rp628
(dp629
g24
S'1010100013'
p630
sg26
g624
sbsbsS'z(5, 4)'
p631
g2
(g3
g4
Ntp632
Rp633
(dp634
g8
I5
sg9
I4
sg10
Nsg11
g631
sg12
(I5
I4
tp635
sg14
g2
(g20
g4
Ntp636
Rp637
(dp638
g24
S'1010100026'
p639
sg26
g633
sbsbsS'z(4, 1)'
p640
g2
(g3
g4
Ntp641
Rp642
(dp643
g8
I4
sg9
I1
sg10
Nsg11
g640
sg12
(I4
I1
tp644
sg14
g2
(g20
g4
Ntp645
Rp646
(dp647
g24
S'1010100036'
p648
sg26
g642
sbsbs.