(dp0
S'z(13, 2)'
p1
ccopy_reg
_reconstructor
p2
(c_class
Zone
p3
c__builtin__
object
p4
Ntp5
Rp6
(dp7
S'i'
p8
I13
sS'j'
p9
I2
sS'beacon'
p10
NsS'zid'
p11
g1
sS'coords'
p12
(I13
I2
tp13
sS'landmark'
p14
NsbsS'z(0, 29)'
p15
g2
(g3
g4
Ntp16
Rp17
(dp18
g8
I0
sg9
I29
sg10
Nsg11
g15
sg12
(I0
I29
tp19
sg14
NsbsS'z(27, 20)'
p20
g2
(g3
g4
Ntp21
Rp22
(dp23
g8
I27
sg9
I20
sg10
Nsg11
g20
sg12
(I27
I20
tp24
sg14
NsbsS'z(14, 11)'
p25
g2
(g3
g4
Ntp26
Rp27
(dp28
g8
I14
sg9
I11
sg10
Nsg11
g25
sg12
(I14
I11
tp29
sg14
NsbsS'z(18, 10)'
p30
g2
(g3
g4
Ntp31
Rp32
(dp33
g8
I18
sg9
I10
sg10
Nsg11
g30
sg12
(I18
I10
tp34
sg14
NsbsS'z(8, 5)'
p35
g2
(g3
g4
Ntp36
Rp37
(dp38
g8
I8
sg9
I5
sg10
Nsg11
g35
sg12
(I8
I5
tp39
sg14
NsbsS'z(18, 8)'
p40
g2
(g3
g4
Ntp41
Rp42
(dp43
g8
I18
sg9
I8
sg10
Nsg11
g40
sg12
(I18
I8
tp44
sg14
NsbsS'z(14, 29)'
p45
g2
(g3
g4
Ntp46
Rp47
(dp48
g8
I14
sg9
I29
sg10
Nsg11
g45
sg12
(I14
I29
tp49
sg14
NsbsS'z(17, 30)'
p50
g2
(g3
g4
Ntp51
Rp52
(dp53
g8
I17
sg9
I30
sg10
Nsg11
g50
sg12
(I17
I30
tp54
sg14
NsbsS'z(28, 29)'
p55
g2
(g3
g4
Ntp56
Rp57
(dp58
g8
I28
sg9
I29
sg10
Nsg11
g55
sg12
(I28
I29
tp59
sg14
NsbsS'z(0, 10)'
p60
g2
(g3
g4
Ntp61
Rp62
(dp63
g8
I0
sg9
I10
sg10
Nsg11
g60
sg12
(I0
I10
tp64
sg14
NsbsS'z(27, 11)'
p65
g2
(g3
g4
Ntp66
Rp67
(dp68
g8
I27
sg9
I11
sg10
Nsg11
g65
sg12
(I27
I11
tp69
sg14
NsbsS'z(15, 17)'
p70
g2
(g3
g4
Ntp71
Rp72
(dp73
g8
I15
sg9
I17
sg10
Nsg11
g70
sg12
(I15
I17
tp74
sg14
NsbsS'z(2, 0)'
p75
g2
(g3
g4
Ntp76
Rp77
(dp78
g8
I2
sg9
I0
sg10
Nsg11
g75
sg12
(I2
I0
tp79
sg14
NsbsS'z(8, 29)'
p80
g2
(g3
g4
Ntp81
Rp82
(dp83
g8
I8
sg9
I29
sg10
Nsg11
g80
sg12
(I8
I29
tp84
sg14
NsbsS'z(4, 6)'
p85
g2
(g3
g4
Ntp86
Rp87
(dp88
g8
I4
sg9
I6
sg10
Nsg11
g85
sg12
(I4
I6
tp89
sg14
g2
(c_class
Landmark
p90
g4
Ntp91
Rp92
(dp93
S'lid'
p94
S'1010200113'
p95
sS'z'
p96
g87
sbsbsS'z(21, 5)'
p97
g2
(g3
g4
Ntp98
Rp99
(dp100
g8
I21
sg9
I5
sg10
Nsg11
g97
sg12
(I21
I5
tp101
sg14
g2
(g90
g4
Ntp102
Rp103
(dp104
g94
S'1010200056'
p105
sg96
g99
sbsbsS'z(27, 18)'
p106
g2
(g3
g4
Ntp107
Rp108
(dp109
g8
I27
sg9
I18
sg10
Nsg11
g106
sg12
(I27
I18
tp110
sg14
NsbsS'z(0, 19)'
p111
g2
(g3
g4
Ntp112
Rp113
(dp114
g8
I0
sg9
I19
sg10
Nsg11
g111
sg12
(I0
I19
tp115
sg14
NsbsS'z(19, 2)'
p116
g2
(g3
g4
Ntp117
Rp118
(dp119
g8
I19
sg9
I2
sg10
Nsg11
g116
sg12
(I19
I2
tp120
sg14
NsbsS'z(6, 6)'
p121
g2
(g3
g4
Ntp122
Rp123
(dp124
g8
I6
sg9
I6
sg10
Nsg11
g121
sg12
(I6
I6
tp125
sg14
g2
(g90
g4
Ntp126
Rp127
(dp128
g94
S'1010200111'
p129
sg96
g123
sbsbsS'z(1, 11)'
p130
g2
(g3
g4
Ntp131
Rp132
(dp133
g8
I1
sg9
I11
sg10
Nsg11
g130
sg12
(I1
I11
tp134
sg14
NsbsS'z(19, 16)'
p135
g2
(g3
g4
Ntp136
Rp137
(dp138
g8
I19
sg9
I16
sg10
Nsg11
g135
sg12
(I19
I16
tp139
sg14
NsbsS'z(17, 4)'
p140
g2
(g3
g4
Ntp141
Rp142
(dp143
g8
I17
sg9
I4
sg10
Nsg11
g140
sg12
(I17
I4
tp144
sg14
g2
(g90
g4
Ntp145
Rp146
(dp147
g94
S'1010200098'
p148
sg96
g142
sbsbsS'z(21, 26)'
p149
g2
(g3
g4
Ntp150
Rp151
(dp152
g8
I21
sg9
I26
sg10
Nsg11
g149
sg12
(I21
I26
tp153
sg14
NsbsS'z(13, 17)'
p154
g2
(g3
g4
Ntp155
Rp156
(dp157
g8
I13
sg9
I17
sg10
Nsg11
g154
sg12
(I13
I17
tp158
sg14
NsbsS'z(27, 27)'
p159
g2
(g3
g4
Ntp160
Rp161
(dp162
g8
I27
sg9
I27
sg10
Nsg11
g159
sg12
(I27
I27
tp163
sg14
NsbsS'z(5, 28)'
p164
g2
(g3
g4
Ntp165
Rp166
(dp167
g8
I5
sg9
I28
sg10
Nsg11
g164
sg12
(I5
I28
tp168
sg14
g2
(g90
g4
Ntp169
Rp170
(dp171
g94
S'1010200019'
p172
sg96
g166
sbsbsS'z(16, 26)'
p173
g2
(g3
g4
Ntp174
Rp175
(dp176
g8
I16
sg9
I26
sg10
Nsg11
g173
sg12
(I16
I26
tp177
sg14
NsbsS'z(26, 3)'
p178
g2
(g3
g4
Ntp179
Rp180
(dp181
g8
I26
sg9
I3
sg10
Nsg11
g178
sg12
(I26
I3
tp182
sg14
g2
(g90
g4
Ntp183
Rp184
(dp185
g94
S'1010200081'
p186
sg96
g180
sbsbsS'z(5, 6)'
p187
g2
(g3
g4
Ntp188
Rp189
(dp190
g8
I5
sg9
I6
sg10
Nsg11
g187
sg12
(I5
I6
tp191
sg14
g2
(g90
g4
Ntp192
Rp193
(dp194
g94
S'1010200112'
p195
sg96
g189
sbsbsS'z(13, 19)'
p196
g2
(g3
g4
Ntp197
Rp198
(dp199
g8
I13
sg9
I19
sg10
Nsg11
g196
sg12
(I13
I19
tp200
sg14
NsbsS'z(11, 29)'
p201
g2
(g3
g4
Ntp202
Rp203
(dp204
g8
I11
sg9
I29
sg10
Nsg11
g201
sg12
(I11
I29
tp205
sg14
NsbsS'z(26, 25)'
p206
g2
(g3
g4
Ntp207
Rp208
(dp209
g8
I26
sg9
I25
sg10
Nsg11
g206
sg12
(I26
I25
tp210
sg14
NsbsS'z(20, 30)'
p211
g2
(g3
g4
Ntp212
Rp213
(dp214
g8
I20
sg9
I30
sg10
Nsg11
g211
sg12
(I20
I30
tp215
sg14
NsbsS'z(21, 21)'
p216
g2
(g3
g4
Ntp217
Rp218
(dp219
g8
I21
sg9
I21
sg10
Nsg11
g216
sg12
(I21
I21
tp220
sg14
NsbsS'z(5, 25)'
p221
g2
(g3
g4
Ntp222
Rp223
(dp224
g8
I5
sg9
I25
sg10
Nsg11
g221
sg12
(I5
I25
tp225
sg14
NsbsS'z(13, 20)'
p226
g2
(g3
g4
Ntp227
Rp228
(dp229
g8
I13
sg9
I20
sg10
Nsg11
g226
sg12
(I13
I20
tp230
sg14
g2
(g90
g4
Ntp231
Rp232
(dp233
g94
S'1010200032'
p234
sg96
g228
sbsbsS'z(24, 22)'
p235
g2
(g3
g4
Ntp236
Rp237
(dp238
g8
I24
sg9
I22
sg10
Nsg11
g235
sg12
(I24
I22
tp239
sg14
NsbsS'z(0, 9)'
p240
g2
(g3
g4
Ntp241
Rp242
(dp243
g8
I0
sg9
I9
sg10
Nsg11
g240
sg12
(I0
I9
tp244
sg14
NsbsS'z(12, 1)'
p245
g2
(g3
g4
Ntp246
Rp247
(dp248
g8
I12
sg9
I1
sg10
Nsg11
g245
sg12
(I12
I1
tp249
sg14
NsbsS'z(14, 16)'
p250
g2
(g3
g4
Ntp251
Rp252
(dp253
g8
I14
sg9
I16
sg10
Nsg11
g250
sg12
(I14
I16
tp254
sg14
NsbsS'z(2, 9)'
p255
g2
(g3
g4
Ntp256
Rp257
(dp258
g8
I2
sg9
I9
sg10
Nsg11
g255
sg12
(I2
I9
tp259
sg14
NsbsS'z(3, 13)'
p260
g2
(g3
g4
Ntp261
Rp262
(dp263
g8
I3
sg9
I13
sg10
Nsg11
g260
sg12
(I3
I13
tp264
sg14
NsbsS'z(17, 14)'
p265
g2
(g3
g4
Ntp266
Rp267
(dp268
g8
I17
sg9
I14
sg10
Nsg11
g265
sg12
(I17
I14
tp269
sg14
g2
(g90
g4
Ntp270
Rp271
(dp272
g94
S'1010200088'
p273
sg96
g267
sbsbsS'z(27, 24)'
p274
g2
(g3
g4
Ntp275
Rp276
(dp277
g8
I27
sg9
I24
sg10
Nsg11
g274
sg12
(I27
I24
tp278
sg14
NsbsS'z(12, 6)'
p279
g2
(g3
g4
Ntp280
Rp281
(dp282
g8
I12
sg9
I6
sg10
Nsg11
g279
sg12
(I12
I6
tp283
sg14
NsbsS'z(14, 20)'
p284
g2
(g3
g4
Ntp285
Rp286
(dp287
g8
I14
sg9
I20
sg10
Nsg11
g284
sg12
(I14
I20
tp288
sg14
NsbsS'z(28, 26)'
p289
g2
(g3
g4
Ntp290
Rp291
(dp292
g8
I28
sg9
I26
sg10
Nsg11
g289
sg12
(I28
I26
tp293
sg14
NsbsS'z(8, 2)'
p294
g2
(g3
g4
Ntp295
Rp296
(dp297
g8
I8
sg9
I2
sg10
Nsg11
g294
sg12
(I8
I2
tp298
sg14
NsbsS'z(15, 25)'
p299
g2
(g3
g4
Ntp300
Rp301
(dp302
g8
I15
sg9
I25
sg10
Nsg11
g299
sg12
(I15
I25
tp303
sg14
g2
(g90
g4
Ntp304
Rp305
(dp306
g94
S'1010200003'
p307
sg96
g301
sbsbsS'z(22, 21)'
p308
g2
(g3
g4
Ntp309
Rp310
(dp311
g8
I22
sg9
I21
sg10
Nsg11
g308
sg12
(I22
I21
tp312
sg14
NsbsS'z(10, 3)'
p313
g2
(g3
g4
Ntp314
Rp315
(dp316
g8
I10
sg9
I3
sg10
Nsg11
g313
sg12
(I10
I3
tp317
sg14
NsbsS'z(28, 12)'
p318
g2
(g3
g4
Ntp319
Rp320
(dp321
g8
I28
sg9
I12
sg10
Nsg11
g318
sg12
(I28
I12
tp322
sg14
NsbsS'z(5, 13)'
p323
g2
(g3
g4
Ntp324
Rp325
(dp326
g8
I5
sg9
I13
sg10
Nsg11
g323
sg12
(I5
I13
tp327
sg14
NsbsS'z(6, 14)'
p328
g2
(g3
g4
Ntp329
Rp330
(dp331
g8
I6
sg9
I14
sg10
Nsg11
g328
sg12
(I6
I14
tp332
sg14
g2
(g90
g4
Ntp333
Rp334
(dp335
g94
S'1010200033'
p336
sg96
g330
sbsbsS'z(15, 15)'
p337
g2
(g3
g4
Ntp338
Rp339
(dp340
g8
I15
sg9
I15
sg10
Nsg11
g337
sg12
(I15
I15
tp341
sg14
NsbsS'z(1, 23)'
p342
g2
(g3
g4
Ntp343
Rp344
(dp345
g8
I1
sg9
I23
sg10
Nsg11
g342
sg12
(I1
I23
tp346
sg14
NsbsS'z(2, 18)'
p347
g2
(g3
g4
Ntp348
Rp349
(dp350
g8
I2
sg9
I18
sg10
Nsg11
g347
sg12
(I2
I18
tp351
sg14
NsbsS'z(4, 19)'
p352
g2
(g3
g4
Ntp353
Rp354
(dp355
g8
I4
sg9
I19
sg10
Nsg11
g352
sg12
(I4
I19
tp356
sg14
NsbsS'z(23, 8)'
p357
g2
(g3
g4
Ntp358
Rp359
(dp360
g8
I23
sg9
I8
sg10
Nsg11
g357
sg12
(I23
I8
tp361
sg14
g2
(g90
g4
Ntp362
Rp363
(dp364
g94
S'1010200058'
p365
sg96
g359
sbsbsS'z(25, 1)'
p366
g2
(g3
g4
Ntp367
Rp368
(dp369
g8
I25
sg9
I1
sg10
Nsg11
g366
sg12
(I25
I1
tp370
sg14
g2
(g90
g4
Ntp371
Rp372
(dp373
g94
S'1010200076'
p374
sg96
g368
sbsbsS'z(28, 4)'
p375
g2
(g3
g4
Ntp376
Rp377
(dp378
g8
I28
sg9
I4
sg10
Nsg11
g375
sg12
(I28
I4
tp379
sg14
g2
(g90
g4
Ntp380
Rp381
(dp382
g94
S'1010200072'
p383
sg96
g377
sbsbsS'z(9, 11)'
p384
g2
(g3
g4
Ntp385
Rp386
(dp387
g8
I9
sg9
I11
sg10
Nsg11
g384
sg12
(I9
I11
tp388
sg14
NsbsS'z(5, 21)'
p389
g2
(g3
g4
Ntp390
Rp391
(dp392
g8
I5
sg9
I21
sg10
Nsg11
g389
sg12
(I5
I21
tp393
sg14
NsbsS'z(18, 21)'
p394
g2
(g3
g4
Ntp395
Rp396
(dp397
g8
I18
sg9
I21
sg10
Nsg11
g394
sg12
(I18
I21
tp398
sg14
NsbsS'z(4, 16)'
p399
g2
(g3
g4
Ntp400
Rp401
(dp402
g8
I4
sg9
I16
sg10
Nsg11
g399
sg12
(I4
I16
tp403
sg14
g2
(g90
g4
Ntp404
Rp405
(dp406
g94
S'1010200024'
p407
sg96
g401
sbsbsS'z(18, 6)'
p408
g2
(g3
g4
Ntp409
Rp410
(dp411
g8
I18
sg9
I6
sg10
Nsg11
g408
sg12
(I18
I6
tp412
sg14
NsbsS'z(28, 3)'
p413
g2
(g3
g4
Ntp414
Rp415
(dp416
g8
I28
sg9
I3
sg10
Nsg11
g413
sg12
(I28
I3
tp417
sg14
NsbsS'z(23, 1)'
p418
g2
(g3
g4
Ntp419
Rp420
(dp421
g8
I23
sg9
I1
sg10
Nsg11
g418
sg12
(I23
I1
tp422
sg14
NsbsS'z(16, 4)'
p423
g2
(g3
g4
Ntp424
Rp425
(dp426
g8
I16
sg9
I4
sg10
Nsg11
g423
sg12
(I16
I4
tp427
sg14
NsbsS'z(13, 29)'
p428
g2
(g3
g4
Ntp429
Rp430
(dp431
g8
I13
sg9
I29
sg10
Nsg11
g428
sg12
(I13
I29
tp432
sg14
g2
(g90
g4
Ntp433
Rp434
(dp435
g94
S'1010200006'
p436
sg96
g430
sbsbsS'z(3, 1)'
p437
g2
(g3
g4
Ntp438
Rp439
(dp440
g8
I3
sg9
I1
sg10
Nsg11
g437
sg12
(I3
I1
tp441
sg14
NsbsS'z(16, 21)'
p442
g2
(g3
g4
Ntp443
Rp444
(dp445
g8
I16
sg9
I21
sg10
Nsg11
g442
sg12
(I16
I21
tp446
sg14
NsbsS'z(22, 30)'
p447
g2
(g3
g4
Ntp448
Rp449
(dp450
g8
I22
sg9
I30
sg10
Nsg11
g447
sg12
(I22
I30
tp451
sg14
NsbsS'z(26, 8)'
p452
g2
(g3
g4
Ntp453
Rp454
(dp455
g8
I26
sg9
I8
sg10
Nsg11
g452
sg12
(I26
I8
tp456
sg14
g2
(g90
g4
Ntp457
Rp458
(dp459
g94
S'1010200082'
p460
sg96
g454
sbsbsS'z(10, 17)'
p461
g2
(g3
g4
Ntp462
Rp463
(dp464
g8
I10
sg9
I17
sg10
Nsg11
g461
sg12
(I10
I17
tp465
sg14
NsbsS'z(24, 8)'
p466
g2
(g3
g4
Ntp467
Rp468
(dp469
g8
I24
sg9
I8
sg10
Nsg11
g466
sg12
(I24
I8
tp470
sg14
NsbsS'z(22, 26)'
p471
g2
(g3
g4
Ntp472
Rp473
(dp474
g8
I22
sg9
I26
sg10
Nsg11
g471
sg12
(I22
I26
tp475
sg14
NsbsS'z(11, 26)'
p476
g2
(g3
g4
Ntp477
Rp478
(dp479
g8
I11
sg9
I26
sg10
Nsg11
g476
sg12
(I11
I26
tp480
sg14
NsbsS'z(5, 1)'
p481
g2
(g3
g4
Ntp482
Rp483
(dp484
g8
I5
sg9
I1
sg10
Nsg11
g481
sg12
(I5
I1
tp485
sg14
NsbsS'z(3, 25)'
p486
g2
(g3
g4
Ntp487
Rp488
(dp489
g8
I3
sg9
I25
sg10
Nsg11
g486
sg12
(I3
I25
tp490
sg14
NsbsS'z(18, 28)'
p491
g2
(g3
g4
Ntp492
Rp493
(dp494
g8
I18
sg9
I28
sg10
Nsg11
g491
sg12
(I18
I28
tp495
sg14
NsbsS'z(4, 22)'
p496
g2
(g3
g4
Ntp497
Rp498
(dp499
g8
I4
sg9
I22
sg10
Nsg11
g496
sg12
(I4
I22
tp500
sg14
g2
(g90
g4
Ntp501
Rp502
(dp503
g94
S'1010200020'
p504
sg96
g498
sbsbsS'z(11, 12)'
p505
g2
(g3
g4
Ntp506
Rp507
(dp508
g8
I11
sg9
I12
sg10
Nsg11
g505
sg12
(I11
I12
tp509
sg14
NsbsS'z(19, 23)'
p510
g2
(g3
g4
Ntp511
Rp512
(dp513
g8
I19
sg9
I23
sg10
Nsg11
g510
sg12
(I19
I23
tp514
sg14
NsbsS'z(12, 18)'
p515
g2
(g3
g4
Ntp516
Rp517
(dp518
g8
I12
sg9
I18
sg10
Nsg11
g515
sg12
(I12
I18
tp519
sg14
NsbsS'z(16, 17)'
p520
g2
(g3
g4
Ntp521
Rp522
(dp523
g8
I16
sg9
I17
sg10
Nsg11
g520
sg12
(I16
I17
tp524
sg14
NsbsS'z(20, 9)'
p525
g2
(g3
g4
Ntp526
Rp527
(dp528
g8
I20
sg9
I9
sg10
Nsg11
g525
sg12
(I20
I9
tp529
sg14
g2
(g90
g4
Ntp530
Rp531
(dp532
g94
S'1010200052'
p533
sg96
g527
sbsbsS'z(22, 0)'
p534
g2
(g3
g4
Ntp535
Rp536
(dp537
g8
I22
sg9
I0
sg10
Nsg11
g534
sg12
(I22
I0
tp538
sg14
NsbsS'z(22, 28)'
p539
g2
(g3
g4
Ntp540
Rp541
(dp542
g8
I22
sg9
I28
sg10
Nsg11
g539
sg12
(I22
I28
tp543
sg14
NsbsS'z(21, 14)'
p544
g2
(g3
g4
Ntp545
Rp546
(dp547
g8
I21
sg9
I14
sg10
Nsg11
g544
sg12
(I21
I14
tp548
sg14
NsbsS'z(27, 7)'
p549
g2
(g3
g4
Ntp550
Rp551
(dp552
g8
I27
sg9
I7
sg10
Nsg11
g549
sg12
(I27
I7
tp553
sg14
NsbsS'z(1, 3)'
p554
g2
(g3
g4
Ntp555
Rp556
(dp557
g8
I1
sg9
I3
sg10
Nsg11
g554
sg12
(I1
I3
tp558
sg14
NsbsS'z(20, 20)'
p559
g2
(g3
g4
Ntp560
Rp561
(dp562
g8
I20
sg9
I20
sg10
Nsg11
g559
sg12
(I20
I20
tp563
sg14
NsbsS'z(10, 25)'
p564
g2
(g3
g4
Ntp565
Rp566
(dp567
g8
I10
sg9
I25
sg10
Nsg11
g564
sg12
(I10
I25
tp568
sg14
NsbsS'z(15, 0)'
p569
g2
(g3
g4
Ntp570
Rp571
(dp572
g8
I15
sg9
I0
sg10
Nsg11
g569
sg12
(I15
I0
tp573
sg14
NsbsS'z(12, 21)'
p574
g2
(g3
g4
Ntp575
Rp576
(dp577
g8
I12
sg9
I21
sg10
Nsg11
g574
sg12
(I12
I21
tp578
sg14
NsbsS'z(1, 24)'
p579
g2
(g3
g4
Ntp580
Rp581
(dp582
g8
I1
sg9
I24
sg10
Nsg11
g579
sg12
(I1
I24
tp583
sg14
NsbsS'z(12, 17)'
p584
g2
(g3
g4
Ntp585
Rp586
(dp587
g8
I12
sg9
I17
sg10
Nsg11
g584
sg12
(I12
I17
tp588
sg14
NsbsS'z(24, 1)'
p589
g2
(g3
g4
Ntp590
Rp591
(dp592
g8
I24
sg9
I1
sg10
Nsg11
g589
sg12
(I24
I1
tp593
sg14
NsbsS'z(22, 18)'
p594
g2
(g3
g4
Ntp595
Rp596
(dp597
g8
I22
sg9
I18
sg10
Nsg11
g594
sg12
(I22
I18
tp598
sg14
NsbsS'z(20, 0)'
p599
g2
(g3
g4
Ntp600
Rp601
(dp602
g8
I20
sg9
I0
sg10
Nsg11
g599
sg12
(I20
I0
tp603
sg14
NsbsS'z(9, 28)'
p604
g2
(g3
g4
Ntp605
Rp606
(dp607
g8
I9
sg9
I28
sg10
Nsg11
g604
sg12
(I9
I28
tp608
sg14
NsbsS'z(6, 24)'
p609
g2
(g3
g4
Ntp610
Rp611
(dp612
g8
I6
sg9
I24
sg10
Nsg11
g609
sg12
(I6
I24
tp613
sg14
NsbsS'z(9, 6)'
p614
g2
(g3
g4
Ntp615
Rp616
(dp617
g8
I9
sg9
I6
sg10
Nsg11
g614
sg12
(I9
I6
tp618
sg14
NsbsS'z(15, 7)'
p619
g2
(g3
g4
Ntp620
Rp621
(dp622
g8
I15
sg9
I7
sg10
Nsg11
g619
sg12
(I15
I7
tp623
sg14
NsbsS'z(6, 16)'
p624
g2
(g3
g4
Ntp625
Rp626
(dp627
g8
I6
sg9
I16
sg10
Nsg11
g624
sg12
(I6
I16
tp628
sg14
g2
(g90
g4
Ntp629
Rp630
(dp631
g94
S'1010200025'
p632
sg96
g626
sbsbsS'z(28, 19)'
p633
g2
(g3
g4
Ntp634
Rp635
(dp636
g8
I28
sg9
I19
sg10
Nsg11
g633
sg12
(I28
I19
tp637
sg14
NsbsS'z(7, 18)'
p638
g2
(g3
g4
Ntp639
Rp640
(dp641
g8
I7
sg9
I18
sg10
Nsg11
g638
sg12
(I7
I18
tp642
sg14
NsbsS'z(25, 12)'
p643
g2
(g3
g4
Ntp644
Rp645
(dp646
g8
I25
sg9
I12
sg10
Nsg11
g643
sg12
(I25
I12
tp647
sg14
NsbsS'z(7, 2)'
p648
g2
(g3
g4
Ntp649
Rp650
(dp651
g8
I7
sg9
I2
sg10
Nsg11
g648
sg12
(I7
I2
tp652
sg14
NsbsS'z(11, 9)'
p653
g2
(g3
g4
Ntp654
Rp655
(dp656
g8
I11
sg9
I9
sg10
Nsg11
g653
sg12
(I11
I9
tp657
sg14
g2
(g90
g4
Ntp658
Rp659
(dp660
g94
S'1010200042'
p661
sg96
g655
sbsbsS'z(25, 8)'
p662
g2
(g3
g4
Ntp663
Rp664
(dp665
g8
I25
sg9
I8
sg10
Nsg11
g662
sg12
(I25
I8
tp666
sg14
g2
(g90
g4
Ntp667
Rp668
(dp669
g94
S'1010200059'
p670
sg96
g664
sbsbsS'z(8, 17)'
p671
g2
(g3
g4
Ntp672
Rp673
(dp674
g8
I8
sg9
I17
sg10
Nsg11
g671
sg12
(I8
I17
tp675
sg14
NsbsS'z(28, 30)'
p676
g2
(g3
g4
Ntp677
Rp678
(dp679
g8
I28
sg9
I30
sg10
Nsg11
g676
sg12
(I28
I30
tp680
sg14
NsbsS'z(25, 24)'
p681
g2
(g3
g4
Ntp682
Rp683
(dp684
g8
I25
sg9
I24
sg10
Nsg11
g681
sg12
(I25
I24
tp685
sg14
NsbsS'z(20, 12)'
p686
g2
(g3
g4
Ntp687
Rp688
(dp689
g8
I20
sg9
I12
sg10
Nsg11
g686
sg12
(I20
I12
tp690
sg14
g2
(g90
g4
Ntp691
Rp692
(dp693
g94
S'1010200083'
p694
sg96
g688
sbsbsS'z(8, 20)'
p695
g2
(g3
g4
Ntp696
Rp697
(dp698
g8
I8
sg9
I20
sg10
Nsg11
g695
sg12
(I8
I20
tp699
sg14
NsbsS'z(15, 9)'
p700
g2
(g3
g4
Ntp701
Rp702
(dp703
g8
I15
sg9
I9
sg10
Nsg11
g700
sg12
(I15
I9
tp704
sg14
g2
(g90
g4
Ntp705
Rp706
(dp707
g94
S'1010200044'
p708
sg96
g702
sbsbsS'z(17, 0)'
p709
g2
(g3
g4
Ntp710
Rp711
(dp712
g8
I17
sg9
I0
sg10
Nsg11
g709
sg12
(I17
I0
tp713
sg14
g2
(g90
g4
Ntp714
Rp715
(dp716
g94
S'1010200096'
p717
sg96
g711
sbsbsS'z(9, 30)'
p718
g2
(g3
g4
Ntp719
Rp720
(dp721
g8
I9
sg9
I30
sg10
Nsg11
g718
sg12
(I9
I30
tp722
sg14
NsbsS'z(5, 26)'
p723
g2
(g3
g4
Ntp724
Rp725
(dp726
g8
I5
sg9
I26
sg10
Nsg11
g723
sg12
(I5
I26
tp727
sg14
g2
(g90
g4
Ntp728
Rp729
(dp730
g94
S'1010200018'
p731
sg96
g725
sbsbsS'z(13, 6)'
p732
g2
(g3
g4
Ntp733
Rp734
(dp735
g8
I13
sg9
I6
sg10
Nsg11
g732
sg12
(I13
I6
tp736
sg14
NsbsS'z(17, 29)'
p737
g2
(g3
g4
Ntp738
Rp739
(dp740
g8
I17
sg9
I29
sg10
Nsg11
g737
sg12
(I17
I29
tp741
sg14
NsbsS'z(18, 14)'
p742
g2
(g3
g4
Ntp743
Rp744
(dp745
g8
I18
sg9
I14
sg10
Nsg11
g742
sg12
(I18
I14
tp746
sg14
NsbsS'z(23, 18)'
p747
g2
(g3
g4
Ntp748
Rp749
(dp750
g8
I23
sg9
I18
sg10
Nsg11
g747
sg12
(I23
I18
tp751
sg14
NsbsS'z(14, 6)'
p752
g2
(g3
g4
Ntp753
Rp754
(dp755
g8
I14
sg9
I6
sg10
Nsg11
g752
sg12
(I14
I6
tp756
sg14
NsbsS'z(4, 26)'
p757
g2
(g3
g4
Ntp758
Rp759
(dp760
g8
I4
sg9
I26
sg10
Nsg11
g757
sg12
(I4
I26
tp761
sg14
NsbsS'z(6, 3)'
p762
g2
(g3
g4
Ntp763
Rp764
(dp765
g8
I6
sg9
I3
sg10
Nsg11
g762
sg12
(I6
I3
tp766
sg14
NsbsS'z(2, 29)'
p767
g2
(g3
g4
Ntp768
Rp769
(dp770
g8
I2
sg9
I29
sg10
Nsg11
g767
sg12
(I2
I29
tp771
sg14
NsbsS'z(0, 14)'
p772
g2
(g3
g4
Ntp773
Rp774
(dp775
g8
I0
sg9
I14
sg10
Nsg11
g772
sg12
(I0
I14
tp776
sg14
NsbsS'z(8, 9)'
p777
g2
(g3
g4
Ntp778
Rp779
(dp780
g8
I8
sg9
I9
sg10
Nsg11
g777
sg12
(I8
I9
tp781
sg14
NsbsS'z(13, 9)'
p782
g2
(g3
g4
Ntp783
Rp784
(dp785
g8
I13
sg9
I9
sg10
Nsg11
g782
sg12
(I13
I9
tp786
sg14
g2
(g90
g4
Ntp787
Rp788
(dp789
g94
S'1010200043'
p790
sg96
g784
sbsbsS'z(2, 16)'
p791
g2
(g3
g4
Ntp792
Rp793
(dp794
g8
I2
sg9
I16
sg10
Nsg11
g791
sg12
(I2
I16
tp795
sg14
NsbsS'z(11, 2)'
p796
g2
(g3
g4
Ntp797
Rp798
(dp799
g8
I11
sg9
I2
sg10
Nsg11
g796
sg12
(I11
I2
tp800
sg14
NsbsS'z(17, 20)'
p801
g2
(g3
g4
Ntp802
Rp803
(dp804
g8
I17
sg9
I20
sg10
Nsg11
g801
sg12
(I17
I20
tp805
sg14
NsbsS'z(0, 24)'
p806
g2
(g3
g4
Ntp807
Rp808
(dp809
g8
I0
sg9
I24
sg10
Nsg11
g806
sg12
(I0
I24
tp810
sg14
NsbsS'z(16, 16)'
p811
g2
(g3
g4
Ntp812
Rp813
(dp814
g8
I16
sg9
I16
sg10
Nsg11
g811
sg12
(I16
I16
tp815
sg14
NsbsS'z(7, 9)'
p816
g2
(g3
g4
Ntp817
Rp818
(dp819
g8
I7
sg9
I9
sg10
Nsg11
g816
sg12
(I7
I9
tp820
sg14
g2
(g90
g4
Ntp821
Rp822
(dp823
g94
S'1010200038'
p824
sg96
g818
sbsbsS'z(27, 14)'
p825
g2
(g3
g4
Ntp826
Rp827
(dp828
g8
I27
sg9
I14
sg10
Nsg11
g825
sg12
(I27
I14
tp829
sg14
NsbsS'z(7, 10)'
p830
g2
(g3
g4
Ntp831
Rp832
(dp833
g8
I7
sg9
I10
sg10
Nsg11
g830
sg12
(I7
I10
tp834
sg14
NsbsS'z(26, 17)'
p835
g2
(g3
g4
Ntp836
Rp837
(dp838
g8
I26
sg9
I17
sg10
Nsg11
g835
sg12
(I26
I17
tp839
sg14
NsbsS'z(0, 0)'
p840
g2
(g3
g4
Ntp841
Rp842
(dp843
g8
I0
sg9
I0
sg10
Nsg11
g840
sg12
(I0
I0
tp844
sg14
NsbsS'z(11, 19)'
p845
g2
(g3
g4
Ntp846
Rp847
(dp848
g8
I11
sg9
I19
sg10
Nsg11
g845
sg12
(I11
I19
tp849
sg14
NsbsS'z(21, 1)'
p850
g2
(g3
g4
Ntp851
Rp852
(dp853
g8
I21
sg9
I1
sg10
Nsg11
g850
sg12
(I21
I1
tp854
sg14
NsbsS'z(17, 19)'
p855
g2
(g3
g4
Ntp856
Rp857
(dp858
g8
I17
sg9
I19
sg10
Nsg11
g855
sg12
(I17
I19
tp859
sg14
NsbsS'z(19, 28)'
p860
g2
(g3
g4
Ntp861
Rp862
(dp863
g8
I19
sg9
I28
sg10
Nsg11
g860
sg12
(I19
I28
tp864
sg14
NsbsS'z(22, 9)'
p865
g2
(g3
g4
Ntp866
Rp867
(dp868
g8
I22
sg9
I9
sg10
Nsg11
g865
sg12
(I22
I9
tp869
sg14
g2
(g90
g4
Ntp870
Rp871
(dp872
g94
S'1010200054'
p873
sg96
g867
sbsbsS'z(22, 24)'
p874
g2
(g3
g4
Ntp875
Rp876
(dp877
g8
I22
sg9
I24
sg10
Nsg11
g874
sg12
(I22
I24
tp878
sg14
NsbsS'z(4, 2)'
p879
g2
(g3
g4
Ntp880
Rp881
(dp882
g8
I4
sg9
I2
sg10
Nsg11
g879
sg12
(I4
I2
tp883
sg14
g2
(g90
g4
Ntp884
Rp885
(dp886
g94
S'1010200118'
p887
sg96
g881
sbsbsS'z(9, 2)'
p888
g2
(g3
g4
Ntp889
Rp890
(dp891
g8
I9
sg9
I2
sg10
Nsg11
g888
sg12
(I9
I2
tp892
sg14
NsbsS'z(19, 12)'
p893
g2
(g3
g4
Ntp894
Rp895
(dp896
g8
I19
sg9
I12
sg10
Nsg11
g893
sg12
(I19
I12
tp897
sg14
g2
(g90
g4
Ntp898
Rp899
(dp900
g94
S'1010200085'
p901
sg96
g895
sbsbsS'z(12, 2)'
p902
g2
(g3
g4
Ntp903
Rp904
(dp905
g8
I12
sg9
I2
sg10
Nsg11
g902
sg12
(I12
I2
tp906
sg14
NsbsS'z(2, 5)'
p907
g2
(g3
g4
Ntp908
Rp909
(dp910
g8
I2
sg9
I5
sg10
Nsg11
g907
sg12
(I2
I5
tp911
sg14
g2
(g90
g4
Ntp912
Rp913
(dp914
g94
S'1010200115'
p915
sg96
g909
sbsbsS'z(17, 27)'
p916
g2
(g3
g4
Ntp917
Rp918
(dp919
g8
I17
sg9
I27
sg10
Nsg11
g916
sg12
(I17
I27
tp920
sg14
NsbsS'z(7, 28)'
p921
g2
(g3
g4
Ntp922
Rp923
(dp924
g8
I7
sg9
I28
sg10
Nsg11
g921
sg12
(I7
I28
tp925
sg14
NsbsS'z(19, 8)'
p926
g2
(g3
g4
Ntp927
Rp928
(dp929
g8
I19
sg9
I8
sg10
Nsg11
g926
sg12
(I19
I8
tp930
sg14
NsbsS'z(3, 27)'
p931
g2
(g3
g4
Ntp932
Rp933
(dp934
g8
I3
sg9
I27
sg10
Nsg11
g931
sg12
(I3
I27
tp935
sg14
NsbsS'z(26, 21)'
p936
g2
(g3
g4
Ntp937
Rp938
(dp939
g8
I26
sg9
I21
sg10
Nsg11
g936
sg12
(I26
I21
tp940
sg14
NsbsS'z(19, 7)'
p941
g2
(g3
g4
Ntp942
Rp943
(dp944
g8
I19
sg9
I7
sg10
Nsg11
g941
sg12
(I19
I7
tp945
sg14
NsbsS'z(16, 19)'
p946
g2
(g3
g4
Ntp947
Rp948
(dp949
g8
I16
sg9
I19
sg10
Nsg11
g946
sg12
(I16
I19
tp950
sg14
NsbsS'z(8, 14)'
p951
g2
(g3
g4
Ntp952
Rp953
(dp954
g8
I8
sg9
I14
sg10
Nsg11
g951
sg12
(I8
I14
tp955
sg14
NsbsS'z(14, 1)'
p956
g2
(g3
g4
Ntp957
Rp958
(dp959
g8
I14
sg9
I1
sg10
Nsg11
g956
sg12
(I14
I1
tp960
sg14
g2
(g90
g4
Ntp961
Rp962
(dp963
g94
S'1010200107'
p964
sg96
g958
sbsbsS'z(9, 5)'
p965
g2
(g3
g4
Ntp966
Rp967
(dp968
g8
I9
sg9
I5
sg10
Nsg11
g965
sg12
(I9
I5
tp969
sg14
NsbsS'z(13, 12)'
p970
g2
(g3
g4
Ntp971
Rp972
(dp973
g8
I13
sg9
I12
sg10
Nsg11
g970
sg12
(I13
I12
tp974
sg14
NsbsS'z(8, 6)'
p975
g2
(g3
g4
Ntp976
Rp977
(dp978
g8
I8
sg9
I6
sg10
Nsg11
g975
sg12
(I8
I6
tp979
sg14
NsbsS'z(26, 28)'
p980
g2
(g3
g4
Ntp981
Rp982
(dp983
g8
I26
sg9
I28
sg10
Nsg11
g980
sg12
(I26
I28
tp984
sg14
NsbsS'z(6, 19)'
p985
g2
(g3
g4
Ntp986
Rp987
(dp988
g8
I6
sg9
I19
sg10
Nsg11
g985
sg12
(I6
I19
tp989
sg14
NsbsS'z(14, 12)'
p990
g2
(g3
g4
Ntp991
Rp992
(dp993
g8
I14
sg9
I12
sg10
Nsg11
g990
sg12
(I14
I12
tp994
sg14
NsbsS'z(3, 17)'
p995
g2
(g3
g4
Ntp996
Rp997
(dp998
g8
I3
sg9
I17
sg10
Nsg11
g995
sg12
(I3
I17
tp999
sg14
NsbsS'z(23, 11)'
p1000
g2
(g3
g4
Ntp1001
Rp1002
(dp1003
g8
I23
sg9
I11
sg10
Nsg11
g1000
sg12
(I23
I11
tp1004
sg14
NsbsS'z(16, 7)'
p1005
g2
(g3
g4
Ntp1006
Rp1007
(dp1008
g8
I16
sg9
I7
sg10
Nsg11
g1005
sg12
(I16
I7
tp1009
sg14
g2
(g90
g4
Ntp1010
Rp1011
(dp1012
g94
S'1010200102'
p1013
sg96
g1007
sbsbsS'z(2, 30)'
p1014
g2
(g3
g4
Ntp1015
Rp1016
(dp1017
g8
I2
sg9
I30
sg10
Nsg11
g1014
sg12
(I2
I30
tp1018
sg14
NsbsS'z(3, 21)'
p1019
g2
(g3
g4
Ntp1020
Rp1021
(dp1022
g8
I3
sg9
I21
sg10
Nsg11
g1019
sg12
(I3
I21
tp1023
sg14
NsbsS'z(15, 21)'
p1024
g2
(g3
g4
Ntp1025
Rp1026
(dp1027
g8
I15
sg9
I21
sg10
Nsg11
g1024
sg12
(I15
I21
tp1028
sg14
NsbsS'z(21, 24)'
p1029
g2
(g3
g4
Ntp1030
Rp1031
(dp1032
g8
I21
sg9
I24
sg10
Nsg11
g1029
sg12
(I21
I24
tp1033
sg14
NsbsS'z(5, 17)'
p1034
g2
(g3
g4
Ntp1035
Rp1036
(dp1037
g8
I5
sg9
I17
sg10
Nsg11
g1034
sg12
(I5
I17
tp1038
sg14
NsbsS'z(3, 4)'
p1039
g2
(g3
g4
Ntp1040
Rp1041
(dp1042
g8
I3
sg9
I4
sg10
Nsg11
g1039
sg12
(I3
I4
tp1043
sg14
NsbsS'z(4, 15)'
p1044
g2
(g3
g4
Ntp1045
Rp1046
(dp1047
g8
I4
sg9
I15
sg10
Nsg11
g1044
sg12
(I4
I15
tp1048
sg14
NsbsS'z(8, 10)'
p1049
g2
(g3
g4
Ntp1050
Rp1051
(dp1052
g8
I8
sg9
I10
sg10
Nsg11
g1049
sg12
(I8
I10
tp1053
sg14
NsbsS'z(25, 5)'
p1054
g2
(g3
g4
Ntp1055
Rp1056
(dp1057
g8
I25
sg9
I5
sg10
Nsg11
g1054
sg12
(I25
I5
tp1058
sg14
NsbsS'z(23, 4)'
p1059
g2
(g3
g4
Ntp1060
Rp1061
(dp1062
g8
I23
sg9
I4
sg10
Nsg11
g1059
sg12
(I23
I4
tp1063
sg14
g2
(g90
g4
Ntp1064
Rp1065
(dp1066
g94
S'1010200079'
p1067
sg96
g1061
sbsbsS'z(9, 27)'
p1068
g2
(g3
g4
Ntp1069
Rp1070
(dp1071
g8
I9
sg9
I27
sg10
Nsg11
g1068
sg12
(I9
I27
tp1072
sg14
NsbsS'z(16, 3)'
p1073
g2
(g3
g4
Ntp1074
Rp1075
(dp1076
g8
I16
sg9
I3
sg10
Nsg11
g1073
sg12
(I16
I3
tp1077
sg14
g2
(g90
g4
Ntp1078
Rp1079
(dp1080
g94
S'1010200104'
p1081
sg96
g1075
sbsbsS'z(4, 12)'
p1082
g2
(g3
g4
Ntp1083
Rp1084
(dp1085
g8
I4
sg9
I12
sg10
Nsg11
g1082
sg12
(I4
I12
tp1086
sg14
NsbsS'z(18, 2)'
p1087
g2
(g3
g4
Ntp1088
Rp1089
(dp1090
g8
I18
sg9
I2
sg10
Nsg11
g1087
sg12
(I18
I2
tp1091
sg14
NsbsS'z(28, 0)'
p1092
g2
(g3
g4
Ntp1093
Rp1094
(dp1095
g8
I28
sg9
I0
sg10
Nsg11
g1092
sg12
(I28
I0
tp1096
sg14
NsbsS'z(14, 23)'
p1097
g2
(g3
g4
Ntp1098
Rp1099
(dp1100
g8
I14
sg9
I23
sg10
Nsg11
g1097
sg12
(I14
I23
tp1101
sg14
NsbsS'z(12, 5)'
p1102
g2
(g3
g4
Ntp1103
Rp1104
(dp1105
g8
I12
sg9
I5
sg10
Nsg11
g1102
sg12
(I12
I5
tp1106
sg14
g2
(g90
g4
Ntp1107
Rp1108
(dp1109
g94
S'1010200109'
p1110
sg96
g1104
sbsbsS'z(5, 5)'
p1111
g2
(g3
g4
Ntp1112
Rp1113
(dp1114
g8
I5
sg9
I5
sg10
Nsg11
g1111
sg12
(I5
I5
tp1115
sg14
g2
(g90
g4
Ntp1116
Rp1117
(dp1118
g94
S'1010200123'
p1119
sg96
g1113
sbsbsS'z(28, 23)'
p1120
g2
(g3
g4
Ntp1121
Rp1122
(dp1123
g8
I28
sg9
I23
sg10
Nsg11
g1120
sg12
(I28
I23
tp1124
sg14
NsbsS'z(6, 29)'
p1125
g2
(g3
g4
Ntp1126
Rp1127
(dp1128
g8
I6
sg9
I29
sg10
Nsg11
g1125
sg12
(I6
I29
tp1129
sg14
NsbsS'z(16, 25)'
p1130
g2
(g3
g4
Ntp1131
Rp1132
(dp1133
g8
I16
sg9
I25
sg10
Nsg11
g1130
sg12
(I16
I25
tp1134
sg14
NsbsS'z(26, 4)'
p1135
g2
(g3
g4
Ntp1136
Rp1137
(dp1138
g8
I26
sg9
I4
sg10
Nsg11
g1135
sg12
(I26
I4
tp1139
sg14
NsbsS'z(1, 26)'
p1140
g2
(g3
g4
Ntp1141
Rp1142
(dp1143
g8
I1
sg9
I26
sg10
Nsg11
g1140
sg12
(I1
I26
tp1144
sg14
NsbsS'z(5, 10)'
p1145
g2
(g3
g4
Ntp1146
Rp1147
(dp1148
g8
I5
sg9
I10
sg10
Nsg11
g1145
sg12
(I5
I10
tp1149
sg14
g2
(g90
g4
Ntp1150
Rp1151
(dp1152
g94
S'1010200036'
p1153
sg96
g1147
sbsbsS'z(7, 6)'
p1154
g2
(g3
g4
Ntp1155
Rp1156
(dp1157
g8
I7
sg9
I6
sg10
Nsg11
g1154
sg12
(I7
I6
tp1158
sg14
NsbsS'z(9, 16)'
p1159
g2
(g3
g4
Ntp1160
Rp1161
(dp1162
g8
I9
sg9
I16
sg10
Nsg11
g1159
sg12
(I9
I16
tp1163
sg14
g2
(g90
g4
Ntp1164
Rp1165
(dp1166
g94
S'1010200027'
p1167
sg96
g1161
sbsbsS'z(20, 29)'
p1168
g2
(g3
g4
Ntp1169
Rp1170
(dp1171
g8
I20
sg9
I29
sg10
Nsg11
g1168
sg12
(I20
I29
tp1172
sg14
NsbsS'z(18, 24)'
p1173
g2
(g3
g4
Ntp1174
Rp1175
(dp1176
g8
I18
sg9
I24
sg10
Nsg11
g1173
sg12
(I18
I24
tp1177
sg14
NsbsS'z(4, 30)'
p1178
g2
(g3
g4
Ntp1179
Rp1180
(dp1181
g8
I4
sg9
I30
sg10
Nsg11
g1178
sg12
(I4
I30
tp1182
sg14
NsbsS'z(19, 27)'
p1183
g2
(g3
g4
Ntp1184
Rp1185
(dp1186
g8
I19
sg9
I27
sg10
Nsg11
g1183
sg12
(I19
I27
tp1187
sg14
NsbsS'z(12, 14)'
p1188
g2
(g3
g4
Ntp1189
Rp1190
(dp1191
g8
I12
sg9
I14
sg10
Nsg11
g1188
sg12
(I12
I14
tp1192
sg14
NsbsS'z(10, 19)'
p1193
g2
(g3
g4
Ntp1194
Rp1195
(dp1196
g8
I10
sg9
I19
sg10
Nsg11
g1193
sg12
(I10
I19
tp1197
sg14
NsbsS'z(20, 5)'
p1198
g2
(g3
g4
Ntp1199
Rp1200
(dp1201
g8
I20
sg9
I5
sg10
Nsg11
g1198
sg12
(I20
I5
tp1202
sg14
NsbsS'z(22, 4)'
p1203
g2
(g3
g4
Ntp1204
Rp1205
(dp1206
g8
I22
sg9
I4
sg10
Nsg11
g1203
sg12
(I22
I4
tp1207
sg14
NsbsS'z(10, 14)'
p1208
g2
(g3
g4
Ntp1209
Rp1210
(dp1211
g8
I10
sg9
I14
sg10
Nsg11
g1208
sg12
(I10
I14
tp1212
sg14
NsbsS'z(21, 18)'
p1213
g2
(g3
g4
Ntp1214
Rp1215
(dp1216
g8
I21
sg9
I18
sg10
Nsg11
g1213
sg12
(I21
I18
tp1217
sg14
NsbsS'z(13, 26)'
p1218
g2
(g3
g4
Ntp1219
Rp1220
(dp1221
g8
I13
sg9
I26
sg10
Nsg11
g1218
sg12
(I13
I26
tp1222
sg14
g2
(g90
g4
Ntp1223
Rp1224
(dp1225
g94
S'1010200009'
p1226
sg96
g1220
sbsbsS'z(15, 19)'
p1227
g2
(g3
g4
Ntp1228
Rp1229
(dp1230
g8
I15
sg9
I19
sg10
Nsg11
g1227
sg12
(I15
I19
tp1231
sg14
NsbsS'z(19, 13)'
p1232
g2
(g3
g4
Ntp1233
Rp1234
(dp1235
g8
I19
sg9
I13
sg10
Nsg11
g1232
sg12
(I19
I13
tp1236
sg14
NsbsS'z(12, 13)'
p1237
g2
(g3
g4
Ntp1238
Rp1239
(dp1240
g8
I12
sg9
I13
sg10
Nsg11
g1237
sg12
(I12
I13
tp1241
sg14
NsbsS'z(10, 10)'
p1242
g2
(g3
g4
Ntp1243
Rp1244
(dp1245
g8
I10
sg9
I10
sg10
Nsg11
g1242
sg12
(I10
I10
tp1246
sg14
NsbsS'z(22, 27)'
p1247
g2
(g3
g4
Ntp1248
Rp1249
(dp1250
g8
I22
sg9
I27
sg10
Nsg11
g1247
sg12
(I22
I27
tp1251
sg14
NsbsS'z(7, 21)'
p1252
g2
(g3
g4
Ntp1253
Rp1254
(dp1255
g8
I7
sg9
I21
sg10
Nsg11
g1252
sg12
(I7
I21
tp1256
sg14
NsbsS'z(22, 23)'
p1257
g2
(g3
g4
Ntp1258
Rp1259
(dp1260
g8
I22
sg9
I23
sg10
Nsg11
g1257
sg12
(I22
I23
tp1261
sg14
NsbsS'z(6, 20)'
p1262
g2
(g3
g4
Ntp1263
Rp1264
(dp1265
g8
I6
sg9
I20
sg10
Nsg11
g1262
sg12
(I6
I20
tp1266
sg14
NsbsS'z(3, 28)'
p1267
g2
(g3
g4
Ntp1268
Rp1269
(dp1270
g8
I3
sg9
I28
sg10
Nsg11
g1267
sg12
(I3
I28
tp1271
sg14
NsbsS'z(15, 26)'
p1272
g2
(g3
g4
Ntp1273
Rp1274
(dp1275
g8
I15
sg9
I26
sg10
Nsg11
g1272
sg12
(I15
I26
tp1276
sg14
NsbsS'z(10, 6)'
p1277
g2
(g3
g4
Ntp1278
Rp1279
(dp1280
g8
I10
sg9
I6
sg10
Nsg11
g1277
sg12
(I10
I6
tp1281
sg14
g2
(g90
g4
Ntp1282
Rp1283
(dp1284
g94
S'1010200041'
p1285
sg96
g1279
sbsbsS'z(28, 15)'
p1286
g2
(g3
g4
Ntp1287
Rp1288
(dp1289
g8
I28
sg9
I15
sg10
Nsg11
g1286
sg12
(I28
I15
tp1290
sg14
NsbsS'z(0, 26)'
p1291
g2
(g3
g4
Ntp1292
Rp1293
(dp1294
g8
I0
sg9
I26
sg10
Nsg11
g1291
sg12
(I0
I26
tp1295
sg14
NsbsS'z(0, 4)'
p1296
g2
(g3
g4
Ntp1297
Rp1298
(dp1299
g8
I0
sg9
I4
sg10
Nsg11
g1296
sg12
(I0
I4
tp1300
sg14
NsbsS'z(1, 19)'
p1301
g2
(g3
g4
Ntp1302
Rp1303
(dp1304
g8
I1
sg9
I19
sg10
Nsg11
g1301
sg12
(I1
I19
tp1305
sg14
NsbsS'z(27, 2)'
p1306
g2
(g3
g4
Ntp1307
Rp1308
(dp1309
g8
I27
sg9
I2
sg10
Nsg11
g1306
sg12
(I27
I2
tp1310
sg14
g2
(g90
g4
Ntp1311
Rp1312
(dp1313
g94
S'1010200073'
p1314
sg96
g1308
sbsbsS'z(21, 11)'
p1315
g2
(g3
g4
Ntp1316
Rp1317
(dp1318
g8
I21
sg9
I11
sg10
Nsg11
g1315
sg12
(I21
I11
tp1319
sg14
NsbsS'z(24, 20)'
p1320
g2
(g3
g4
Ntp1321
Rp1322
(dp1323
g8
I24
sg9
I20
sg10
Nsg11
g1320
sg12
(I24
I20
tp1324
sg14
NsbsS'z(23, 30)'
p1325
g2
(g3
g4
Ntp1326
Rp1327
(dp1328
g8
I23
sg9
I30
sg10
Nsg11
g1325
sg12
(I23
I30
tp1329
sg14
NsbsS'z(27, 29)'
p1330
g2
(g3
g4
Ntp1331
Rp1332
(dp1333
g8
I27
sg9
I29
sg10
Nsg11
g1330
sg12
(I27
I29
tp1334
sg14
NsbsS'z(9, 29)'
p1335
g2
(g3
g4
Ntp1336
Rp1337
(dp1338
g8
I9
sg9
I29
sg10
Nsg11
g1335
sg12
(I9
I29
tp1339
sg14
NsbsS'z(12, 24)'
p1340
g2
(g3
g4
Ntp1341
Rp1342
(dp1343
g8
I12
sg9
I24
sg10
Nsg11
g1340
sg12
(I12
I24
tp1344
sg14
NsbsS'z(19, 17)'
p1345
g2
(g3
g4
Ntp1346
Rp1347
(dp1348
g8
I19
sg9
I17
sg10
Nsg11
g1345
sg12
(I19
I17
tp1349
sg14
NsbsS'z(11, 7)'
p1350
g2
(g3
g4
Ntp1351
Rp1352
(dp1353
g8
I11
sg9
I7
sg10
Nsg11
g1350
sg12
(I11
I7
tp1354
sg14
NsbsS'z(0, 21)'
p1355
g2
(g3
g4
Ntp1356
Rp1357
(dp1358
g8
I0
sg9
I21
sg10
Nsg11
g1355
sg12
(I0
I21
tp1359
sg14
NsbsS'z(17, 25)'
p1360
g2
(g3
g4
Ntp1361
Rp1362
(dp1363
g8
I17
sg9
I25
sg10
Nsg11
g1360
sg12
(I17
I25
tp1364
sg14
NsbsS'z(14, 19)'
p1365
g2
(g3
g4
Ntp1366
Rp1367
(dp1368
g8
I14
sg9
I19
sg10
Nsg11
g1365
sg12
(I14
I19
tp1369
sg14
NsbsS'z(18, 18)'
p1370
g2
(g3
g4
Ntp1371
Rp1372
(dp1373
g8
I18
sg9
I18
sg10
Nsg11
g1370
sg12
(I18
I18
tp1374
sg14
NsbsS'z(1, 6)'
p1375
g2
(g3
g4
Ntp1376
Rp1377
(dp1378
g8
I1
sg9
I6
sg10
Nsg11
g1375
sg12
(I1
I6
tp1379
sg14
NsbsS'z(24, 26)'
p1380
g2
(g3
g4
Ntp1381
Rp1382
(dp1383
g8
I24
sg9
I26
sg10
Nsg11
g1380
sg12
(I24
I26
tp1384
sg14
NsbsS'z(10, 21)'
p1385
g2
(g3
g4
Ntp1386
Rp1387
(dp1388
g8
I10
sg9
I21
sg10
Nsg11
g1385
sg12
(I10
I21
tp1389
sg14
NsbsS'z(15, 4)'
p1390
g2
(g3
g4
Ntp1391
Rp1392
(dp1393
g8
I15
sg9
I4
sg10
Nsg11
g1390
sg12
(I15
I4
tp1394
sg14
NsbsS'z(6, 11)'
p1395
g2
(g3
g4
Ntp1396
Rp1397
(dp1398
g8
I6
sg9
I11
sg10
Nsg11
g1395
sg12
(I6
I11
tp1399
sg14
NsbsS'z(25, 17)'
p1400
g2
(g3
g4
Ntp1401
Rp1402
(dp1403
g8
I25
sg9
I17
sg10
Nsg11
g1400
sg12
(I25
I17
tp1404
sg14
NsbsS'z(22, 15)'
p1405
g2
(g3
g4
Ntp1406
Rp1407
(dp1408
g8
I22
sg9
I15
sg10
Nsg11
g1405
sg12
(I22
I15
tp1409
sg14
NsbsS'z(1, 29)'
p1410
g2
(g3
g4
Ntp1411
Rp1412
(dp1413
g8
I1
sg9
I29
sg10
Nsg11
g1410
sg12
(I1
I29
tp1414
sg14
NsbsS'z(2, 12)'
p1415
g2
(g3
g4
Ntp1416
Rp1417
(dp1418
g8
I2
sg9
I12
sg10
Nsg11
g1415
sg12
(I2
I12
tp1419
sg14
g2
(g90
g4
Ntp1420
Rp1421
(dp1422
g94
S'1010200131'
p1423
sg96
g1417
sbsbsS'z(25, 27)'
p1424
g2
(g3
g4
Ntp1425
Rp1426
(dp1427
g8
I25
sg9
I27
sg10
Nsg11
g1424
sg12
(I25
I27
tp1428
sg14
NsbsS'z(20, 15)'
p1429
g2
(g3
g4
Ntp1430
Rp1431
(dp1432
g8
I20
sg9
I15
sg10
Nsg11
g1429
sg12
(I20
I15
tp1433
sg14
NsbsS'z(26, 11)'
p1434
g2
(g3
g4
Ntp1435
Rp1436
(dp1437
g8
I26
sg9
I11
sg10
Nsg11
g1434
sg12
(I26
I11
tp1438
sg14
NsbsS'z(26, 13)'
p1439
g2
(g3
g4
Ntp1440
Rp1441
(dp1442
g8
I26
sg9
I13
sg10
Nsg11
g1439
sg12
(I26
I13
tp1443
sg14
NsbsS'z(11, 15)'
p1444
g2
(g3
g4
Ntp1445
Rp1446
(dp1447
g8
I11
sg9
I15
sg10
Nsg11
g1444
sg12
(I11
I15
tp1448
sg14
NsbsS'z(24, 16)'
p1449
g2
(g3
g4
Ntp1450
Rp1451
(dp1452
g8
I24
sg9
I16
sg10
Nsg11
g1449
sg12
(I24
I16
tp1453
sg14
NsbsS'z(13, 3)'
p1454
g2
(g3
g4
Ntp1455
Rp1456
(dp1457
g8
I13
sg9
I3
sg10
Nsg11
g1454
sg12
(I13
I3
tp1458
sg14
g2
(g90
g4
Ntp1459
Rp1460
(dp1461
g94
S'1010200108'
p1462
sg96
g1456
sbsbsS'z(6, 26)'
p1463
g2
(g3
g4
Ntp1464
Rp1465
(dp1466
g8
I6
sg9
I26
sg10
Nsg11
g1463
sg12
(I6
I26
tp1467
sg14
NsbsS'z(18, 11)'
p1468
g2
(g3
g4
Ntp1469
Rp1470
(dp1471
g8
I18
sg9
I11
sg10
Nsg11
g1468
sg12
(I18
I11
tp1472
sg14
NsbsS'z(14, 28)'
p1473
g2
(g3
g4
Ntp1474
Rp1475
(dp1476
g8
I14
sg9
I28
sg10
Nsg11
g1473
sg12
(I14
I28
tp1477
sg14
NsbsS'z(27, 12)'
p1478
g2
(g3
g4
Ntp1479
Rp1480
(dp1481
g8
I27
sg9
I12
sg10
Nsg11
g1478
sg12
(I27
I12
tp1482
sg14
NsbsS'z(0, 13)'
p1483
g2
(g3
g4
Ntp1484
Rp1485
(dp1486
g8
I0
sg9
I13
sg10
Nsg11
g1483
sg12
(I0
I13
tp1487
sg14
g2
(g90
g4
Ntp1488
Rp1489
(dp1490
g94
S'1010200134'
p1491
sg96
g1485
sbsbsS'z(19, 4)'
p1492
g2
(g3
g4
Ntp1493
Rp1494
(dp1495
g8
I19
sg9
I4
sg10
Nsg11
g1492
sg12
(I19
I4
tp1496
sg14
NsbsS'z(5, 20)'
p1497
g2
(g3
g4
Ntp1498
Rp1499
(dp1500
g8
I5
sg9
I20
sg10
Nsg11
g1497
sg12
(I5
I20
tp1501
sg14
g2
(g90
g4
Ntp1502
Rp1503
(dp1504
g94
S'1010200022'
p1505
sg96
g1499
sbsbsS'z(6, 0)'
p1506
g2
(g3
g4
Ntp1507
Rp1508
(dp1509
g8
I6
sg9
I0
sg10
Nsg11
g1506
sg12
(I6
I0
tp1510
sg14
NsbsS'z(7, 15)'
p1511
g2
(g3
g4
Ntp1512
Rp1513
(dp1514
g8
I7
sg9
I15
sg10
Nsg11
g1511
sg12
(I7
I15
tp1515
sg14
NsbsS'z(9, 1)'
p1516
g2
(g3
g4
Ntp1517
Rp1518
(dp1519
g8
I9
sg9
I1
sg10
Nsg11
g1516
sg12
(I9
I1
tp1520
sg14
NsbsS'z(4, 7)'
p1521
g2
(g3
g4
Ntp1522
Rp1523
(dp1524
g8
I4
sg9
I7
sg10
Nsg11
g1521
sg12
(I4
I7
tp1525
sg14
g2
(g90
g4
Ntp1526
Rp1527
(dp1528
g94
S'1010200125'
p1529
sg96
g1523
sbsbsS'z(21, 4)'
p1530
g2
(g3
g4
Ntp1531
Rp1532
(dp1533
g8
I21
sg9
I4
sg10
Nsg11
g1530
sg12
(I21
I4
tp1534
sg14
NsbsS'z(0, 18)'
p1535
g2
(g3
g4
Ntp1536
Rp1537
(dp1538
g8
I0
sg9
I18
sg10
Nsg11
g1535
sg12
(I0
I18
tp1539
sg14
NsbsS'z(6, 7)'
p1540
g2
(g3
g4
Ntp1541
Rp1542
(dp1543
g8
I6
sg9
I7
sg10
Nsg11
g1540
sg12
(I6
I7
tp1544
sg14
NsbsS'z(19, 3)'
p1545
g2
(g3
g4
Ntp1546
Rp1547
(dp1548
g8
I19
sg9
I3
sg10
Nsg11
g1545
sg12
(I19
I3
tp1549
sg14
NsbsS'z(27, 21)'
p1550
g2
(g3
g4
Ntp1551
Rp1552
(dp1553
g8
I27
sg9
I21
sg10
Nsg11
g1550
sg12
(I27
I21
tp1554
sg14
NsbsS'z(1, 9)'
p1555
g2
(g3
g4
Ntp1556
Rp1557
(dp1558
g8
I1
sg9
I9
sg10
Nsg11
g1555
sg12
(I1
I9
tp1559
sg14
NsbsS'z(14, 5)'
p1560
g2
(g3
g4
Ntp1561
Rp1562
(dp1563
g8
I14
sg9
I5
sg10
Nsg11
g1560
sg12
(I14
I5
tp1564
sg14
g2
(g90
g4
Ntp1565
Rp1566
(dp1567
g94
S'1010200110'
p1568
sg96
g1562
sbsbsS'z(19, 15)'
p1569
g2
(g3
g4
Ntp1570
Rp1571
(dp1572
g8
I19
sg9
I15
sg10
Nsg11
g1569
sg12
(I19
I15
tp1573
sg14
NsbsS'z(17, 5)'
p1574
g2
(g3
g4
Ntp1575
Rp1576
(dp1577
g8
I17
sg9
I5
sg10
Nsg11
g1574
sg12
(I17
I5
tp1578
sg14
NsbsS'z(9, 22)'
p1579
g2
(g3
g4
Ntp1580
Rp1581
(dp1582
g8
I9
sg9
I22
sg10
Nsg11
g1579
sg12
(I9
I22
tp1583
sg14
g2
(g90
g4
Ntp1584
Rp1585
(dp1586
g94
S'1010200014'
p1587
sg96
g1581
sbsbsS'z(23, 28)'
p1588
g2
(g3
g4
Ntp1589
Rp1590
(dp1591
g8
I23
sg9
I28
sg10
Nsg11
g1588
sg12
(I23
I28
tp1592
sg14
NsbsS'z(13, 16)'
p1593
g2
(g3
g4
Ntp1594
Rp1595
(dp1596
g8
I13
sg9
I16
sg10
Nsg11
g1593
sg12
(I13
I16
tp1597
sg14
g2
(g90
g4
Ntp1598
Rp1599
(dp1600
g94
S'1010200029'
p1601
sg96
g1595
sbsbsS'z(5, 9)'
p1602
g2
(g3
g4
Ntp1603
Rp1604
(dp1605
g8
I5
sg9
I9
sg10
Nsg11
g1602
sg12
(I5
I9
tp1606
sg14
NsbsS'z(15, 10)'
p1607
g2
(g3
g4
Ntp1608
Rp1609
(dp1610
g8
I15
sg9
I10
sg10
Nsg11
g1607
sg12
(I15
I10
tp1611
sg14
NsbsS'z(16, 29)'
p1612
g2
(g3
g4
Ntp1613
Rp1614
(dp1615
g8
I16
sg9
I29
sg10
Nsg11
g1612
sg12
(I16
I29
tp1616
sg14
NsbsS'z(27, 25)'
p1617
g2
(g3
g4
Ntp1618
Rp1619
(dp1620
g8
I27
sg9
I25
sg10
Nsg11
g1617
sg12
(I27
I25
tp1621
sg14
NsbsS'z(26, 0)'
p1622
g2
(g3
g4
Ntp1623
Rp1624
(dp1625
g8
I26
sg9
I0
sg10
Nsg11
g1622
sg12
(I26
I0
tp1626
sg14
NsbsS'z(13, 18)'
p1627
g2
(g3
g4
Ntp1628
Rp1629
(dp1630
g8
I13
sg9
I18
sg10
Nsg11
g1627
sg12
(I13
I18
tp1631
sg14
NsbsS'z(1, 28)'
p1632
g2
(g3
g4
Ntp1633
Rp1634
(dp1635
g8
I1
sg9
I28
sg10
Nsg11
g1632
sg12
(I1
I28
tp1636
sg14
NsbsS'z(26, 26)'
p1637
g2
(g3
g4
Ntp1638
Rp1639
(dp1640
g8
I26
sg9
I26
sg10
Nsg11
g1637
sg12
(I26
I26
tp1641
sg14
NsbsS'z(8, 28)'
p1642
g2
(g3
g4
Ntp1643
Rp1644
(dp1645
g8
I8
sg9
I28
sg10
Nsg11
g1642
sg12
(I8
I28
tp1646
sg14
NsbsS'z(21, 20)'
p1647
g2
(g3
g4
Ntp1648
Rp1649
(dp1650
g8
I21
sg9
I20
sg10
Nsg11
g1647
sg12
(I21
I20
tp1651
sg14
NsbsS'z(4, 21)'
p1652
g2
(g3
g4
Ntp1653
Rp1654
(dp1655
g8
I4
sg9
I21
sg10
Nsg11
g1652
sg12
(I4
I21
tp1656
sg14
NsbsS'z(14, 24)'
p1657
g2
(g3
g4
Ntp1658
Rp1659
(dp1660
g8
I14
sg9
I24
sg10
Nsg11
g1657
sg12
(I14
I24
tp1661
sg14
NsbsS'z(13, 11)'
p1662
g2
(g3
g4
Ntp1663
Rp1664
(dp1665
g8
I13
sg9
I11
sg10
Nsg11
g1662
sg12
(I13
I11
tp1666
sg14
NsbsS'z(23, 15)'
p1667
g2
(g3
g4
Ntp1668
Rp1669
(dp1670
g8
I23
sg9
I15
sg10
Nsg11
g1667
sg12
(I23
I15
tp1671
sg14
NsbsS'z(3, 9)'
p1672
g2
(g3
g4
Ntp1673
Rp1674
(dp1675
g8
I3
sg9
I9
sg10
Nsg11
g1672
sg12
(I3
I9
tp1676
sg14
NsbsS'z(23, 16)'
p1677
g2
(g3
g4
Ntp1678
Rp1679
(dp1680
g8
I23
sg9
I16
sg10
Nsg11
g1677
sg12
(I23
I16
tp1681
sg14
NsbsS'z(3, 10)'
p1682
g2
(g3
g4
Ntp1683
Rp1684
(dp1685
g8
I3
sg9
I10
sg10
Nsg11
g1682
sg12
(I3
I10
tp1686
sg14
NsbsS'z(14, 27)'
p1687
g2
(g3
g4
Ntp1688
Rp1689
(dp1690
g8
I14
sg9
I27
sg10
Nsg11
g1687
sg12
(I14
I27
tp1691
sg14
NsbsS'z(8, 3)'
p1692
g2
(g3
g4
Ntp1693
Rp1694
(dp1695
g8
I8
sg9
I3
sg10
Nsg11
g1692
sg12
(I8
I3
tp1696
sg14
NsbsS'z(28, 27)'
p1697
g2
(g3
g4
Ntp1698
Rp1699
(dp1700
g8
I28
sg9
I27
sg10
Nsg11
g1697
sg12
(I28
I27
tp1701
sg14
NsbsS'z(3, 24)'
p1702
g2
(g3
g4
Ntp1703
Rp1704
(dp1705
g8
I3
sg9
I24
sg10
Nsg11
g1702
sg12
(I3
I24
tp1706
sg14
NsbsS'z(5, 22)'
p1707
g2
(g3
g4
Ntp1708
Rp1709
(dp1710
g8
I5
sg9
I22
sg10
Nsg11
g1707
sg12
(I5
I22
tp1711
sg14
NsbsS'z(15, 22)'
p1712
g2
(g3
g4
Ntp1713
Rp1714
(dp1715
g8
I15
sg9
I22
sg10
Nsg11
g1712
sg12
(I15
I22
tp1716
sg14
g2
(g90
g4
Ntp1717
Rp1718
(dp1719
g94
S'1010200001'
p1720
sg96
g1714
sbsbsS'z(10, 2)'
p1721
g2
(g3
g4
Ntp1722
Rp1723
(dp1724
g8
I10
sg9
I2
sg10
Nsg11
g1721
sg12
(I10
I2
tp1725
sg14
NsbsS'z(21, 27)'
p1726
g2
(g3
g4
Ntp1727
Rp1728
(dp1729
g8
I21
sg9
I27
sg10
Nsg11
g1726
sg12
(I21
I27
tp1730
sg14
NsbsS'z(2, 20)'
p1731
g2
(g3
g4
Ntp1732
Rp1733
(dp1734
g8
I2
sg9
I20
sg10
Nsg11
g1731
sg12
(I2
I20
tp1735
sg14
NsbsS'z(28, 11)'
p1736
g2
(g3
g4
Ntp1737
Rp1738
(dp1739
g8
I28
sg9
I11
sg10
Nsg11
g1736
sg12
(I28
I11
tp1740
sg14
NsbsS'z(1, 22)'
p1741
g2
(g3
g4
Ntp1742
Rp1743
(dp1744
g8
I1
sg9
I22
sg10
Nsg11
g1741
sg12
(I1
I22
tp1745
sg14
NsbsS'z(5, 14)'
p1746
g2
(g3
g4
Ntp1747
Rp1748
(dp1749
g8
I5
sg9
I14
sg10
Nsg11
g1746
sg12
(I5
I14
tp1750
sg14
NsbsS'z(4, 18)'
p1751
g2
(g3
g4
Ntp1752
Rp1753
(dp1754
g8
I4
sg9
I18
sg10
Nsg11
g1751
sg12
(I4
I18
tp1755
sg14
NsbsS'z(25, 0)'
p1756
g2
(g3
g4
Ntp1757
Rp1758
(dp1759
g8
I25
sg9
I0
sg10
Nsg11
g1756
sg12
(I25
I0
tp1760
sg14
NsbsS'z(28, 5)'
p1761
g2
(g3
g4
Ntp1762
Rp1763
(dp1764
g8
I28
sg9
I5
sg10
Nsg11
g1761
sg12
(I28
I5
tp1765
sg14
NsbsS'z(20, 28)'
p1766
g2
(g3
g4
Ntp1767
Rp1768
(dp1769
g8
I20
sg9
I28
sg10
Nsg11
g1766
sg12
(I20
I28
tp1770
sg14
NsbsS'z(24, 25)'
p1771
g2
(g3
g4
Ntp1772
Rp1773
(dp1774
g8
I24
sg9
I25
sg10
Nsg11
g1771
sg12
(I24
I25
tp1775
sg14
NsbsS'z(6, 15)'
p1776
g2
(g3
g4
Ntp1777
Rp1778
(dp1779
g8
I6
sg9
I15
sg10
Nsg11
g1776
sg12
(I6
I15
tp1780
sg14
NsbsS'z(9, 12)'
p1781
g2
(g3
g4
Ntp1782
Rp1783
(dp1784
g8
I9
sg9
I12
sg10
Nsg11
g1781
sg12
(I9
I12
tp1785
sg14
NsbsS'z(18, 20)'
p1786
g2
(g3
g4
Ntp1787
Rp1788
(dp1789
g8
I18
sg9
I20
sg10
Nsg11
g1786
sg12
(I18
I20
tp1790
sg14
NsbsS'z(3, 7)'
p1791
g2
(g3
g4
Ntp1792
Rp1793
(dp1794
g8
I3
sg9
I7
sg10
Nsg11
g1791
sg12
(I3
I7
tp1795
sg14
NsbsS'z(17, 15)'
p1796
g2
(g3
g4
Ntp1797
Rp1798
(dp1799
g8
I17
sg9
I15
sg10
Nsg11
g1796
sg12
(I17
I15
tp1800
sg14
NsbsS'z(4, 11)'
p1801
g2
(g3
g4
Ntp1802
Rp1803
(dp1804
g8
I4
sg9
I11
sg10
Nsg11
g1801
sg12
(I4
I11
tp1805
sg14
NsbsS'z(23, 0)'
p1806
g2
(g3
g4
Ntp1807
Rp1808
(dp1809
g8
I23
sg9
I0
sg10
Nsg11
g1806
sg12
(I23
I0
tp1810
sg14
NsbsS'z(18, 5)'
p1811
g2
(g3
g4
Ntp1812
Rp1813
(dp1814
g8
I18
sg9
I5
sg10
Nsg11
g1811
sg12
(I18
I5
tp1815
sg14
NsbsS'z(13, 23)'
p1816
g2
(g3
g4
Ntp1817
Rp1818
(dp1819
g8
I13
sg9
I23
sg10
Nsg11
g1816
sg12
(I13
I23
tp1820
sg14
g2
(g90
g4
Ntp1821
Rp1822
(dp1823
g94
S'1010200011'
p1824
sg96
g1818
sbsbsS'z(3, 0)'
p1825
g2
(g3
g4
Ntp1826
Rp1827
(dp1828
g8
I3
sg9
I0
sg10
Nsg11
g1825
sg12
(I3
I0
tp1829
sg14
NsbsS'z(4, 25)'
p1830
g2
(g3
g4
Ntp1831
Rp1832
(dp1833
g8
I4
sg9
I25
sg10
Nsg11
g1830
sg12
(I4
I25
tp1834
sg14
NsbsS'z(9, 18)'
p1835
g2
(g3
g4
Ntp1836
Rp1837
(dp1838
g8
I9
sg9
I18
sg10
Nsg11
g1835
sg12
(I9
I18
tp1839
sg14
NsbsS'z(14, 30)'
p1840
g2
(g3
g4
Ntp1841
Rp1842
(dp1843
g8
I14
sg9
I30
sg10
Nsg11
g1840
sg12
(I14
I30
tp1844
sg14
NsbsS'z(6, 25)'
p1845
g2
(g3
g4
Ntp1846
Rp1847
(dp1848
g8
I6
sg9
I25
sg10
Nsg11
g1845
sg12
(I6
I25
tp1849
sg14
NsbsS'z(16, 20)'
p1850
g2
(g3
g4
Ntp1851
Rp1852
(dp1853
g8
I16
sg9
I20
sg10
Nsg11
g1850
sg12
(I16
I20
tp1854
sg14
NsbsS'z(26, 9)'
p1855
g2
(g3
g4
Ntp1856
Rp1857
(dp1858
g8
I26
sg9
I9
sg10
Nsg11
g1855
sg12
(I26
I9
tp1859
sg14
NsbsS'z(2, 24)'
p1860
g2
(g3
g4
Ntp1861
Rp1862
(dp1863
g8
I2
sg9
I24
sg10
Nsg11
g1860
sg12
(I2
I24
tp1864
sg14
g2
(g90
g4
Ntp1865
Rp1866
(dp1867
g94
S'1010200141'
p1868
sg96
g1862
sbsbsS'z(24, 9)'
p1869
g2
(g3
g4
Ntp1870
Rp1871
(dp1872
g8
I24
sg9
I9
sg10
Nsg11
g1869
sg12
(I24
I9
tp1873
sg14
g2
(g90
g4
Ntp1874
Rp1875
(dp1876
g94
S'1010200055'
p1877
sg96
g1871
sbsbsS'z(7, 26)'
p1878
g2
(g3
g4
Ntp1879
Rp1880
(dp1881
g8
I7
sg9
I26
sg10
Nsg11
g1878
sg12
(I7
I26
tp1882
sg14
NsbsS'z(5, 0)'
p1883
g2
(g3
g4
Ntp1884
Rp1885
(dp1886
g8
I5
sg9
I0
sg10
Nsg11
g1883
sg12
(I5
I0
tp1887
sg14
NsbsS'z(11, 27)'
p1888
g2
(g3
g4
Ntp1889
Rp1890
(dp1891
g8
I11
sg9
I27
sg10
Nsg11
g1888
sg12
(I11
I27
tp1892
sg14
NsbsS'z(16, 9)'
p1893
g2
(g3
g4
Ntp1894
Rp1895
(dp1896
g8
I16
sg9
I9
sg10
Nsg11
g1893
sg12
(I16
I9
tp1897
sg14
g2
(g90
g4
Ntp1898
Rp1899
(dp1900
g94
S'1010200049'
p1901
sg96
g1895
sbsbsS'z(20, 11)'
p1902
g2
(g3
g4
Ntp1903
Rp1904
(dp1905
g8
I20
sg9
I11
sg10
Nsg11
g1902
sg12
(I20
I11
tp1906
sg14
NsbsS'z(18, 27)'
p1907
g2
(g3
g4
Ntp1908
Rp1909
(dp1910
g8
I18
sg9
I27
sg10
Nsg11
g1907
sg12
(I18
I27
tp1911
sg14
NsbsS'z(11, 11)'
p1912
g2
(g3
g4
Ntp1913
Rp1914
(dp1915
g8
I11
sg9
I11
sg10
Nsg11
g1912
sg12
(I11
I11
tp1916
sg14
NsbsS'z(21, 9)'
p1917
g2
(g3
g4
Ntp1918
Rp1919
(dp1920
g8
I21
sg9
I9
sg10
Nsg11
g1917
sg12
(I21
I9
tp1921
sg14
g2
(g90
g4
Ntp1922
Rp1923
(dp1924
g94
S'1010200053'
p1925
sg96
g1919
sbsbsS'z(19, 20)'
p1926
g2
(g3
g4
Ntp1927
Rp1928
(dp1929
g8
I19
sg9
I20
sg10
Nsg11
g1926
sg12
(I19
I20
tp1930
sg14
NsbsS'z(12, 19)'
p1931
g2
(g3
g4
Ntp1932
Rp1933
(dp1934
g8
I12
sg9
I19
sg10
Nsg11
g1931
sg12
(I12
I19
tp1935
sg14
NsbsS'z(22, 1)'
p1936
g2
(g3
g4
Ntp1937
Rp1938
(dp1939
g8
I22
sg9
I1
sg10
Nsg11
g1936
sg12
(I22
I1
tp1940
sg14
NsbsS'z(23, 26)'
p1941
g2
(g3
g4
Ntp1942
Rp1943
(dp1944
g8
I23
sg9
I26
sg10
Nsg11
g1941
sg12
(I23
I26
tp1945
sg14
NsbsS'z(1, 2)'
p1946
g2
(g3
g4
Ntp1947
Rp1948
(dp1949
g8
I1
sg9
I2
sg10
Nsg11
g1946
sg12
(I1
I2
tp1950
sg14
NsbsS'z(27, 6)'
p1951
g2
(g3
g4
Ntp1952
Rp1953
(dp1954
g8
I27
sg9
I6
sg10
Nsg11
g1951
sg12
(I27
I6
tp1955
sg14
NsbsS'z(21, 15)'
p1956
g2
(g3
g4
Ntp1957
Rp1958
(dp1959
g8
I21
sg9
I15
sg10
Nsg11
g1956
sg12
(I21
I15
tp1960
sg14
NsbsS'z(10, 24)'
p1961
g2
(g3
g4
Ntp1962
Rp1963
(dp1964
g8
I10
sg9
I24
sg10
Nsg11
g1961
sg12
(I10
I24
tp1965
sg14
NsbsS'z(15, 1)'
p1966
g2
(g3
g4
Ntp1967
Rp1968
(dp1969
g8
I15
sg9
I1
sg10
Nsg11
g1966
sg12
(I15
I1
tp1970
sg14
g2
(g90
g4
Ntp1971
Rp1972
(dp1973
g94
S'1010200105'
p1974
sg96
g1968
sbsbsS'z(17, 8)'
p1975
g2
(g3
g4
Ntp1976
Rp1977
(dp1978
g8
I17
sg9
I8
sg10
Nsg11
g1975
sg12
(I17
I8
tp1979
sg14
NsbsS'z(23, 23)'
p1980
g2
(g3
g4
Ntp1981
Rp1982
(dp1983
g8
I23
sg9
I23
sg10
Nsg11
g1980
sg12
(I23
I23
tp1984
sg14
NsbsS'z(12, 20)'
p1985
g2
(g3
g4
Ntp1986
Rp1987
(dp1988
g8
I12
sg9
I20
sg10
Nsg11
g1985
sg12
(I12
I20
tp1989
sg14
NsbsS'z(1, 16)'
p1990
g2
(g3
g4
Ntp1991
Rp1992
(dp1993
g8
I1
sg9
I16
sg10
Nsg11
g1990
sg12
(I1
I16
tp1994
sg14
NsbsS'z(12, 10)'
p1995
g2
(g3
g4
Ntp1996
Rp1997
(dp1998
g8
I12
sg9
I10
sg10
Nsg11
g1995
sg12
(I12
I10
tp1999
sg14
NsbsS'z(20, 1)'
p2000
g2
(g3
g4
Ntp2001
Rp2002
(dp2003
g8
I20
sg9
I1
sg10
Nsg11
g2000
sg12
(I20
I1
tp2004
sg14
NsbsS'z(24, 2)'
p2005
g2
(g3
g4
Ntp2006
Rp2007
(dp2008
g8
I24
sg9
I2
sg10
Nsg11
g2005
sg12
(I24
I2
tp2009
sg14
g2
(g90
g4
Ntp2010
Rp2011
(dp2012
g94
S'1010200078'
p2013
sg96
g2007
sbsbsS'z(22, 20)'
p2014
g2
(g3
g4
Ntp2015
Rp2016
(dp2017
g8
I22
sg9
I20
sg10
Nsg11
g2014
sg12
(I22
I20
tp2018
sg14
NsbsS'z(9, 21)'
p2019
g2
(g3
g4
Ntp2020
Rp2021
(dp2022
g8
I9
sg9
I21
sg10
Nsg11
g2019
sg12
(I9
I21
tp2023
sg14
NsbsS'z(7, 1)'
p2024
g2
(g3
g4
Ntp2025
Rp2026
(dp2027
g8
I7
sg9
I1
sg10
Nsg11
g2024
sg12
(I7
I1
tp2028
sg14
NsbsS'z(27, 22)'
p2029
g2
(g3
g4
Ntp2030
Rp2031
(dp2032
g8
I27
sg9
I22
sg10
Nsg11
g2029
sg12
(I27
I22
tp2033
sg14
NsbsS'z(10, 9)'
p2034
g2
(g3
g4
Ntp2035
Rp2036
(dp2037
g8
I10
sg9
I9
sg10
Nsg11
g2034
sg12
(I10
I9
tp2038
sg14
NsbsS'z(12, 29)'
p2039
g2
(g3
g4
Ntp2040
Rp2041
(dp2042
g8
I12
sg9
I29
sg10
Nsg11
g2039
sg12
(I12
I29
tp2043
sg14
g2
(g90
g4
Ntp2044
Rp2045
(dp2046
g94
S'1010200007'
p2047
sg96
g2041
sbsbsS'z(28, 18)'
p2048
g2
(g3
g4
Ntp2049
Rp2050
(dp2051
g8
I28
sg9
I18
sg10
Nsg11
g2048
sg12
(I28
I18
tp2052
sg14
NsbsS'z(25, 13)'
p2053
g2
(g3
g4
Ntp2054
Rp2055
(dp2056
g8
I25
sg9
I13
sg10
Nsg11
g2053
sg12
(I25
I13
tp2057
sg14
g2
(g90
g4
Ntp2058
Rp2059
(dp2060
g94
S'1010200067'
p2061
sg96
g2055
sbsbsS'z(15, 13)'
p2062
g2
(g3
g4
Ntp2063
Rp2064
(dp2065
g8
I15
sg9
I13
sg10
Nsg11
g2062
sg12
(I15
I13
tp2066
sg14
NsbsS'z(1, 25)'
p2067
g2
(g3
g4
Ntp2068
Rp2069
(dp2070
g8
I1
sg9
I25
sg10
Nsg11
g2067
sg12
(I1
I25
tp2071
sg14
NsbsS'z(8, 0)'
p2072
g2
(g3
g4
Ntp2073
Rp2074
(dp2075
g8
I8
sg9
I0
sg10
Nsg11
g2072
sg12
(I8
I0
tp2076
sg14
NsbsS'z(21, 12)'
p2077
g2
(g3
g4
Ntp2078
Rp2079
(dp2080
g8
I21
sg9
I12
sg10
Nsg11
g2077
sg12
(I21
I12
tp2081
sg14
NsbsS'z(27, 1)'
p2082
g2
(g3
g4
Ntp2083
Rp2084
(dp2085
g8
I27
sg9
I1
sg10
Nsg11
g2082
sg12
(I27
I1
tp2086
sg14
NsbsS'z(19, 11)'
p2087
g2
(g3
g4
Ntp2088
Rp2089
(dp2090
g8
I19
sg9
I11
sg10
Nsg11
g2087
sg12
(I19
I11
tp2091
sg14
NsbsS'z(20, 23)'
p2092
g2
(g3
g4
Ntp2093
Rp2094
(dp2095
g8
I20
sg9
I23
sg10
Nsg11
g2092
sg12
(I20
I23
tp2096
sg14
NsbsS'z(17, 1)'
p2097
g2
(g3
g4
Ntp2098
Rp2099
(dp2100
g8
I17
sg9
I1
sg10
Nsg11
g2097
sg12
(I17
I1
tp2101
sg14
NsbsS'z(1, 5)'
p2102
g2
(g3
g4
Ntp2103
Rp2104
(dp2105
g8
I1
sg9
I5
sg10
Nsg11
g2102
sg12
(I1
I5
tp2106
sg14
NsbsS'z(13, 7)'
p2107
g2
(g3
g4
Ntp2108
Rp2109
(dp2110
g8
I13
sg9
I7
sg10
Nsg11
g2107
sg12
(I13
I7
tp2111
sg14
NsbsS'z(0, 1)'
p2112
g2
(g3
g4
Ntp2113
Rp2114
(dp2115
g8
I0
sg9
I1
sg10
Nsg11
g2112
sg12
(I0
I1
tp2116
sg14
NsbsS'z(11, 4)'
p2117
g2
(g3
g4
Ntp2118
Rp2119
(dp2120
g8
I11
sg9
I4
sg10
Nsg11
g2117
sg12
(I11
I4
tp2121
sg14
NsbsS'z(6, 4)'
p2122
g2
(g3
g4
Ntp2123
Rp2124
(dp2125
g8
I6
sg9
I4
sg10
Nsg11
g2122
sg12
(I6
I4
tp2126
sg14
g2
(g90
g4
Ntp2127
Rp2128
(dp2129
g94
S'1010200121'
p2130
sg96
g2124
sbsbsS'z(18, 15)'
p2131
g2
(g3
g4
Ntp2132
Rp2133
(dp2134
g8
I18
sg9
I15
sg10
Nsg11
g2131
sg12
(I18
I15
tp2135
sg14
NsbsS'z(25, 29)'
p2136
g2
(g3
g4
Ntp2137
Rp2138
(dp2139
g8
I25
sg9
I29
sg10
Nsg11
g2136
sg12
(I25
I29
tp2140
sg14
NsbsS'z(23, 19)'
p2141
g2
(g3
g4
Ntp2142
Rp2143
(dp2144
g8
I23
sg9
I19
sg10
Nsg11
g2141
sg12
(I23
I19
tp2145
sg14
NsbsS'z(7, 16)'
p2146
g2
(g3
g4
Ntp2147
Rp2148
(dp2149
g8
I7
sg9
I16
sg10
Nsg11
g2146
sg12
(I7
I16
tp2150
sg14
g2
(g90
g4
Ntp2151
Rp2152
(dp2153
g94
S'1010200026'
p2154
sg96
g2148
sbsbsS'z(26, 19)'
p2155
g2
(g3
g4
Ntp2156
Rp2157
(dp2158
g8
I26
sg9
I19
sg10
Nsg11
g2155
sg12
(I26
I19
tp2159
sg14
NsbsS'z(27, 17)'
p2160
g2
(g3
g4
Ntp2161
Rp2162
(dp2163
g8
I27
sg9
I17
sg10
Nsg11
g2160
sg12
(I27
I17
tp2164
sg14
NsbsS'z(25, 18)'
p2165
g2
(g3
g4
Ntp2166
Rp2167
(dp2168
g8
I25
sg9
I18
sg10
Nsg11
g2165
sg12
(I25
I18
tp2169
sg14
NsbsS'z(22, 10)'
p2170
g2
(g3
g4
Ntp2171
Rp2172
(dp2173
g8
I22
sg9
I10
sg10
Nsg11
g2170
sg12
(I22
I10
tp2174
sg14
NsbsS'z(11, 3)'
p2175
g2
(g3
g4
Ntp2176
Rp2177
(dp2178
g8
I11
sg9
I3
sg10
Nsg11
g2175
sg12
(I11
I3
tp2179
sg14
NsbsS'z(0, 25)'
p2180
g2
(g3
g4
Ntp2181
Rp2182
(dp2183
g8
I0
sg9
I25
sg10
Nsg11
g2180
sg12
(I0
I25
tp2184
sg14
NsbsS'z(7, 8)'
p2185
g2
(g3
g4
Ntp2186
Rp2187
(dp2188
g8
I7
sg9
I8
sg10
Nsg11
g2185
sg12
(I7
I8
tp2189
sg14
NsbsS'z(2, 28)'
p2190
g2
(g3
g4
Ntp2191
Rp2192
(dp2193
g8
I2
sg9
I28
sg10
Nsg11
g2190
sg12
(I2
I28
tp2194
sg14
NsbsS'z(25, 22)'
p2195
g2
(g3
g4
Ntp2196
Rp2197
(dp2198
g8
I25
sg9
I22
sg10
Nsg11
g2195
sg12
(I25
I22
tp2199
sg14
NsbsS'z(7, 11)'
p2200
g2
(g3
g4
Ntp2201
Rp2202
(dp2203
g8
I7
sg9
I11
sg10
Nsg11
g2200
sg12
(I7
I11
tp2204
sg14
NsbsS'z(26, 16)'
p2205
g2
(g3
g4
Ntp2206
Rp2207
(dp2208
g8
I26
sg9
I16
sg10
Nsg11
g2205
sg12
(I26
I16
tp2209
sg14
NsbsS'z(17, 21)'
p2210
g2
(g3
g4
Ntp2211
Rp2212
(dp2213
g8
I17
sg9
I21
sg10
Nsg11
g2210
sg12
(I17
I21
tp2214
sg14
NsbsS'z(21, 0)'
p2215
g2
(g3
g4
Ntp2216
Rp2217
(dp2218
g8
I21
sg9
I0
sg10
Nsg11
g2215
sg12
(I21
I0
tp2219
sg14
NsbsS'z(11, 18)'
p2220
g2
(g3
g4
Ntp2221
Rp2222
(dp2223
g8
I11
sg9
I18
sg10
Nsg11
g2220
sg12
(I11
I18
tp2224
sg14
NsbsS'z(24, 11)'
p2225
g2
(g3
g4
Ntp2226
Rp2227
(dp2228
g8
I24
sg9
I11
sg10
Nsg11
g2225
sg12
(I24
I11
tp2229
sg14
g2
(g90
g4
Ntp2230
Rp2231
(dp2232
g94
S'1010200062'
p2233
sg96
g2227
sbsbsS'z(17, 18)'
p2234
g2
(g3
g4
Ntp2235
Rp2236
(dp2237
g8
I17
sg9
I18
sg10
Nsg11
g2234
sg12
(I17
I18
tp2238
sg14
NsbsS'z(4, 3)'
p2239
g2
(g3
g4
Ntp2240
Rp2241
(dp2242
g8
I4
sg9
I3
sg10
Nsg11
g2239
sg12
(I4
I3
tp2243
sg14
g2
(g90
g4
Ntp2244
Rp2245
(dp2246
g94
S'1010200117'
p2247
sg96
g2241
sbsbsS'z(16, 11)'
p2248
g2
(g3
g4
Ntp2249
Rp2250
(dp2251
g8
I16
sg9
I11
sg10
Nsg11
g2248
sg12
(I16
I11
tp2252
sg14
g2
(g90
g4
Ntp2253
Rp2254
(dp2255
g94
S'1010200048'
p2256
sg96
g2250
sbsbsS'z(23, 29)'
p2257
g2
(g3
g4
Ntp2258
Rp2259
(dp2260
g8
I23
sg9
I29
sg10
Nsg11
g2257
sg12
(I23
I29
tp2261
sg14
NsbsS'z(9, 25)'
p2262
g2
(g3
g4
Ntp2263
Rp2264
(dp2265
g8
I9
sg9
I25
sg10
Nsg11
g2262
sg12
(I9
I25
tp2266
sg14
NsbsS'z(14, 9)'
p2267
g2
(g3
g4
Ntp2268
Rp2269
(dp2270
g8
I14
sg9
I9
sg10
Nsg11
g2267
sg12
(I14
I9
tp2271
sg14
NsbsS'z(2, 6)'
p2272
g2
(g3
g4
Ntp2273
Rp2274
(dp2275
g8
I2
sg9
I6
sg10
Nsg11
g2272
sg12
(I2
I6
tp2276
sg14
g2
(g90
g4
Ntp2277
Rp2278
(dp2279
g94
S'1010200114'
p2280
sg96
g2274
sbsbsS'z(23, 12)'
p2281
g2
(g3
g4
Ntp2282
Rp2283
(dp2284
g8
I23
sg9
I12
sg10
Nsg11
g2281
sg12
(I23
I12
tp2285
sg14
NsbsS'z(3, 14)'
p2286
g2
(g3
g4
Ntp2287
Rp2288
(dp2289
g8
I3
sg9
I14
sg10
Nsg11
g2286
sg12
(I3
I14
tp2290
sg14
g2
(g90
g4
Ntp2291
Rp2292
(dp2293
g94
S'1010200129'
p2294
sg96
g2288
sbsbsS'z(13, 22)'
p2295
g2
(g3
g4
Ntp2296
Rp2297
(dp2298
g8
I13
sg9
I22
sg10
Nsg11
g2295
sg12
(I13
I22
tp2299
sg14
g2
(g90
g4
Ntp2300
Rp2301
(dp2302
g94
S'1010200012'
p2303
sg96
g2297
sbsbsS'z(4, 24)'
p2304
g2
(g3
g4
Ntp2305
Rp2306
(dp2307
g8
I4
sg9
I24
sg10
Nsg11
g2304
sg12
(I4
I24
tp2308
sg14
g2
(g90
g4
Ntp2309
Rp2310
(dp2311
g94
S'1010200142'
p2312
sg96
g2306
sbsbsS'z(19, 30)'
p2313
g2
(g3
g4
Ntp2314
Rp2315
(dp2316
g8
I19
sg9
I30
sg10
Nsg11
g2313
sg12
(I19
I30
tp2317
sg14
NsbsS'z(8, 21)'
p2318
g2
(g3
g4
Ntp2319
Rp2320
(dp2321
g8
I8
sg9
I21
sg10
Nsg11
g2318
sg12
(I8
I21
tp2322
sg14
NsbsS'z(19, 9)'
p2323
g2
(g3
g4
Ntp2324
Rp2325
(dp2326
g8
I19
sg9
I9
sg10
Nsg11
g2323
sg12
(I19
I9
tp2327
sg14
g2
(g90
g4
Ntp2328
Rp2329
(dp2330
g94
S'1010200051'
p2331
sg96
g2325
sbsbsS'z(14, 7)'
p2332
g2
(g3
g4
Ntp2333
Rp2334
(dp2335
g8
I14
sg9
I7
sg10
Nsg11
g2332
sg12
(I14
I7
tp2336
sg14
g2
(g90
g4
Ntp2337
Rp2338
(dp2339
g94
S'1010200101'
p2340
sg96
g2334
sbsbsS'z(24, 5)'
p2341
g2
(g3
g4
Ntp2342
Rp2343
(dp2344
g8
I24
sg9
I5
sg10
Nsg11
g2341
sg12
(I24
I5
tp2345
sg14
NsbsS'z(17, 16)'
p2346
g2
(g3
g4
Ntp2347
Rp2348
(dp2349
g8
I17
sg9
I16
sg10
Nsg11
g2346
sg12
(I17
I16
tp2350
sg14
NsbsS'z(7, 20)'
p2351
g2
(g3
g4
Ntp2352
Rp2353
(dp2354
g8
I7
sg9
I20
sg10
Nsg11
g2351
sg12
(I7
I20
tp2355
sg14
NsbsS'z(21, 7)'
p2356
g2
(g3
g4
Ntp2357
Rp2358
(dp2359
g8
I21
sg9
I7
sg10
Nsg11
g2356
sg12
(I21
I7
tp2360
sg14
NsbsS'z(17, 13)'
p2361
g2
(g3
g4
Ntp2362
Rp2363
(dp2364
g8
I17
sg9
I13
sg10
Nsg11
g2361
sg12
(I17
I13
tp2365
sg14
NsbsS'z(0, 17)'
p2366
g2
(g3
g4
Ntp2367
Rp2368
(dp2369
g8
I0
sg9
I17
sg10
Nsg11
g2366
sg12
(I0
I17
tp2370
sg14
g2
(g90
g4
Ntp2371
Rp2372
(dp2373
g94
S'1010200137'
p2374
sg96
g2368
sbsbsS'z(19, 0)'
p2375
g2
(g3
g4
Ntp2376
Rp2377
(dp2378
g8
I19
sg9
I0
sg10
Nsg11
g2375
sg12
(I19
I0
tp2379
sg14
NsbsS'z(5, 24)'
p2380
g2
(g3
g4
Ntp2381
Rp2382
(dp2383
g8
I5
sg9
I24
sg10
Nsg11
g2380
sg12
(I5
I24
tp2384
sg14
NsbsS'z(14, 0)'
p2385
g2
(g3
g4
Ntp2386
Rp2387
(dp2388
g8
I14
sg9
I0
sg10
Nsg11
g2385
sg12
(I14
I0
tp2389
sg14
NsbsS'z(4, 8)'
p2390
g2
(g3
g4
Ntp2391
Rp2392
(dp2393
g8
I4
sg9
I8
sg10
Nsg11
g2390
sg12
(I4
I8
tp2394
sg14
NsbsS'z(9, 4)'
p2395
g2
(g3
g4
Ntp2396
Rp2397
(dp2398
g8
I9
sg9
I4
sg10
Nsg11
g2395
sg12
(I9
I4
tp2399
sg14
NsbsS'z(17, 6)'
p2400
g2
(g3
g4
Ntp2401
Rp2402
(dp2403
g8
I17
sg9
I6
sg10
Nsg11
g2400
sg12
(I17
I6
tp2404
sg14
NsbsS'z(11, 23)'
p2405
g2
(g3
g4
Ntp2406
Rp2407
(dp2408
g8
I11
sg9
I23
sg10
Nsg11
g2405
sg12
(I11
I23
tp2409
sg14
NsbsS'z(13, 15)'
p2410
g2
(g3
g4
Ntp2411
Rp2412
(dp2413
g8
I13
sg9
I15
sg10
Nsg11
g2410
sg12
(I13
I15
tp2414
sg14
NsbsS'z(26, 29)'
p2415
g2
(g3
g4
Ntp2416
Rp2417
(dp2418
g8
I26
sg9
I29
sg10
Nsg11
g2415
sg12
(I26
I29
tp2419
sg14
NsbsS'z(14, 13)'
p2420
g2
(g3
g4
Ntp2421
Rp2422
(dp2423
g8
I14
sg9
I13
sg10
Nsg11
g2420
sg12
(I14
I13
tp2424
sg14
NsbsS'z(26, 5)'
p2425
g2
(g3
g4
Ntp2426
Rp2427
(dp2428
g8
I26
sg9
I5
sg10
Nsg11
g2425
sg12
(I26
I5
tp2429
sg14
NsbsS'z(18, 19)'
p2430
g2
(g3
g4
Ntp2431
Rp2432
(dp2433
g8
I18
sg9
I19
sg10
Nsg11
g2430
sg12
(I18
I19
tp2434
sg14
NsbsS'z(2, 25)'
p2435
g2
(g3
g4
Ntp2436
Rp2437
(dp2438
g8
I2
sg9
I25
sg10
Nsg11
g2435
sg12
(I2
I25
tp2439
sg14
NsbsS'z(6, 28)'
p2440
g2
(g3
g4
Ntp2441
Rp2442
(dp2443
g8
I6
sg9
I28
sg10
Nsg11
g2440
sg12
(I6
I28
tp2444
sg14
NsbsS'z(3, 20)'
p2445
g2
(g3
g4
Ntp2446
Rp2447
(dp2448
g8
I3
sg9
I20
sg10
Nsg11
g2445
sg12
(I3
I20
tp2449
sg14
g2
(g90
g4
Ntp2450
Rp2451
(dp2452
g94
S'1010200021'
p2453
sg96
g2447
sbsbsS'z(3, 3)'
p2454
g2
(g3
g4
Ntp2455
Rp2456
(dp2457
g8
I3
sg9
I3
sg10
Nsg11
g2454
sg12
(I3
I3
tp2458
sg14
NsbsS'z(21, 23)'
p2459
g2
(g3
g4
Ntp2460
Rp2461
(dp2462
g8
I21
sg9
I23
sg10
Nsg11
g2459
sg12
(I21
I23
tp2463
sg14
NsbsS'z(5, 18)'
p2464
g2
(g3
g4
Ntp2465
Rp2466
(dp2467
g8
I5
sg9
I18
sg10
Nsg11
g2464
sg12
(I5
I18
tp2468
sg14
NsbsS'z(4, 14)'
p2469
g2
(g3
g4
Ntp2470
Rp2471
(dp2472
g8
I4
sg9
I14
sg10
Nsg11
g2469
sg12
(I4
I14
tp2473
sg14
g2
(g90
g4
Ntp2474
Rp2475
(dp2476
g94
S'1010200126'
p2477
sg96
g2471
sbsbsS'z(25, 4)'
p2478
g2
(g3
g4
Ntp2479
Rp2480
(dp2481
g8
I25
sg9
I4
sg10
Nsg11
g2478
sg12
(I25
I4
tp2482
sg14
NsbsS'z(2, 23)'
p2483
g2
(g3
g4
Ntp2484
Rp2485
(dp2486
g8
I2
sg9
I23
sg10
Nsg11
g2483
sg12
(I2
I23
tp2487
sg14
g2
(g90
g4
Ntp2488
Rp2489
(dp2490
g94
S'1010200140'
p2491
sg96
g2485
sbsbsS'z(28, 1)'
p2492
g2
(g3
g4
Ntp2493
Rp2494
(dp2495
g8
I28
sg9
I1
sg10
Nsg11
g2492
sg12
(I28
I1
tp2496
sg14
NsbsS'z(23, 7)'
p2497
g2
(g3
g4
Ntp2498
Rp2499
(dp2500
g8
I23
sg9
I7
sg10
Nsg11
g2497
sg12
(I23
I7
tp2501
sg14
NsbsS'z(26, 22)'
p2502
g2
(g3
g4
Ntp2503
Rp2504
(dp2505
g8
I26
sg9
I22
sg10
Nsg11
g2502
sg12
(I26
I22
tp2506
sg14
NsbsS'z(5, 4)'
p2507
g2
(g3
g4
Ntp2508
Rp2509
(dp2510
g8
I5
sg9
I4
sg10
Nsg11
g2507
sg12
(I5
I4
tp2511
sg14
NsbsS'z(12, 4)'
p2512
g2
(g3
g4
Ntp2513
Rp2514
(dp2515
g8
I12
sg9
I4
sg10
Nsg11
g2512
sg12
(I12
I4
tp2516
sg14
NsbsS'z(18, 1)'
p2517
g2
(g3
g4
Ntp2518
Rp2519
(dp2520
g8
I18
sg9
I1
sg10
Nsg11
g2517
sg12
(I18
I1
tp2521
sg14
g2
(g90
g4
Ntp2522
Rp2523
(dp2524
g94
S'1010200095'
p2525
sg96
g2519
sbsbsS'z(28, 8)'
p2526
g2
(g3
g4
Ntp2527
Rp2528
(dp2529
g8
I28
sg9
I8
sg10
Nsg11
g2526
sg12
(I28
I8
tp2530
sg14
NsbsS'z(28, 20)'
p2531
g2
(g3
g4
Ntp2532
Rp2533
(dp2534
g8
I28
sg9
I20
sg10
Nsg11
g2531
sg12
(I28
I20
tp2535
sg14
NsbsS'z(16, 24)'
p2536
g2
(g3
g4
Ntp2537
Rp2538
(dp2539
g8
I16
sg9
I24
sg10
Nsg11
g2536
sg12
(I16
I24
tp2540
sg14
NsbsS'z(28, 14)'
p2541
g2
(g3
g4
Ntp2542
Rp2543
(dp2544
g8
I28
sg9
I14
sg10
Nsg11
g2541
sg12
(I28
I14
tp2545
sg14
NsbsS'z(5, 11)'
p2546
g2
(g3
g4
Ntp2547
Rp2548
(dp2549
g8
I5
sg9
I11
sg10
Nsg11
g2546
sg12
(I5
I11
tp2550
sg14
NsbsS'z(7, 5)'
p2551
g2
(g3
g4
Ntp2552
Rp2553
(dp2554
g8
I7
sg9
I5
sg10
Nsg11
g2551
sg12
(I7
I5
tp2555
sg14
NsbsS'z(1, 21)'
p2556
g2
(g3
g4
Ntp2557
Rp2558
(dp2559
g8
I1
sg9
I21
sg10
Nsg11
g2556
sg12
(I1
I21
tp2560
sg14
NsbsS'z(19, 10)'
p2561
g2
(g3
g4
Ntp2562
Rp2563
(dp2564
g8
I19
sg9
I10
sg10
Nsg11
g2561
sg12
(I19
I10
tp2565
sg14
NsbsS'z(25, 3)'
p2566
g2
(g3
g4
Ntp2567
Rp2568
(dp2569
g8
I25
sg9
I3
sg10
Nsg11
g2566
sg12
(I25
I3
tp2570
sg14
g2
(g90
g4
Ntp2571
Rp2572
(dp2573
g94
S'1010200080'
p2574
sg96
g2568
sbsbsS'z(16, 30)'
p2575
g2
(g3
g4
Ntp2576
Rp2577
(dp2578
g8
I16
sg9
I30
sg10
Nsg11
g2575
sg12
(I16
I30
tp2579
sg14
NsbsS'z(9, 17)'
p2580
g2
(g3
g4
Ntp2581
Rp2582
(dp2583
g8
I9
sg9
I17
sg10
Nsg11
g2580
sg12
(I9
I17
tp2584
sg14
NsbsS'z(28, 7)'
p2585
g2
(g3
g4
Ntp2586
Rp2587
(dp2588
g8
I28
sg9
I7
sg10
Nsg11
g2585
sg12
(I28
I7
tp2589
sg14
NsbsS'z(18, 23)'
p2590
g2
(g3
g4
Ntp2591
Rp2592
(dp2593
g8
I18
sg9
I23
sg10
Nsg11
g2590
sg12
(I18
I23
tp2594
sg14
NsbsS'z(23, 5)'
p2595
g2
(g3
g4
Ntp2596
Rp2597
(dp2598
g8
I23
sg9
I5
sg10
Nsg11
g2595
sg12
(I23
I5
tp2599
sg14
NsbsS'z(16, 14)'
p2600
g2
(g3
g4
Ntp2601
Rp2602
(dp2603
g8
I16
sg9
I14
sg10
Nsg11
g2600
sg12
(I16
I14
tp2604
sg14
NsbsS'z(19, 24)'
p2605
g2
(g3
g4
Ntp2606
Rp2607
(dp2608
g8
I19
sg9
I24
sg10
Nsg11
g2605
sg12
(I19
I24
tp2609
sg14
NsbsS'z(12, 15)'
p2610
g2
(g3
g4
Ntp2611
Rp2612
(dp2613
g8
I12
sg9
I15
sg10
Nsg11
g2610
sg12
(I12
I15
tp2614
sg14
NsbsS'z(22, 5)'
p2615
g2
(g3
g4
Ntp2616
Rp2617
(dp2618
g8
I22
sg9
I5
sg10
Nsg11
g2615
sg12
(I22
I5
tp2619
sg14
NsbsS'z(23, 22)'
p2620
g2
(g3
g4
Ntp2621
Rp2622
(dp2623
g8
I23
sg9
I22
sg10
Nsg11
g2620
sg12
(I23
I22
tp2624
sg14
NsbsS'z(20, 6)'
p2625
g2
(g3
g4
Ntp2626
Rp2627
(dp2628
g8
I20
sg9
I6
sg10
Nsg11
g2625
sg12
(I20
I6
tp2629
sg14
NsbsS'z(16, 2)'
p2630
g2
(g3
g4
Ntp2631
Rp2632
(dp2633
g8
I16
sg9
I2
sg10
Nsg11
g2630
sg12
(I16
I2
tp2634
sg14
NsbsS'z(8, 27)'
p2635
g2
(g3
g4
Ntp2636
Rp2637
(dp2638
g8
I8
sg9
I27
sg10
Nsg11
g2635
sg12
(I8
I27
tp2639
sg14
NsbsS'z(13, 27)'
p2640
g2
(g3
g4
Ntp2641
Rp2642
(dp2643
g8
I13
sg9
I27
sg10
Nsg11
g2640
sg12
(I13
I27
tp2644
sg14
NsbsS'z(24, 29)'
p2645
g2
(g3
g4
Ntp2646
Rp2647
(dp2648
g8
I24
sg9
I29
sg10
Nsg11
g2645
sg12
(I24
I29
tp2649
sg14
NsbsS'z(10, 11)'
p2650
g2
(g3
g4
Ntp2651
Rp2652
(dp2653
g8
I10
sg9
I11
sg10
Nsg11
g2650
sg12
(I10
I11
tp2654
sg14
NsbsS'z(24, 6)'
p2655
g2
(g3
g4
Ntp2656
Rp2657
(dp2658
g8
I24
sg9
I6
sg10
Nsg11
g2655
sg12
(I24
I6
tp2659
sg14
NsbsS'z(6, 21)'
p2660
g2
(g3
g4
Ntp2661
Rp2662
(dp2663
g8
I6
sg9
I21
sg10
Nsg11
g2660
sg12
(I6
I21
tp2664
sg14
NsbsS'z(11, 20)'
p2665
g2
(g3
g4
Ntp2666
Rp2667
(dp2668
g8
I11
sg9
I20
sg10
Nsg11
g2665
sg12
(I11
I20
tp2669
sg14
NsbsS'z(1, 13)'
p2670
g2
(g3
g4
Ntp2671
Rp2672
(dp2673
g8
I1
sg9
I13
sg10
Nsg11
g2670
sg12
(I1
I13
tp2674
sg14
NsbsS'z(10, 29)'
p2675
g2
(g3
g4
Ntp2676
Rp2677
(dp2678
g8
I10
sg9
I29
sg10
Nsg11
g2675
sg12
(I10
I29
tp2679
sg14
NsbsS'z(15, 27)'
p2680
g2
(g3
g4
Ntp2681
Rp2682
(dp2683
g8
I15
sg9
I27
sg10
Nsg11
g2680
sg12
(I15
I27
tp2684
sg14
g2
(g90
g4
Ntp2685
Rp2686
(dp2687
g94
S'1010200004'
p2688
sg96
g2682
sbsbsS'z(27, 26)'
p2689
g2
(g3
g4
Ntp2690
Rp2691
(dp2692
g8
I27
sg9
I26
sg10
Nsg11
g2689
sg12
(I27
I26
tp2693
sg14
NsbsS'z(10, 5)'
p2694
g2
(g3
g4
Ntp2695
Rp2696
(dp2697
g8
I10
sg9
I5
sg10
Nsg11
g2694
sg12
(I10
I5
tp2698
sg14
NsbsS'z(11, 14)'
p2699
g2
(g3
g4
Ntp2700
Rp2701
(dp2702
g8
I11
sg9
I14
sg10
Nsg11
g2699
sg12
(I11
I14
tp2703
sg14
NsbsS'z(24, 15)'
p2704
g2
(g3
g4
Ntp2705
Rp2706
(dp2707
g8
I24
sg9
I15
sg10
Nsg11
g2704
sg12
(I24
I15
tp2708
sg14
NsbsS'z(0, 5)'
p2709
g2
(g3
g4
Ntp2710
Rp2711
(dp2712
g8
I0
sg9
I5
sg10
Nsg11
g2709
sg12
(I0
I5
tp2713
sg14
NsbsS'z(16, 15)'
p2714
g2
(g3
g4
Ntp2715
Rp2716
(dp2717
g8
I16
sg9
I15
sg10
Nsg11
g2714
sg12
(I16
I15
tp2718
sg14
NsbsS'z(23, 25)'
p2719
g2
(g3
g4
Ntp2720
Rp2721
(dp2722
g8
I23
sg9
I25
sg10
Nsg11
g2719
sg12
(I23
I25
tp2723
sg14
NsbsS'z(22, 2)'
p2724
g2
(g3
g4
Ntp2725
Rp2726
(dp2727
g8
I22
sg9
I2
sg10
Nsg11
g2724
sg12
(I22
I2
tp2728
sg14
NsbsS'z(9, 9)'
p2729
g2
(g3
g4
Ntp2730
Rp2731
(dp2732
g8
I9
sg9
I9
sg10
Nsg11
g2729
sg12
(I9
I9
tp2733
sg14
g2
(g90
g4
Ntp2734
Rp2735
(dp2736
g94
S'1010200039'
p2737
sg96
g2731
sbsbsS'z(21, 16)'
p2738
g2
(g3
g4
Ntp2739
Rp2740
(dp2741
g8
I21
sg9
I16
sg10
Nsg11
g2738
sg12
(I21
I16
tp2742
sg14
NsbsS'z(27, 5)'
p2743
g2
(g3
g4
Ntp2744
Rp2745
(dp2746
g8
I27
sg9
I5
sg10
Nsg11
g2743
sg12
(I27
I5
tp2747
sg14
g2
(g90
g4
Ntp2748
Rp2749
(dp2750
g94
S'1010200071'
p2751
sg96
g2745
sbsbsS'z(8, 25)'
p2752
g2
(g3
g4
Ntp2753
Rp2754
(dp2755
g8
I8
sg9
I25
sg10
Nsg11
g2752
sg12
(I8
I25
tp2756
sg14
NsbsS'z(8, 24)'
p2757
g2
(g3
g4
Ntp2758
Rp2759
(dp2760
g8
I8
sg9
I24
sg10
Nsg11
g2757
sg12
(I8
I24
tp2761
sg14
NsbsS'z(10, 27)'
p2762
g2
(g3
g4
Ntp2763
Rp2764
(dp2765
g8
I10
sg9
I27
sg10
Nsg11
g2762
sg12
(I10
I27
tp2766
sg14
NsbsS'z(27, 28)'
p2767
g2
(g3
g4
Ntp2768
Rp2769
(dp2770
g8
I27
sg9
I28
sg10
Nsg11
g2767
sg12
(I27
I28
tp2771
sg14
NsbsS'z(12, 27)'
p2772
g2
(g3
g4
Ntp2773
Rp2774
(dp2775
g8
I12
sg9
I27
sg10
Nsg11
g2772
sg12
(I12
I27
tp2776
sg14
NsbsS'z(1, 1)'
p2777
g2
(g3
g4
Ntp2778
Rp2779
(dp2780
g8
I1
sg9
I1
sg10
Nsg11
g2777
sg12
(I1
I1
tp2781
sg14
NsbsS'z(11, 0)'
p2782
g2
(g3
g4
Ntp2783
Rp2784
(dp2785
g8
I11
sg9
I0
sg10
Nsg11
g2782
sg12
(I11
I0
tp2786
sg14
NsbsS'z(17, 26)'
p2787
g2
(g3
g4
Ntp2788
Rp2789
(dp2790
g8
I17
sg9
I26
sg10
Nsg11
g2787
sg12
(I17
I26
tp2791
sg14
NsbsS'z(0, 22)'
p2792
g2
(g3
g4
Ntp2793
Rp2794
(dp2795
g8
I0
sg9
I22
sg10
Nsg11
g2792
sg12
(I0
I22
tp2796
sg14
NsbsS'z(21, 28)'
p2797
g2
(g3
g4
Ntp2798
Rp2799
(dp2800
g8
I21
sg9
I28
sg10
Nsg11
g2797
sg12
(I21
I28
tp2801
sg14
NsbsS'z(21, 19)'
p2802
g2
(g3
g4
Ntp2803
Rp2804
(dp2805
g8
I21
sg9
I19
sg10
Nsg11
g2802
sg12
(I21
I19
tp2806
sg14
NsbsS'z(10, 20)'
p2807
g2
(g3
g4
Ntp2808
Rp2809
(dp2810
g8
I10
sg9
I20
sg10
Nsg11
g2807
sg12
(I10
I20
tp2811
sg14
NsbsS'z(15, 5)'
p2812
g2
(g3
g4
Ntp2813
Rp2814
(dp2815
g8
I15
sg9
I5
sg10
Nsg11
g2812
sg12
(I15
I5
tp2816
sg14
NsbsS'z(6, 10)'
p2817
g2
(g3
g4
Ntp2818
Rp2819
(dp2820
g8
I6
sg9
I10
sg10
Nsg11
g2817
sg12
(I6
I10
tp2821
sg14
g2
(g90
g4
Ntp2822
Rp2823
(dp2824
g94
S'1010200035'
p2825
sg96
g2819
sbsbsS'z(2, 15)'
p2826
g2
(g3
g4
Ntp2827
Rp2828
(dp2829
g8
I2
sg9
I15
sg10
Nsg11
g2826
sg12
(I2
I15
tp2830
sg14
NsbsS'z(25, 14)'
p2831
g2
(g3
g4
Ntp2832
Rp2833
(dp2834
g8
I25
sg9
I14
sg10
Nsg11
g2831
sg12
(I25
I14
tp2835
sg14
NsbsS'z(22, 14)'
p2836
g2
(g3
g4
Ntp2837
Rp2838
(dp2839
g8
I22
sg9
I14
sg10
Nsg11
g2836
sg12
(I22
I14
tp2840
sg14
NsbsS'z(2, 11)'
p2841
g2
(g3
g4
Ntp2842
Rp2843
(dp2844
g8
I2
sg9
I11
sg10
Nsg11
g2841
sg12
(I2
I11
tp2845
sg14
NsbsS'z(25, 26)'
p2846
g2
(g3
g4
Ntp2847
Rp2848
(dp2849
g8
I25
sg9
I26
sg10
Nsg11
g2846
sg12
(I25
I26
tp2850
sg14
NsbsS'z(20, 14)'
p2851
g2
(g3
g4
Ntp2852
Rp2853
(dp2854
g8
I20
sg9
I14
sg10
Nsg11
g2851
sg12
(I20
I14
tp2855
sg14
g2
(g90
g4
Ntp2856
Rp2857
(dp2858
g94
S'1010200084'
p2859
sg96
g2853
sbsbsS'z(2, 26)'
p2860
g2
(g3
g4
Ntp2861
Rp2862
(dp2863
g8
I2
sg9
I26
sg10
Nsg11
g2860
sg12
(I2
I26
tp2864
sg14
NsbsS'z(26, 12)'
p2865
g2
(g3
g4
Ntp2866
Rp2867
(dp2868
g8
I26
sg9
I12
sg10
Nsg11
g2865
sg12
(I26
I12
tp2869
sg14
NsbsS'z(20, 27)'
p2870
g2
(g3
g4
Ntp2871
Rp2872
(dp2873
g8
I20
sg9
I27
sg10
Nsg11
g2870
sg12
(I20
I27
tp2874
sg14
NsbsS'z(13, 0)'
p2875
g2
(g3
g4
Ntp2876
Rp2877
(dp2878
g8
I13
sg9
I0
sg10
Nsg11
g2875
sg12
(I13
I0
tp2879
sg14
NsbsS'z(8, 16)'
p2880
g2
(g3
g4
Ntp2881
Rp2882
(dp2883
g8
I8
sg9
I16
sg10
Nsg11
g2880
sg12
(I8
I16
tp2884
sg14
NsbsS'z(14, 21)'
p2885
g2
(g3
g4
Ntp2886
Rp2887
(dp2888
g8
I14
sg9
I21
sg10
Nsg11
g2885
sg12
(I14
I21
tp2889
sg14
NsbsS'z(18, 16)'
p2890
g2
(g3
g4
Ntp2891
Rp2892
(dp2893
g8
I18
sg9
I16
sg10
Nsg11
g2890
sg12
(I18
I16
tp2894
sg14
NsbsS'z(3, 18)'
p2895
g2
(g3
g4
Ntp2896
Rp2897
(dp2898
g8
I3
sg9
I18
sg10
Nsg11
g2895
sg12
(I3
I18
tp2899
sg14
NsbsS'z(2, 2)'
p2900
g2
(g3
g4
Ntp2901
Rp2902
(dp2903
g8
I2
sg9
I2
sg10
Nsg11
g2900
sg12
(I2
I2
tp2904
sg14
NsbsS'z(12, 9)'
p2905
g2
(g3
g4
Ntp2906
Rp2907
(dp2908
g8
I12
sg9
I9
sg10
Nsg11
g2905
sg12
(I12
I9
tp2909
sg14
NsbsS'z(0, 12)'
p2910
g2
(g3
g4
Ntp2911
Rp2912
(dp2913
g8
I0
sg9
I12
sg10
Nsg11
g2910
sg12
(I0
I12
tp2914
sg14
g2
(g90
g4
Ntp2915
Rp2916
(dp2917
g94
S'1010200133'
p2918
sg96
g2912
sbsbsS'z(27, 13)'
p2919
g2
(g3
g4
Ntp2920
Rp2921
(dp2922
g8
I27
sg9
I13
sg10
Nsg11
g2919
sg12
(I27
I13
tp2923
sg14
NsbsS'z(19, 5)'
p2924
g2
(g3
g4
Ntp2925
Rp2926
(dp2927
g8
I19
sg9
I5
sg10
Nsg11
g2924
sg12
(I19
I5
tp2928
sg14
NsbsS'z(6, 1)'
p2929
g2
(g3
g4
Ntp2930
Rp2931
(dp2932
g8
I6
sg9
I1
sg10
Nsg11
g2929
sg12
(I6
I1
tp2933
sg14
NsbsS'z(5, 23)'
p2934
g2
(g3
g4
Ntp2935
Rp2936
(dp2937
g8
I5
sg9
I23
sg10
Nsg11
g2934
sg12
(I5
I23
tp2938
sg14
g2
(g90
g4
Ntp2939
Rp2940
(dp2941
g94
S'1010200017'
p2942
sg96
g2936
sbsbsS'z(4, 4)'
p2943
g2
(g3
g4
Ntp2944
Rp2945
(dp2946
g8
I4
sg9
I4
sg10
Nsg11
g2943
sg12
(I4
I4
tp2947
sg14
NsbsS'z(9, 0)'
p2948
g2
(g3
g4
Ntp2949
Rp2950
(dp2951
g8
I9
sg9
I0
sg10
Nsg11
g2948
sg12
(I9
I0
tp2952
sg14
NsbsS'z(7, 12)'
p2953
g2
(g3
g4
Ntp2954
Rp2955
(dp2956
g8
I7
sg9
I12
sg10
Nsg11
g2953
sg12
(I7
I12
tp2957
sg14
NsbsS'z(6, 8)'
p2958
g2
(g3
g4
Ntp2959
Rp2960
(dp2961
g8
I6
sg9
I8
sg10
Nsg11
g2958
sg12
(I6
I8
tp2962
sg14
NsbsS'z(26, 15)'
p2963
g2
(g3
g4
Ntp2964
Rp2965
(dp2966
g8
I26
sg9
I15
sg10
Nsg11
g2963
sg12
(I26
I15
tp2967
sg14
NsbsS'z(7, 24)'
p2968
g2
(g3
g4
Ntp2969
Rp2970
(dp2971
g8
I7
sg9
I24
sg10
Nsg11
g2968
sg12
(I7
I24
tp2972
sg14
NsbsS'z(21, 3)'
p2973
g2
(g3
g4
Ntp2974
Rp2975
(dp2976
g8
I21
sg9
I3
sg10
Nsg11
g2973
sg12
(I21
I3
tp2977
sg14
NsbsS'z(1, 8)'
p2978
g2
(g3
g4
Ntp2979
Rp2980
(dp2981
g8
I1
sg9
I8
sg10
Nsg11
g2978
sg12
(I1
I8
tp2982
sg14
NsbsS'z(14, 4)'
p2983
g2
(g3
g4
Ntp2984
Rp2985
(dp2986
g8
I14
sg9
I4
sg10
Nsg11
g2983
sg12
(I14
I4
tp2987
sg14
NsbsS'z(0, 2)'
p2988
g2
(g3
g4
Ntp2989
Rp2990
(dp2991
g8
I0
sg9
I2
sg10
Nsg11
g2988
sg12
(I0
I2
tp2992
sg14
NsbsS'z(19, 14)'
p2993
g2
(g3
g4
Ntp2994
Rp2995
(dp2996
g8
I19
sg9
I14
sg10
Nsg11
g2993
sg12
(I19
I14
tp2997
sg14
g2
(g90
g4
Ntp2998
Rp2999
(dp3000
g94
S'1010200086'
p3001
sg96
g2995
sbsbsS'z(17, 2)'
p3002
g2
(g3
g4
Ntp3003
Rp3004
(dp3005
g8
I17
sg9
I2
sg10
Nsg11
g3002
sg12
(I17
I2
tp3006
sg14
g2
(g90
g4
Ntp3007
Rp3008
(dp3009
g94
S'1010200097'
p3010
sg96
g3004
sbsbsS'z(28, 24)'
p3011
g2
(g3
g4
Ntp3012
Rp3013
(dp3014
g8
I28
sg9
I24
sg10
Nsg11
g3011
sg12
(I28
I24
tp3015
sg14
NsbsS'z(5, 8)'
p3016
g2
(g3
g4
Ntp3017
Rp3018
(dp3019
g8
I5
sg9
I8
sg10
Nsg11
g3016
sg12
(I5
I8
tp3020
sg14
g2
(g90
g4
Ntp3021
Rp3022
(dp3023
g94
S'1010200037'
p3024
sg96
g3018
sbsbsS'z(16, 28)'
p3025
g2
(g3
g4
Ntp3026
Rp3027
(dp3028
g8
I16
sg9
I28
sg10
Nsg11
g3025
sg12
(I16
I28
tp3029
sg14
NsbsS'z(26, 1)'
p3030
g2
(g3
g4
Ntp3031
Rp3032
(dp3033
g8
I26
sg9
I1
sg10
Nsg11
g3030
sg12
(I26
I1
tp3034
sg14
g2
(g90
g4
Ntp3035
Rp3036
(dp3037
g94
S'1010200075'
p3038
sg96
g3032
sbsbsS'z(2, 27)'
p3039
g2
(g3
g4
Ntp3040
Rp3041
(dp3042
g8
I2
sg9
I27
sg10
Nsg11
g3039
sg12
(I2
I27
tp3043
sg14
NsbsS'z(5, 30)'
p3044
g2
(g3
g4
Ntp3045
Rp3046
(dp3047
g8
I5
sg9
I30
sg10
Nsg11
g3044
sg12
(I5
I30
tp3048
sg14
NsbsS'z(23, 27)'
p3049
g2
(g3
g4
Ntp3050
Rp3051
(dp3052
g8
I23
sg9
I27
sg10
Nsg11
g3049
sg12
(I23
I27
tp3053
sg14
NsbsS'z(10, 18)'
p3054
g2
(g3
g4
Ntp3055
Rp3056
(dp3057
g8
I10
sg9
I18
sg10
Nsg11
g3054
sg12
(I10
I18
tp3058
sg14
NsbsS'z(19, 29)'
p3059
g2
(g3
g4
Ntp3060
Rp3061
(dp3062
g8
I19
sg9
I29
sg10
Nsg11
g3059
sg12
(I19
I29
tp3063
sg14
NsbsS'z(26, 27)'
p3064
g2
(g3
g4
Ntp3065
Rp3066
(dp3067
g8
I26
sg9
I27
sg10
Nsg11
g3064
sg12
(I26
I27
tp3068
sg14
NsbsS'z(7, 27)'
p3069
g2
(g3
g4
Ntp3070
Rp3071
(dp3072
g8
I7
sg9
I27
sg10
Nsg11
g3069
sg12
(I7
I27
tp3073
sg14
NsbsS'z(6, 30)'
p3074
g2
(g3
g4
Ntp3075
Rp3076
(dp3077
g8
I6
sg9
I30
sg10
Nsg11
g3074
sg12
(I6
I30
tp3078
sg14
NsbsS'z(24, 24)'
p3079
g2
(g3
g4
Ntp3080
Rp3081
(dp3082
g8
I24
sg9
I24
sg10
Nsg11
g3079
sg12
(I24
I24
tp3083
sg14
NsbsS'z(14, 3)'
p3084
g2
(g3
g4
Ntp3085
Rp3086
(dp3087
g8
I14
sg9
I3
sg10
Nsg11
g3084
sg12
(I14
I3
tp3088
sg14
NsbsS'z(26, 30)'
p3089
g2
(g3
g4
Ntp3090
Rp3091
(dp3092
g8
I26
sg9
I30
sg10
Nsg11
g3089
sg12
(I26
I30
tp3093
sg14
NsbsS'z(13, 10)'
p3094
g2
(g3
g4
Ntp3095
Rp3096
(dp3097
g8
I13
sg9
I10
sg10
Nsg11
g3094
sg12
(I13
I10
tp3098
sg14
NsbsS'z(4, 20)'
p3099
g2
(g3
g4
Ntp3100
Rp3101
(dp3102
g8
I4
sg9
I20
sg10
Nsg11
g3099
sg12
(I4
I20
tp3103
sg14
NsbsS'z(1, 30)'
p3104
g2
(g3
g4
Ntp3105
Rp3106
(dp3107
g8
I1
sg9
I30
sg10
Nsg11
g3104
sg12
(I1
I30
tp3108
sg14
NsbsS'z(3, 8)'
p3109
g2
(g3
g4
Ntp3110
Rp3111
(dp3112
g8
I3
sg9
I8
sg10
Nsg11
g3109
sg12
(I3
I8
tp3113
sg14
NsbsS'z(14, 14)'
p3114
g2
(g3
g4
Ntp3115
Rp3116
(dp3117
g8
I14
sg9
I14
sg10
Nsg11
g3114
sg12
(I14
I14
tp3118
sg14
NsbsS'z(3, 11)'
p3119
g2
(g3
g4
Ntp3120
Rp3121
(dp3122
g8
I3
sg9
I11
sg10
Nsg11
g3119
sg12
(I3
I11
tp3123
sg14
NsbsS'z(23, 17)'
p3124
g2
(g3
g4
Ntp3125
Rp3126
(dp3127
g8
I23
sg9
I17
sg10
Nsg11
g3124
sg12
(I23
I17
tp3128
sg14
NsbsS'z(1, 15)'
p3129
g2
(g3
g4
Ntp3130
Rp3131
(dp3132
g8
I1
sg9
I15
sg10
Nsg11
g3129
sg12
(I1
I15
tp3133
sg14
NsbsS'z(12, 0)'
p3134
g2
(g3
g4
Ntp3135
Rp3136
(dp3137
g8
I12
sg9
I0
sg10
Nsg11
g3134
sg12
(I12
I0
tp3138
sg14
NsbsS'z(14, 26)'
p3139
g2
(g3
g4
Ntp3140
Rp3141
(dp3142
g8
I14
sg9
I26
sg10
Nsg11
g3139
sg12
(I14
I26
tp3143
sg14
NsbsS'z(18, 12)'
p3144
g2
(g3
g4
Ntp3145
Rp3146
(dp3147
g8
I18
sg9
I12
sg10
Nsg11
g3144
sg12
(I18
I12
tp3148
sg14
NsbsS'z(11, 24)'
p3149
g2
(g3
g4
Ntp3150
Rp3151
(dp3152
g8
I11
sg9
I24
sg10
Nsg11
g3149
sg12
(I11
I24
tp3153
sg14
NsbsS'z(3, 23)'
p3154
g2
(g3
g4
Ntp3155
Rp3156
(dp3157
g8
I3
sg9
I23
sg10
Nsg11
g3154
sg12
(I3
I23
tp3158
sg14
NsbsS'z(9, 26)'
p3159
g2
(g3
g4
Ntp3160
Rp3161
(dp3162
g8
I9
sg9
I26
sg10
Nsg11
g3159
sg12
(I9
I26
tp3163
sg14
NsbsS'z(15, 23)'
p3164
g2
(g3
g4
Ntp3165
Rp3166
(dp3167
g8
I15
sg9
I23
sg10
Nsg11
g3164
sg12
(I15
I23
tp3168
sg14
g2
(g90
g4
Ntp3169
Rp3170
(dp3171
g94
S'1010200002'
p3172
sg96
g3166
sbsbsS'z(10, 1)'
p3173
g2
(g3
g4
Ntp3174
Rp3175
(dp3176
g8
I10
sg9
I1
sg10
Nsg11
g3173
sg12
(I10
I1
tp3177
sg14
NsbsS'z(28, 10)'
p3178
g2
(g3
g4
Ntp3179
Rp3180
(dp3181
g8
I28
sg9
I10
sg10
Nsg11
g3178
sg12
(I28
I10
tp3182
sg14
NsbsS'z(5, 15)'
p3183
g2
(g3
g4
Ntp3184
Rp3185
(dp3186
g8
I5
sg9
I15
sg10
Nsg11
g3183
sg12
(I5
I15
tp3187
sg14
NsbsS'z(20, 21)'
p3188
g2
(g3
g4
Ntp3189
Rp3190
(dp3191
g8
I20
sg9
I21
sg10
Nsg11
g3188
sg12
(I20
I21
tp3192
sg14
NsbsS'z(21, 30)'
p3193
g2
(g3
g4
Ntp3194
Rp3195
(dp3196
g8
I21
sg9
I30
sg10
Nsg11
g3193
sg12
(I21
I30
tp3197
sg14
NsbsS'z(25, 7)'
p3198
g2
(g3
g4
Ntp3199
Rp3200
(dp3201
g8
I25
sg9
I7
sg10
Nsg11
g3198
sg12
(I25
I7
tp3202
sg14
NsbsS'z(28, 6)'
p3203
g2
(g3
g4
Ntp3204
Rp3205
(dp3206
g8
I28
sg9
I6
sg10
Nsg11
g3203
sg12
(I28
I6
tp3207
sg14
NsbsS'z(16, 1)'
p3208
g2
(g3
g4
Ntp3209
Rp3210
(dp3211
g8
I16
sg9
I1
sg10
Nsg11
g3208
sg12
(I16
I1
tp3212
sg14
NsbsS'z(20, 19)'
p3213
g2
(g3
g4
Ntp3214
Rp3215
(dp3216
g8
I20
sg9
I19
sg10
Nsg11
g3213
sg12
(I20
I19
tp3217
sg14
NsbsS'z(9, 13)'
p3218
g2
(g3
g4
Ntp3219
Rp3220
(dp3221
g8
I9
sg9
I13
sg10
Nsg11
g3218
sg12
(I9
I13
tp3222
sg14
NsbsS'z(3, 6)'
p3223
g2
(g3
g4
Ntp3224
Rp3225
(dp3226
g8
I3
sg9
I6
sg10
Nsg11
g3223
sg12
(I3
I6
tp3227
sg14
NsbsS'z(8, 15)'
p3228
g2
(g3
g4
Ntp3229
Rp3230
(dp3231
g8
I8
sg9
I15
sg10
Nsg11
g3228
sg12
(I8
I15
tp3232
sg14
NsbsS'z(4, 10)'
p3233
g2
(g3
g4
Ntp3234
Rp3235
(dp3236
g8
I4
sg9
I10
sg10
Nsg11
g3233
sg12
(I4
I10
tp3237
sg14
NsbsS'z(18, 4)'
p3238
g2
(g3
g4
Ntp3239
Rp3240
(dp3241
g8
I18
sg9
I4
sg10
Nsg11
g3238
sg12
(I18
I4
tp3242
sg14
g2
(g90
g4
Ntp3243
Rp3244
(dp3245
g94
S'1010200099'
p3246
sg96
g3240
sbsbsS'z(23, 3)'
p3247
g2
(g3
g4
Ntp3248
Rp3249
(dp3250
g8
I23
sg9
I3
sg10
Nsg11
g3247
sg12
(I23
I3
tp3251
sg14
NsbsS'z(16, 6)'
p3252
g2
(g3
g4
Ntp3253
Rp3254
(dp3255
g8
I16
sg9
I6
sg10
Nsg11
g3252
sg12
(I16
I6
tp3256
sg14
NsbsS'z(15, 30)'
p3257
g2
(g3
g4
Ntp3258
Rp3259
(dp3260
g8
I15
sg9
I30
sg10
Nsg11
g3257
sg12
(I15
I30
tp3261
sg14
NsbsS'z(16, 23)'
p3262
g2
(g3
g4
Ntp3263
Rp3264
(dp3265
g8
I16
sg9
I23
sg10
Nsg11
g3262
sg12
(I16
I23
tp3266
sg14
NsbsS'z(5, 3)'
p3267
g2
(g3
g4
Ntp3268
Rp3269
(dp3270
g8
I5
sg9
I3
sg10
Nsg11
g3267
sg12
(I5
I3
tp3271
sg14
g2
(g90
g4
Ntp3272
Rp3273
(dp3274
g94
S'1010200120'
p3275
sg96
g3269
sbsbsS'z(26, 6)'
p3276
g2
(g3
g4
Ntp3277
Rp3278
(dp3279
g8
I26
sg9
I6
sg10
Nsg11
g3276
sg12
(I26
I6
tp3280
sg14
g2
(g90
g4
Ntp3281
Rp3282
(dp3283
g94
S'1010200070'
p3284
sg96
g3278
sbsbsS'z(9, 15)'
p3285
g2
(g3
g4
Ntp3286
Rp3287
(dp3288
g8
I9
sg9
I15
sg10
Nsg11
g3285
sg12
(I9
I15
tp3289
sg14
NsbsS'z(8, 19)'
p3290
g2
(g3
g4
Ntp3291
Rp3292
(dp3293
g8
I8
sg9
I19
sg10
Nsg11
g3290
sg12
(I8
I19
tp3294
sg14
NsbsS'z(16, 8)'
p3295
g2
(g3
g4
Ntp3296
Rp3297
(dp3298
g8
I16
sg9
I8
sg10
Nsg11
g3295
sg12
(I16
I8
tp3299
sg14
NsbsS'z(20, 10)'
p3300
g2
(g3
g4
Ntp3301
Rp3302
(dp3303
g8
I20
sg9
I10
sg10
Nsg11
g3300
sg12
(I20
I10
tp3304
sg14
NsbsS'z(1, 14)'
p3305
g2
(g3
g4
Ntp3306
Rp3307
(dp3308
g8
I1
sg9
I14
sg10
Nsg11
g3305
sg12
(I1
I14
tp3309
sg14
g2
(g90
g4
Ntp3310
Rp3311
(dp3312
g94
S'1010200135'
p3313
sg96
g3307
sbsbsS'z(9, 14)'
p3314
g2
(g3
g4
Ntp3315
Rp3316
(dp3317
g8
I9
sg9
I14
sg10
Nsg11
g3314
sg12
(I9
I14
tp3318
sg14
NsbsS'z(18, 26)'
p3319
g2
(g3
g4
Ntp3320
Rp3321
(dp3322
g8
I18
sg9
I26
sg10
Nsg11
g3319
sg12
(I18
I26
tp3323
sg14
NsbsS'z(21, 8)'
p3324
g2
(g3
g4
Ntp3325
Rp3326
(dp3327
g8
I21
sg9
I8
sg10
Nsg11
g3324
sg12
(I21
I8
tp3328
sg14
NsbsS'z(11, 10)'
p3329
g2
(g3
g4
Ntp3330
Rp3331
(dp3332
g8
I11
sg9
I10
sg10
Nsg11
g3329
sg12
(I11
I10
tp3333
sg14
NsbsS'z(24, 19)'
p3334
g2
(g3
g4
Ntp3335
Rp3336
(dp3337
g8
I24
sg9
I19
sg10
Nsg11
g3334
sg12
(I24
I19
tp3338
sg14
NsbsS'z(7, 0)'
p3339
g2
(g3
g4
Ntp3340
Rp3341
(dp3342
g8
I7
sg9
I0
sg10
Nsg11
g3339
sg12
(I7
I0
tp3343
sg14
NsbsS'z(19, 21)'
p3344
g2
(g3
g4
Ntp3345
Rp3346
(dp3347
g8
I19
sg9
I21
sg10
Nsg11
g3344
sg12
(I19
I21
tp3348
sg14
NsbsS'z(23, 21)'
p3349
g2
(g3
g4
Ntp3350
Rp3351
(dp3352
g8
I23
sg9
I21
sg10
Nsg11
g3349
sg12
(I23
I21
tp3353
sg14
NsbsS'z(22, 6)'
p3354
g2
(g3
g4
Ntp3355
Rp3356
(dp3357
g8
I22
sg9
I6
sg10
Nsg11
g3354
sg12
(I22
I6
tp3358
sg14
NsbsS'z(27, 9)'
p3359
g2
(g3
g4
Ntp3360
Rp3361
(dp3362
g8
I27
sg9
I9
sg10
Nsg11
g3359
sg12
(I27
I9
tp3363
sg14
NsbsS'z(19, 19)'
p3364
g2
(g3
g4
Ntp3365
Rp3366
(dp3367
g8
I19
sg9
I19
sg10
Nsg11
g3364
sg12
(I19
I19
tp3368
sg14
NsbsS'z(17, 9)'
p3369
g2
(g3
g4
Ntp3370
Rp3371
(dp3372
g8
I17
sg9
I9
sg10
Nsg11
g3369
sg12
(I17
I9
tp3373
sg14
g2
(g90
g4
Ntp3374
Rp3375
(dp3376
g94
S'1010200050'
p3377
sg96
g3371
sbsbsS'z(15, 2)'
p3378
g2
(g3
g4
Ntp3379
Rp3380
(dp3381
g8
I15
sg9
I2
sg10
Nsg11
g3378
sg12
(I15
I2
tp3382
sg14
NsbsS'z(4, 29)'
p3383
g2
(g3
g4
Ntp3384
Rp3385
(dp3386
g8
I4
sg9
I29
sg10
Nsg11
g3383
sg12
(I4
I29
tp3387
sg14
NsbsS'z(12, 11)'
p3388
g2
(g3
g4
Ntp3389
Rp3390
(dp3391
g8
I12
sg9
I11
sg10
Nsg11
g3388
sg12
(I12
I11
tp3392
sg14
NsbsS'z(24, 3)'
p3393
g2
(g3
g4
Ntp3394
Rp3395
(dp3396
g8
I24
sg9
I3
sg10
Nsg11
g3393
sg12
(I24
I3
tp3397
sg14
NsbsS'z(20, 2)'
p3398
g2
(g3
g4
Ntp3399
Rp3400
(dp3401
g8
I20
sg9
I2
sg10
Nsg11
g3398
sg12
(I20
I2
tp3402
sg14
g2
(g90
g4
Ntp3403
Rp3404
(dp3405
g94
S'1010200093'
p3406
sg96
g3400
sbsbsS'z(6, 22)'
p3407
g2
(g3
g4
Ntp3408
Rp3409
(dp3410
g8
I6
sg9
I22
sg10
Nsg11
g3407
sg12
(I6
I22
tp3411
sg14
g2
(g90
g4
Ntp3412
Rp3413
(dp3414
g94
S'1010200016'
p3415
sg96
g3409
sbsbsS'z(15, 28)'
p3416
g2
(g3
g4
Ntp3417
Rp3418
(dp3419
g8
I15
sg9
I28
sg10
Nsg11
g3416
sg12
(I15
I28
tp3420
sg14
NsbsS'z(10, 8)'
p3421
g2
(g3
g4
Ntp3422
Rp3423
(dp3424
g8
I10
sg9
I8
sg10
Nsg11
g3421
sg12
(I10
I8
tp3425
sg14
NsbsS'z(12, 28)'
p3426
g2
(g3
g4
Ntp3427
Rp3428
(dp3429
g8
I12
sg9
I28
sg10
Nsg11
g3426
sg12
(I12
I28
tp3430
sg14
g2
(g90
g4
Ntp3431
Rp3432
(dp3433
g94
S'1010200008'
p3434
sg96
g3428
sbsbsS'z(28, 17)'
p3435
g2
(g3
g4
Ntp3436
Rp3437
(dp3438
g8
I28
sg9
I17
sg10
Nsg11
g3435
sg12
(I28
I17
tp3439
sg14
NsbsS'z(25, 10)'
p3440
g2
(g3
g4
Ntp3441
Rp3442
(dp3443
g8
I25
sg9
I10
sg10
Nsg11
g3440
sg12
(I25
I10
tp3444
sg14
NsbsS'z(15, 12)'
p3445
g2
(g3
g4
Ntp3446
Rp3447
(dp3448
g8
I15
sg9
I12
sg10
Nsg11
g3445
sg12
(I15
I12
tp3449
sg14
NsbsS'z(24, 27)'
p3450
g2
(g3
g4
Ntp3451
Rp3452
(dp3453
g8
I24
sg9
I27
sg10
Nsg11
g3450
sg12
(I24
I27
tp3454
sg14
NsbsS'z(14, 8)'
p3455
g2
(g3
g4
Ntp3456
Rp3457
(dp3458
g8
I14
sg9
I8
sg10
Nsg11
g3455
sg12
(I14
I8
tp3459
sg14
NsbsS'z(6, 18)'
p3460
g2
(g3
g4
Ntp3461
Rp3462
(dp3463
g8
I6
sg9
I18
sg10
Nsg11
g3460
sg12
(I6
I18
tp3464
sg14
NsbsS'z(27, 0)'
p3465
g2
(g3
g4
Ntp3466
Rp3467
(dp3468
g8
I27
sg9
I0
sg10
Nsg11
g3465
sg12
(I27
I0
tp3469
sg14
NsbsS'z(21, 13)'
p3470
g2
(g3
g4
Ntp3471
Rp3472
(dp3473
g8
I21
sg9
I13
sg10
Nsg11
g3470
sg12
(I21
I13
tp3474
sg14
NsbsS'z(1, 4)'
p3475
g2
(g3
g4
Ntp3476
Rp3477
(dp3478
g8
I1
sg9
I4
sg10
Nsg11
g3475
sg12
(I1
I4
tp3479
sg14
NsbsS'z(8, 22)'
p3480
g2
(g3
g4
Ntp3481
Rp3482
(dp3483
g8
I8
sg9
I22
sg10
Nsg11
g3480
sg12
(I8
I22
tp3484
sg14
NsbsS'z(0, 6)'
p3485
g2
(g3
g4
Ntp3486
Rp3487
(dp3488
g8
I0
sg9
I6
sg10
Nsg11
g3485
sg12
(I0
I6
tp3489
sg14
NsbsS'z(6, 5)'
p3490
g2
(g3
g4
Ntp3491
Rp3492
(dp3493
g8
I6
sg9
I5
sg10
Nsg11
g3490
sg12
(I6
I5
tp3494
sg14
g2
(g90
g4
Ntp3495
Rp3496
(dp3497
g94
S'1010200122'
p3498
sg96
g3492
sbsbsS'z(11, 5)'
p3499
g2
(g3
g4
Ntp3500
Rp3501
(dp3502
g8
I11
sg9
I5
sg10
Nsg11
g3499
sg12
(I11
I5
tp3503
sg14
NsbsS'z(13, 4)'
p3504
g2
(g3
g4
Ntp3505
Rp3506
(dp3507
g8
I13
sg9
I4
sg10
Nsg11
g3504
sg12
(I13
I4
tp3508
sg14
NsbsS'z(27, 23)'
p3509
g2
(g3
g4
Ntp3510
Rp3511
(dp3512
g8
I27
sg9
I23
sg10
Nsg11
g3509
sg12
(I27
I23
tp3513
sg14
NsbsS'z(12, 30)'
p3514
g2
(g3
g4
Ntp3515
Rp3516
(dp3517
g8
I12
sg9
I30
sg10
Nsg11
g3514
sg12
(I12
I30
tp3518
sg14
NsbsS'z(25, 28)'
p3519
g2
(g3
g4
Ntp3520
Rp3521
(dp3522
g8
I25
sg9
I28
sg10
Nsg11
g3519
sg12
(I25
I28
tp3523
sg14
NsbsS'z(7, 17)'
p3524
g2
(g3
g4
Ntp3525
Rp3526
(dp3527
g8
I7
sg9
I17
sg10
Nsg11
g3524
sg12
(I7
I17
tp3528
sg14
NsbsS'z(26, 18)'
p3529
g2
(g3
g4
Ntp3530
Rp3531
(dp3532
g8
I26
sg9
I18
sg10
Nsg11
g3529
sg12
(I26
I18
tp3533
sg14
NsbsS'z(0, 30)'
p3534
g2
(g3
g4
Ntp3535
Rp3536
(dp3537
g8
I0
sg9
I30
sg10
Nsg11
g3534
sg12
(I0
I30
tp3538
sg14
NsbsS'z(6, 13)'
p3539
g2
(g3
g4
Ntp3540
Rp3541
(dp3542
g8
I6
sg9
I13
sg10
Nsg11
g3539
sg12
(I6
I13
tp3543
sg14
NsbsS'z(12, 23)'
p3544
g2
(g3
g4
Ntp3545
Rp3546
(dp3547
g8
I12
sg9
I23
sg10
Nsg11
g3544
sg12
(I12
I23
tp3548
sg14
NsbsS'z(25, 19)'
p3549
g2
(g3
g4
Ntp3550
Rp3551
(dp3552
g8
I25
sg9
I19
sg10
Nsg11
g3549
sg12
(I25
I19
tp3553
sg14
NsbsS'z(22, 13)'
p3554
g2
(g3
g4
Ntp3555
Rp3556
(dp3557
g8
I22
sg9
I13
sg10
Nsg11
g3554
sg12
(I22
I13
tp3558
sg14
g2
(g90
g4
Ntp3559
Rp3560
(dp3561
g94
S'1010200065'
p3562
sg96
g3556
sbsbsS'z(9, 24)'
p3563
g2
(g3
g4
Ntp3564
Rp3565
(dp3566
g8
I9
sg9
I24
sg10
Nsg11
g3563
sg12
(I9
I24
tp3567
sg14
NsbsS'z(2, 14)'
p3568
g2
(g3
g4
Ntp3569
Rp3570
(dp3571
g8
I2
sg9
I14
sg10
Nsg11
g3568
sg12
(I2
I14
tp3572
sg14
g2
(g90
g4
Ntp3573
Rp3574
(dp3575
g94
S'1010200130'
p3576
sg96
g3570
sbsbsS'z(17, 22)'
p3577
g2
(g3
g4
Ntp3578
Rp3579
(dp3580
g8
I17
sg9
I22
sg10
Nsg11
g3577
sg12
(I17
I22
tp3581
sg14
NsbsS'z(15, 16)'
p3582
g2
(g3
g4
Ntp3583
Rp3584
(dp3585
g8
I15
sg9
I16
sg10
Nsg11
g3582
sg12
(I15
I16
tp3586
sg14
g2
(g90
g4
Ntp3587
Rp3588
(dp3589
g94
S'1010200030'
p3590
sg96
g3584
sbsbsS'z(13, 30)'
p3591
g2
(g3
g4
Ntp3592
Rp3593
(dp3594
g8
I13
sg9
I30
sg10
Nsg11
g3591
sg12
(I13
I30
tp3595
sg14
NsbsS'z(25, 21)'
p3596
g2
(g3
g4
Ntp3597
Rp3598
(dp3599
g8
I25
sg9
I21
sg10
Nsg11
g3596
sg12
(I25
I21
tp3600
sg14
NsbsS'z(22, 19)'
p3601
g2
(g3
g4
Ntp3602
Rp3603
(dp3604
g8
I22
sg9
I19
sg10
Nsg11
g3601
sg12
(I22
I19
tp3605
sg14
NsbsS'z(20, 17)'
p3606
g2
(g3
g4
Ntp3607
Rp3608
(dp3609
g8
I20
sg9
I17
sg10
Nsg11
g3606
sg12
(I20
I17
tp3610
sg14
NsbsS'z(4, 0)'
p3611
g2
(g3
g4
Ntp3612
Rp3613
(dp3614
g8
I4
sg9
I0
sg10
Nsg11
g3611
sg12
(I4
I0
tp3615
sg14
NsbsS'z(11, 17)'
p3616
g2
(g3
g4
Ntp3617
Rp3618
(dp3619
g8
I11
sg9
I17
sg10
Nsg11
g3616
sg12
(I11
I17
tp3620
sg14
NsbsS'z(24, 10)'
p3621
g2
(g3
g4
Ntp3622
Rp3623
(dp3624
g8
I24
sg9
I10
sg10
Nsg11
g3621
sg12
(I24
I10
tp3625
sg14
NsbsS'z(10, 22)'
p3626
g2
(g3
g4
Ntp3627
Rp3628
(dp3629
g8
I10
sg9
I22
sg10
Nsg11
g3626
sg12
(I10
I22
tp3630
sg14
NsbsS'z(16, 12)'
p3631
g2
(g3
g4
Ntp3632
Rp3633
(dp3634
g8
I16
sg9
I12
sg10
Nsg11
g3631
sg12
(I16
I12
tp3635
sg14
NsbsS'z(22, 16)'
p3636
g2
(g3
g4
Ntp3637
Rp3638
(dp3639
g8
I22
sg9
I16
sg10
Nsg11
g3636
sg12
(I22
I16
tp3640
sg14
NsbsS'z(0, 28)'
p3641
g2
(g3
g4
Ntp3642
Rp3643
(dp3644
g8
I0
sg9
I28
sg10
Nsg11
g3641
sg12
(I0
I28
tp3645
sg14
NsbsS'z(14, 10)'
p3646
g2
(g3
g4
Ntp3647
Rp3648
(dp3649
g8
I14
sg9
I10
sg10
Nsg11
g3646
sg12
(I14
I10
tp3650
sg14
NsbsS'z(18, 13)'
p3651
g2
(g3
g4
Ntp3652
Rp3653
(dp3654
g8
I18
sg9
I13
sg10
Nsg11
g3651
sg12
(I18
I13
tp3655
sg14
NsbsS'z(3, 15)'
p3656
g2
(g3
g4
Ntp3657
Rp3658
(dp3659
g8
I3
sg9
I15
sg10
Nsg11
g3656
sg12
(I3
I15
tp3660
sg14
g2
(g90
g4
Ntp3661
Rp3662
(dp3663
g94
S'1010200023'
p3664
sg96
g3658
sbsbsS'z(23, 13)'
p3665
g2
(g3
g4
Ntp3666
Rp3667
(dp3668
g8
I23
sg9
I13
sg10
Nsg11
g3665
sg12
(I23
I13
tp3669
sg14
NsbsS'z(18, 9)'
p3670
g2
(g3
g4
Ntp3671
Rp3672
(dp3673
g8
I18
sg9
I9
sg10
Nsg11
g3670
sg12
(I18
I9
tp3674
sg14
NsbsS'z(8, 4)'
p3675
g2
(g3
g4
Ntp3676
Rp3677
(dp3678
g8
I8
sg9
I4
sg10
Nsg11
g3675
sg12
(I8
I4
tp3679
sg14
NsbsS'z(27, 16)'
p3680
g2
(g3
g4
Ntp3681
Rp3682
(dp3683
g8
I27
sg9
I16
sg10
Nsg11
g3680
sg12
(I27
I16
tp3684
sg14
NsbsS'z(28, 28)'
p3685
g2
(g3
g4
Ntp3686
Rp3687
(dp3688
g8
I28
sg9
I28
sg10
Nsg11
g3685
sg12
(I28
I28
tp3689
sg14
NsbsS'z(27, 10)'
p3690
g2
(g3
g4
Ntp3691
Rp3692
(dp3693
g8
I27
sg9
I10
sg10
Nsg11
g3690
sg12
(I27
I10
tp3694
sg14
NsbsS'z(0, 11)'
p3695
g2
(g3
g4
Ntp3696
Rp3697
(dp3698
g8
I0
sg9
I11
sg10
Nsg11
g3695
sg12
(I0
I11
tp3699
sg14
NsbsS'z(7, 30)'
p3700
g2
(g3
g4
Ntp3701
Rp3702
(dp3703
g8
I7
sg9
I30
sg10
Nsg11
g3700
sg12
(I7
I30
tp3704
sg14
NsbsS'z(2, 7)'
p3705
g2
(g3
g4
Ntp3706
Rp3707
(dp3708
g8
I2
sg9
I7
sg10
Nsg11
g3705
sg12
(I2
I7
tp3709
sg14
NsbsS'z(21, 6)'
p3710
g2
(g3
g4
Ntp3711
Rp3712
(dp3713
g8
I21
sg9
I6
sg10
Nsg11
g3710
sg12
(I21
I6
tp3714
sg14
NsbsS'z(0, 16)'
p3715
g2
(g3
g4
Ntp3716
Rp3717
(dp3718
g8
I0
sg9
I16
sg10
Nsg11
g3715
sg12
(I0
I16
tp3719
sg14
NsbsS'z(17, 12)'
p3720
g2
(g3
g4
Ntp3721
Rp3722
(dp3723
g8
I17
sg9
I12
sg10
Nsg11
g3720
sg12
(I17
I12
tp3724
sg14
g2
(g90
g4
Ntp3725
Rp3726
(dp3727
g94
S'1010200087'
p3728
sg96
g3722
sbsbsS'z(19, 1)'
p3729
g2
(g3
g4
Ntp3730
Rp3731
(dp3732
g8
I19
sg9
I1
sg10
Nsg11
g3729
sg12
(I19
I1
tp3733
sg14
g2
(g90
g4
Ntp3734
Rp3735
(dp3736
g94
S'1010200094'
p3737
sg96
g3731
sbsbsS'z(9, 7)'
p3738
g2
(g3
g4
Ntp3739
Rp3740
(dp3741
g8
I9
sg9
I7
sg10
Nsg11
g3738
sg12
(I9
I7
tp3742
sg14
NsbsS'z(4, 9)'
p3743
g2
(g3
g4
Ntp3744
Rp3745
(dp3746
g8
I4
sg9
I9
sg10
Nsg11
g3743
sg12
(I4
I9
tp3747
sg14
NsbsS'z(1, 10)'
p3748
g2
(g3
g4
Ntp3749
Rp3750
(dp3751
g8
I1
sg9
I10
sg10
Nsg11
g3748
sg12
(I1
I10
tp3752
sg14
NsbsS'z(27, 15)'
p3753
g2
(g3
g4
Ntp3754
Rp3755
(dp3756
g8
I27
sg9
I15
sg10
Nsg11
g3753
sg12
(I27
I15
tp3757
sg14
NsbsS'z(1, 17)'
p3758
g2
(g3
g4
Ntp3759
Rp3760
(dp3761
g8
I1
sg9
I17
sg10
Nsg11
g3758
sg12
(I1
I17
tp3762
sg14
NsbsS'z(17, 7)'
p3763
g2
(g3
g4
Ntp3764
Rp3765
(dp3766
g8
I17
sg9
I7
sg10
Nsg11
g3763
sg12
(I17
I7
tp3767
sg14
g2
(g90
g4
Ntp3768
Rp3769
(dp3770
g94
S'1010200089'
p3771
sg96
g3765
sbsbsS'z(13, 14)'
p3772
g2
(g3
g4
Ntp3773
Rp3774
(dp3775
g8
I13
sg9
I14
sg10
Nsg11
g3772
sg12
(I13
I14
tp3776
sg14
NsbsS'z(24, 23)'
p3777
g2
(g3
g4
Ntp3778
Rp3779
(dp3780
g8
I24
sg9
I23
sg10
Nsg11
g3777
sg12
(I24
I23
tp3781
sg14
NsbsS'z(5, 29)'
p3782
g2
(g3
g4
Ntp3783
Rp3784
(dp3785
g8
I5
sg9
I29
sg10
Nsg11
g3782
sg12
(I5
I29
tp3786
sg14
NsbsS'z(16, 27)'
p3787
g2
(g3
g4
Ntp3788
Rp3789
(dp3790
g8
I16
sg9
I27
sg10
Nsg11
g3787
sg12
(I16
I27
tp3791
sg14
NsbsS'z(26, 2)'
p3792
g2
(g3
g4
Ntp3793
Rp3794
(dp3795
g8
I26
sg9
I2
sg10
Nsg11
g3792
sg12
(I26
I2
tp3796
sg14
g2
(g90
g4
Ntp3797
Rp3798
(dp3799
g94
S'1010200074'
p3800
sg96
g3794
sbsbsS'z(18, 22)'
p3801
g2
(g3
g4
Ntp3802
Rp3803
(dp3804
g8
I18
sg9
I22
sg10
Nsg11
g3801
sg12
(I18
I22
tp3805
sg14
NsbsS'z(5, 7)'
p3806
g2
(g3
g4
Ntp3807
Rp3808
(dp3809
g8
I5
sg9
I7
sg10
Nsg11
g3806
sg12
(I5
I7
tp3810
sg14
NsbsS'z(11, 28)'
p3811
g2
(g3
g4
Ntp3812
Rp3813
(dp3814
g8
I11
sg9
I28
sg10
Nsg11
g3811
sg12
(I11
I28
tp3815
sg14
NsbsS'z(26, 24)'
p3816
g2
(g3
g4
Ntp3817
Rp3818
(dp3819
g8
I26
sg9
I24
sg10
Nsg11
g3816
sg12
(I26
I24
tp3820
sg14
NsbsS'z(3, 2)'
p3821
g2
(g3
g4
Ntp3822
Rp3823
(dp3824
g8
I3
sg9
I2
sg10
Nsg11
g3821
sg12
(I3
I2
tp3825
sg14
NsbsS'z(6, 23)'
p3826
g2
(g3
g4
Ntp3827
Rp3828
(dp3829
g8
I6
sg9
I23
sg10
Nsg11
g3826
sg12
(I6
I23
tp3830
sg14
NsbsS'z(2, 1)'
p3831
g2
(g3
g4
Ntp3832
Rp3833
(dp3834
g8
I2
sg9
I1
sg10
Nsg11
g3831
sg12
(I2
I1
tp3835
sg14
NsbsS'z(7, 23)'
p3836
g2
(g3
g4
Ntp3837
Rp3838
(dp3839
g8
I7
sg9
I23
sg10
Nsg11
g3836
sg12
(I7
I23
tp3840
sg14
NsbsS'z(5, 19)'
p3841
g2
(g3
g4
Ntp3842
Rp3843
(dp3844
g8
I5
sg9
I19
sg10
Nsg11
g3841
sg12
(I5
I19
tp3845
sg14
NsbsS'z(20, 25)'
p3846
g2
(g3
g4
Ntp3847
Rp3848
(dp3849
g8
I20
sg9
I25
sg10
Nsg11
g3846
sg12
(I20
I25
tp3850
sg14
NsbsS'z(4, 17)'
p3851
g2
(g3
g4
Ntp3852
Rp3853
(dp3854
g8
I4
sg9
I17
sg10
Nsg11
g3851
sg12
(I4
I17
tp3855
sg14
NsbsS'z(10, 26)'
p3856
g2
(g3
g4
Ntp3857
Rp3858
(dp3859
g8
I10
sg9
I26
sg10
Nsg11
g3856
sg12
(I10
I26
tp3860
sg14
NsbsS'z(15, 14)'
p3861
g2
(g3
g4
Ntp3862
Rp3863
(dp3864
g8
I15
sg9
I14
sg10
Nsg11
g3861
sg12
(I15
I14
tp3865
sg14
g2
(g90
g4
Ntp3866
Rp3867
(dp3868
g94
S'1010200046'
p3869
sg96
g3863
sbsbsS'z(26, 23)'
p3870
g2
(g3
g4
Ntp3871
Rp3872
(dp3873
g8
I26
sg9
I23
sg10
Nsg11
g3870
sg12
(I26
I23
tp3874
sg14
NsbsS'z(8, 7)'
p3875
g2
(g3
g4
Ntp3876
Rp3877
(dp3878
g8
I8
sg9
I7
sg10
Nsg11
g3875
sg12
(I8
I7
tp3879
sg14
NsbsS'z(23, 14)'
p3880
g2
(g3
g4
Ntp3881
Rp3882
(dp3883
g8
I23
sg9
I14
sg10
Nsg11
g3880
sg12
(I23
I14
tp3884
sg14
NsbsS'z(3, 12)'
p3885
g2
(g3
g4
Ntp3886
Rp3887
(dp3888
g8
I3
sg9
I12
sg10
Nsg11
g3885
sg12
(I3
I12
tp3889
sg14
g2
(g90
g4
Ntp3890
Rp3891
(dp3892
g94
S'1010200128'
p3893
sg96
g3887
sbsbsS'z(2, 8)'
p3894
g2
(g3
g4
Ntp3895
Rp3896
(dp3897
g8
I2
sg9
I8
sg10
Nsg11
g3894
sg12
(I2
I8
tp3898
sg14
NsbsS'z(3, 29)'
p3899
g2
(g3
g4
Ntp3900
Rp3901
(dp3902
g8
I3
sg9
I29
sg10
Nsg11
g3899
sg12
(I3
I29
tp3903
sg14
NsbsS'z(18, 0)'
p3904
g2
(g3
g4
Ntp3905
Rp3906
(dp3907
g8
I18
sg9
I0
sg10
Nsg11
g3904
sg12
(I18
I0
tp3908
sg14
NsbsS'z(28, 9)'
p3909
g2
(g3
g4
Ntp3910
Rp3911
(dp3912
g8
I28
sg9
I9
sg10
Nsg11
g3909
sg12
(I28
I9
tp3913
sg14
NsbsS'z(12, 7)'
p3914
g2
(g3
g4
Ntp3915
Rp3916
(dp3917
g8
I12
sg9
I7
sg10
Nsg11
g3914
sg12
(I12
I7
tp3918
sg14
g2
(g90
g4
Ntp3919
Rp3920
(dp3921
g94
S'1010200100'
p3922
sg96
g3916
sbsbsS'z(28, 21)'
p3923
g2
(g3
g4
Ntp3924
Rp3925
(dp3926
g8
I28
sg9
I21
sg10
Nsg11
g3923
sg12
(I28
I21
tp3927
sg14
NsbsS'z(10, 4)'
p3928
g2
(g3
g4
Ntp3929
Rp3930
(dp3931
g8
I10
sg9
I4
sg10
Nsg11
g3928
sg12
(I10
I4
tp3932
sg14
NsbsS'z(8, 12)'
p3933
g2
(g3
g4
Ntp3934
Rp3935
(dp3936
g8
I8
sg9
I12
sg10
Nsg11
g3933
sg12
(I8
I12
tp3937
sg14
NsbsS'z(21, 29)'
p3938
g2
(g3
g4
Ntp3939
Rp3940
(dp3941
g8
I21
sg9
I29
sg10
Nsg11
g3938
sg12
(I21
I29
tp3942
sg14
NsbsS'z(7, 4)'
p3943
g2
(g3
g4
Ntp3944
Rp3945
(dp3946
g8
I7
sg9
I4
sg10
Nsg11
g3943
sg12
(I7
I4
tp3947
sg14
NsbsS'z(28, 13)'
p3948
g2
(g3
g4
Ntp3949
Rp3950
(dp3951
g8
I28
sg9
I13
sg10
Nsg11
g3948
sg12
(I28
I13
tp3952
sg14
NsbsS'z(3, 30)'
p3953
g2
(g3
g4
Ntp3954
Rp3955
(dp3956
g8
I3
sg9
I30
sg10
Nsg11
g3953
sg12
(I3
I30
tp3957
sg14
NsbsS'z(1, 20)'
p3958
g2
(g3
g4
Ntp3959
Rp3960
(dp3961
g8
I1
sg9
I20
sg10
Nsg11
g3958
sg12
(I1
I20
tp3962
sg14
NsbsS'z(5, 12)'
p3963
g2
(g3
g4
Ntp3964
Rp3965
(dp3966
g8
I5
sg9
I12
sg10
Nsg11
g3963
sg12
(I5
I12
tp3967
sg14
NsbsS'z(20, 22)'
p3968
g2
(g3
g4
Ntp3969
Rp3970
(dp3971
g8
I20
sg9
I22
sg10
Nsg11
g3968
sg12
(I20
I22
tp3972
sg14
NsbsS'z(25, 2)'
p3973
g2
(g3
g4
Ntp3974
Rp3975
(dp3976
g8
I25
sg9
I2
sg10
Nsg11
g3973
sg12
(I25
I2
tp3977
sg14
g2
(g90
g4
Ntp3978
Rp3979
(dp3980
g94
S'1010200077'
p3981
sg96
g3975
sbsbsS'z(2, 19)'
p3982
g2
(g3
g4
Ntp3983
Rp3984
(dp3985
g8
I2
sg9
I19
sg10
Nsg11
g3982
sg12
(I2
I19
tp3986
sg14
NsbsS'z(23, 9)'
p3987
g2
(g3
g4
Ntp3988
Rp3989
(dp3990
g8
I23
sg9
I9
sg10
Nsg11
g3987
sg12
(I23
I9
tp3991
sg14
NsbsS'z(22, 11)'
p3992
g2
(g3
g4
Ntp3993
Rp3994
(dp3995
g8
I22
sg9
I11
sg10
Nsg11
g3992
sg12
(I22
I11
tp3996
sg14
g2
(g90
g4
Ntp3997
Rp3998
(dp3999
g94
S'1010200063'
p4000
sg96
g3994
sbsbsS'z(13, 21)'
p4001
g2
(g3
g4
Ntp4002
Rp4003
(dp4004
g8
I13
sg9
I21
sg10
Nsg11
g4001
sg12
(I13
I21
tp4005
sg14
NsbsS'z(9, 10)'
p4006
g2
(g3
g4
Ntp4007
Rp4008
(dp4009
g8
I9
sg9
I10
sg10
Nsg11
g4006
sg12
(I9
I10
tp4010
sg14
NsbsS'z(2, 22)'
p4011
g2
(g3
g4
Ntp4012
Rp4013
(dp4014
g8
I2
sg9
I22
sg10
Nsg11
g4011
sg12
(I2
I22
tp4015
sg14
NsbsS'z(19, 25)'
p4016
g2
(g3
g4
Ntp4017
Rp4018
(dp4019
g8
I19
sg9
I25
sg10
Nsg11
g4016
sg12
(I19
I25
tp4020
sg14
NsbsS'z(12, 16)'
p4021
g2
(g3
g4
Ntp4022
Rp4023
(dp4024
g8
I12
sg9
I16
sg10
Nsg11
g4021
sg12
(I12
I16
tp4025
sg14
NsbsS'z(23, 6)'
p4026
g2
(g3
g4
Ntp4027
Rp4028
(dp4029
g8
I23
sg9
I6
sg10
Nsg11
g4026
sg12
(I23
I6
tp4030
sg14
g2
(g90
g4
Ntp4031
Rp4032
(dp4033
g94
S'1010200068'
p4034
sg96
g4028
sbsbsS'z(18, 7)'
p4035
g2
(g3
g4
Ntp4036
Rp4037
(dp4038
g8
I18
sg9
I7
sg10
Nsg11
g4035
sg12
(I18
I7
tp4039
sg14
g2
(g90
g4
Ntp4040
Rp4041
(dp4042
g94
S'1010200090'
p4043
sg96
g4037
sbsbsS'z(28, 2)'
p4044
g2
(g3
g4
Ntp4045
Rp4046
(dp4047
g8
I28
sg9
I2
sg10
Nsg11
g4044
sg12
(I28
I2
tp4048
sg14
NsbsS'z(16, 5)'
p4049
g2
(g3
g4
Ntp4050
Rp4051
(dp4052
g8
I16
sg9
I5
sg10
Nsg11
g4049
sg12
(I16
I5
tp4053
sg14
g2
(g90
g4
Ntp4054
Rp4055
(dp4056
g94
S'1010200103'
p4057
sg96
g4051
sbsbsS'z(13, 28)'
p4058
g2
(g3
g4
Ntp4059
Rp4060
(dp4061
g8
I13
sg9
I28
sg10
Nsg11
g4058
sg12
(I13
I28
tp4062
sg14
NsbsS'z(25, 30)'
p4063
g2
(g3
g4
Ntp4064
Rp4065
(dp4066
g8
I25
sg9
I30
sg10
Nsg11
g4063
sg12
(I25
I30
tp4067
sg14
NsbsS'z(24, 7)'
p4068
g2
(g3
g4
Ntp4069
Rp4070
(dp4071
g8
I24
sg9
I7
sg10
Nsg11
g4068
sg12
(I24
I7
tp4072
sg14
NsbsS'z(11, 30)'
p4073
g2
(g3
g4
Ntp4074
Rp4075
(dp4076
g8
I11
sg9
I30
sg10
Nsg11
g4073
sg12
(I11
I30
tp4077
sg14
NsbsS'z(4, 23)'
p4078
g2
(g3
g4
Ntp4079
Rp4080
(dp4081
g8
I4
sg9
I23
sg10
Nsg11
g4078
sg12
(I4
I23
tp4082
sg14
g2
(g90
g4
Ntp4083
Rp4084
(dp4085
g94
S'1010200139'
p4086
sg96
g4080
sbsbsS'z(22, 25)'
p4087
g2
(g3
g4
Ntp4088
Rp4089
(dp4090
g8
I22
sg9
I25
sg10
Nsg11
g4087
sg12
(I22
I25
tp4091
sg14
NsbsS'z(7, 19)'
p4092
g2
(g3
g4
Ntp4093
Rp4094
(dp4095
g8
I7
sg9
I19
sg10
Nsg11
g4092
sg12
(I7
I19
tp4096
sg14
NsbsS'z(3, 26)'
p4097
g2
(g3
g4
Ntp4098
Rp4099
(dp4100
g8
I3
sg9
I26
sg10
Nsg11
g4097
sg12
(I3
I26
tp4101
sg14
NsbsS'z(10, 28)'
p4102
g2
(g3
g4
Ntp4103
Rp4104
(dp4105
g8
I10
sg9
I28
sg10
Nsg11
g4102
sg12
(I10
I28
tp4106
sg14
NsbsS'z(15, 24)'
p4107
g2
(g3
g4
Ntp4108
Rp4109
(dp4110
g8
I15
sg9
I24
sg10
Nsg11
g4107
sg12
(I15
I24
tp4111
sg14
NsbsS'z(18, 29)'
p4112
g2
(g3
g4
Ntp4113
Rp4114
(dp4115
g8
I18
sg9
I29
sg10
Nsg11
g4112
sg12
(I18
I29
tp4116
sg14
NsbsS'z(27, 19)'
p4117
g2
(g3
g4
Ntp4118
Rp4119
(dp4120
g8
I27
sg9
I19
sg10
Nsg11
g4117
sg12
(I27
I19
tp4121
sg14
NsbsS'z(11, 13)'
p4122
g2
(g3
g4
Ntp4123
Rp4124
(dp4125
g8
I11
sg9
I13
sg10
Nsg11
g4122
sg12
(I11
I13
tp4126
sg14
NsbsS'z(24, 14)'
p4127
g2
(g3
g4
Ntp4128
Rp4129
(dp4130
g8
I24
sg9
I14
sg10
Nsg11
g4127
sg12
(I24
I14
tp4131
sg14
NsbsS'z(19, 22)'
p4132
g2
(g3
g4
Ntp4133
Rp4134
(dp4135
g8
I19
sg9
I22
sg10
Nsg11
g4132
sg12
(I19
I22
tp4136
sg14
NsbsS'z(9, 8)'
p4137
g2
(g3
g4
Ntp4138
Rp4139
(dp4140
g8
I9
sg9
I8
sg10
Nsg11
g4137
sg12
(I9
I8
tp4141
sg14
NsbsS'z(22, 3)'
p4142
g2
(g3
g4
Ntp4143
Rp4144
(dp4145
g8
I22
sg9
I3
sg10
Nsg11
g4142
sg12
(I22
I3
tp4146
sg14
NsbsS'z(23, 24)'
p4147
g2
(g3
g4
Ntp4148
Rp4149
(dp4150
g8
I23
sg9
I24
sg10
Nsg11
g4147
sg12
(I23
I24
tp4151
sg14
NsbsS'z(20, 8)'
p4152
g2
(g3
g4
Ntp4153
Rp4154
(dp4155
g8
I20
sg9
I8
sg10
Nsg11
g4152
sg12
(I20
I8
tp4156
sg14
NsbsS'z(27, 4)'
p4157
g2
(g3
g4
Ntp4158
Rp4159
(dp4160
g8
I27
sg9
I4
sg10
Nsg11
g4157
sg12
(I27
I4
tp4161
sg14
NsbsS'z(21, 17)'
p4162
g2
(g3
g4
Ntp4163
Rp4164
(dp4165
g8
I21
sg9
I17
sg10
Nsg11
g4162
sg12
(I21
I17
tp4166
sg14
NsbsS'z(15, 18)'
p4167
g2
(g3
g4
Ntp4168
Rp4169
(dp4170
g8
I15
sg9
I18
sg10
Nsg11
g4167
sg12
(I15
I18
tp4171
sg14
NsbsS'z(24, 30)'
p4172
g2
(g3
g4
Ntp4173
Rp4174
(dp4175
g8
I24
sg9
I30
sg10
Nsg11
g4172
sg12
(I24
I30
tp4176
sg14
NsbsS'z(1, 0)'
p4177
g2
(g3
g4
Ntp4178
Rp4179
(dp4180
g8
I1
sg9
I0
sg10
Nsg11
g4177
sg12
(I1
I0
tp4181
sg14
NsbsS'z(10, 30)'
p4182
g2
(g3
g4
Ntp4183
Rp4184
(dp4185
g8
I10
sg9
I30
sg10
Nsg11
g4182
sg12
(I10
I30
tp4186
sg14
NsbsS'z(24, 28)'
p4187
g2
(g3
g4
Ntp4188
Rp4189
(dp4190
g8
I24
sg9
I28
sg10
Nsg11
g4187
sg12
(I24
I28
tp4191
sg14
NsbsS'z(11, 1)'
p4192
g2
(g3
g4
Ntp4193
Rp4194
(dp4195
g8
I11
sg9
I1
sg10
Nsg11
g4192
sg12
(I11
I1
tp4196
sg14
NsbsS'z(13, 8)'
p4197
g2
(g3
g4
Ntp4198
Rp4199
(dp4200
g8
I13
sg9
I8
sg10
Nsg11
g4197
sg12
(I13
I8
tp4201
sg14
NsbsS'z(20, 7)'
p4202
g2
(g3
g4
Ntp4203
Rp4204
(dp4205
g8
I20
sg9
I7
sg10
Nsg11
g4202
sg12
(I20
I7
tp4206
sg14
g2
(g90
g4
Ntp4207
Rp4208
(dp4209
g94
S'1010200091'
p4210
sg96
g4204
sbsbsS'z(24, 0)'
p4211
g2
(g3
g4
Ntp4212
Rp4213
(dp4214
g8
I24
sg9
I0
sg10
Nsg11
g4211
sg12
(I24
I0
tp4215
sg14
NsbsS'z(6, 27)'
p4216
g2
(g3
g4
Ntp4217
Rp4218
(dp4219
g8
I6
sg9
I27
sg10
Nsg11
g4216
sg12
(I6
I27
tp4220
sg14
NsbsS'z(4, 28)'
p4221
g2
(g3
g4
Ntp4222
Rp4223
(dp4224
g8
I4
sg9
I28
sg10
Nsg11
g4221
sg12
(I4
I28
tp4225
sg14
NsbsS'z(21, 22)'
p4226
g2
(g3
g4
Ntp4227
Rp4228
(dp4229
g8
I21
sg9
I22
sg10
Nsg11
g4226
sg12
(I21
I22
tp4230
sg14
NsbsS'z(13, 24)'
p4231
g2
(g3
g4
Ntp4232
Rp4233
(dp4234
g8
I13
sg9
I24
sg10
Nsg11
g4231
sg12
(I13
I24
tp4235
sg14
NsbsS'z(15, 6)'
p4236
g2
(g3
g4
Ntp4237
Rp4238
(dp4239
g8
I15
sg9
I6
sg10
Nsg11
g4236
sg12
(I15
I6
tp4240
sg14
NsbsS'z(6, 17)'
p4241
g2
(g3
g4
Ntp4242
Rp4243
(dp4244
g8
I6
sg9
I17
sg10
Nsg11
g4241
sg12
(I6
I17
tp4245
sg14
NsbsS'z(25, 15)'
p4246
g2
(g3
g4
Ntp4247
Rp4248
(dp4249
g8
I25
sg9
I15
sg10
Nsg11
g4246
sg12
(I25
I15
tp4250
sg14
NsbsS'z(22, 17)'
p4251
g2
(g3
g4
Ntp4252
Rp4253
(dp4254
g8
I22
sg9
I17
sg10
Nsg11
g4251
sg12
(I22
I17
tp4255
sg14
NsbsS'z(1, 12)'
p4256
g2
(g3
g4
Ntp4257
Rp4258
(dp4259
g8
I1
sg9
I12
sg10
Nsg11
g4256
sg12
(I1
I12
tp4260
sg14
g2
(g90
g4
Ntp4261
Rp4262
(dp4263
g94
S'1010200132'
p4264
sg96
g4258
sbsbsS'z(2, 10)'
p4265
g2
(g3
g4
Ntp4266
Rp4267
(dp4268
g8
I2
sg9
I10
sg10
Nsg11
g4265
sg12
(I2
I10
tp4269
sg14
NsbsS'z(11, 8)'
p4270
g2
(g3
g4
Ntp4271
Rp4272
(dp4273
g8
I11
sg9
I8
sg10
Nsg11
g4270
sg12
(I11
I8
tp4274
sg14
NsbsS'z(7, 3)'
p4275
g2
(g3
g4
Ntp4276
Rp4277
(dp4278
g8
I7
sg9
I3
sg10
Nsg11
g4275
sg12
(I7
I3
tp4279
sg14
NsbsS'z(25, 9)'
p4280
g2
(g3
g4
Ntp4281
Rp4282
(dp4283
g8
I25
sg9
I9
sg10
Nsg11
g4280
sg12
(I25
I9
tp4284
sg14
g2
(g90
g4
Ntp4285
Rp4286
(dp4287
g94
S'1010200060'
p4288
sg96
g4282
sbsbsS'z(10, 16)'
p4289
g2
(g3
g4
Ntp4290
Rp4291
(dp4292
g8
I10
sg9
I16
sg10
Nsg11
g4289
sg12
(I10
I16
tp4293
sg14
NsbsS'z(25, 25)'
p4294
g2
(g3
g4
Ntp4295
Rp4296
(dp4297
g8
I25
sg9
I25
sg10
Nsg11
g4294
sg12
(I25
I25
tp4298
sg14
NsbsS'z(17, 10)'
p4299
g2
(g3
g4
Ntp4300
Rp4301
(dp4302
g8
I17
sg9
I10
sg10
Nsg11
g4299
sg12
(I17
I10
tp4303
sg14
NsbsS'z(20, 13)'
p4304
g2
(g3
g4
Ntp4305
Rp4306
(dp4307
g8
I20
sg9
I13
sg10
Nsg11
g4304
sg12
(I20
I13
tp4308
sg14
NsbsS'z(9, 19)'
p4309
g2
(g3
g4
Ntp4310
Rp4311
(dp4312
g8
I9
sg9
I19
sg10
Nsg11
g4309
sg12
(I9
I19
tp4313
sg14
NsbsS'z(8, 8)'
p4314
g2
(g3
g4
Ntp4315
Rp4316
(dp4317
g8
I8
sg9
I8
sg10
Nsg11
g4314
sg12
(I8
I8
tp4318
sg14
NsbsS'z(15, 8)'
p4319
g2
(g3
g4
Ntp4320
Rp4321
(dp4322
g8
I15
sg9
I8
sg10
Nsg11
g4319
sg12
(I15
I8
tp4323
sg14
NsbsS'z(4, 27)'
p4324
g2
(g3
g4
Ntp4325
Rp4326
(dp4327
g8
I4
sg9
I27
sg10
Nsg11
g4324
sg12
(I4
I27
tp4328
sg14
NsbsS'z(13, 1)'
p4329
g2
(g3
g4
Ntp4330
Rp4331
(dp4332
g8
I13
sg9
I1
sg10
Nsg11
g4329
sg12
(I13
I1
tp4333
sg14
NsbsS'z(17, 28)'
p4334
g2
(g3
g4
Ntp4335
Rp4336
(dp4337
g8
I17
sg9
I28
sg10
Nsg11
g4334
sg12
(I17
I28
tp4338
sg14
NsbsS'z(27, 30)'
p4339
g2
(g3
g4
Ntp4340
Rp4341
(dp4342
g8
I27
sg9
I30
sg10
Nsg11
g4339
sg12
(I27
I30
tp4343
sg14
NsbsS'z(18, 17)'
p4344
g2
(g3
g4
Ntp4345
Rp4346
(dp4347
g8
I18
sg9
I17
sg10
Nsg11
g4344
sg12
(I18
I17
tp4348
sg14
NsbsS'z(3, 19)'
p4349
g2
(g3
g4
Ntp4350
Rp4351
(dp4352
g8
I3
sg9
I19
sg10
Nsg11
g4349
sg12
(I3
I19
tp4353
sg14
NsbsS'z(2, 3)'
p4354
g2
(g3
g4
Ntp4355
Rp4356
(dp4357
g8
I2
sg9
I3
sg10
Nsg11
g4354
sg12
(I2
I3
tp4358
sg14
NsbsS'z(14, 22)'
p4359
g2
(g3
g4
Ntp4360
Rp4361
(dp4362
g8
I14
sg9
I22
sg10
Nsg11
g4359
sg12
(I14
I22
tp4363
sg14
NsbsS'z(12, 8)'
p4364
g2
(g3
g4
Ntp4365
Rp4366
(dp4367
g8
I12
sg9
I8
sg10
Nsg11
g4364
sg12
(I12
I8
tp4368
sg14
NsbsS'z(11, 21)'
p4369
g2
(g3
g4
Ntp4370
Rp4371
(dp4372
g8
I11
sg9
I21
sg10
Nsg11
g4369
sg12
(I11
I21
tp4373
sg14
NsbsS'z(6, 2)'
p4374
g2
(g3
g4
Ntp4375
Rp4376
(dp4377
g8
I6
sg9
I2
sg10
Nsg11
g4374
sg12
(I6
I2
tp4378
sg14
NsbsS'z(7, 22)'
p4379
g2
(g3
g4
Ntp4380
Rp4381
(dp4382
g8
I7
sg9
I22
sg10
Nsg11
g4379
sg12
(I7
I22
tp4383
sg14
g2
(g90
g4
Ntp4384
Rp4385
(dp4386
g94
S'1010200015'
p4387
sg96
g4381
sbsbsS'z(17, 11)'
p4388
g2
(g3
g4
Ntp4389
Rp4390
(dp4391
g8
I17
sg9
I11
sg10
Nsg11
g4388
sg12
(I17
I11
tp4392
sg14
NsbsS'z(0, 15)'
p4393
g2
(g3
g4
Ntp4394
Rp4395
(dp4396
g8
I0
sg9
I15
sg10
Nsg11
g4393
sg12
(I0
I15
tp4397
sg14
g2
(g90
g4
Ntp4398
Rp4399
(dp4400
g94
S'1010200136'
p4401
sg96
g4395
sbsbsS'z(19, 6)'
p4402
g2
(g3
g4
Ntp4403
Rp4404
(dp4405
g8
I19
sg9
I6
sg10
Nsg11
g4402
sg12
(I19
I6
tp4406
sg14
NsbsS'z(0, 23)'
p4407
g2
(g3
g4
Ntp4408
Rp4409
(dp4410
g8
I0
sg9
I23
sg10
Nsg11
g4407
sg12
(I0
I23
tp4411
sg14
NsbsS'z(2, 17)'
p4412
g2
(g3
g4
Ntp4413
Rp4414
(dp4415
g8
I2
sg9
I17
sg10
Nsg11
g4412
sg12
(I2
I17
tp4416
sg14
g2
(g90
g4
Ntp4417
Rp4418
(dp4419
g94
S'1010200138'
p4420
sg96
g4414
sbsbsS'z(22, 29)'
p4421
g2
(g3
g4
Ntp4422
Rp4423
(dp4424
g8
I22
sg9
I29
sg10
Nsg11
g4421
sg12
(I22
I29
tp4425
sg14
NsbsS'z(6, 9)'
p4426
g2
(g3
g4
Ntp4427
Rp4428
(dp4429
g8
I6
sg9
I9
sg10
Nsg11
g4426
sg12
(I6
I9
tp4430
sg14
NsbsS'z(7, 13)'
p4431
g2
(g3
g4
Ntp4432
Rp4433
(dp4434
g8
I7
sg9
I13
sg10
Nsg11
g4431
sg12
(I7
I13
tp4435
sg14
NsbsS'z(26, 14)'
p4436
g2
(g3
g4
Ntp4437
Rp4438
(dp4439
g8
I26
sg9
I14
sg10
Nsg11
g4436
sg12
(I26
I14
tp4440
sg14
NsbsS'z(21, 2)'
p4441
g2
(g3
g4
Ntp4442
Rp4443
(dp4444
g8
I21
sg9
I2
sg10
Nsg11
g4441
sg12
(I21
I2
tp4445
sg14
NsbsS'z(24, 13)'
p4446
g2
(g3
g4
Ntp4447
Rp4448
(dp4449
g8
I24
sg9
I13
sg10
Nsg11
g4446
sg12
(I24
I13
tp4450
sg14
g2
(g90
g4
Ntp4451
Rp4452
(dp4453
g94
S'1010200066'
p4454
sg96
g4448
sbsbsS'z(25, 23)'
p4455
g2
(g3
g4
Ntp4456
Rp4457
(dp4458
g8
I25
sg9
I23
sg10
Nsg11
g4455
sg12
(I25
I23
tp4459
sg14
NsbsS'z(0, 3)'
p4460
g2
(g3
g4
Ntp4461
Rp4462
(dp4463
g8
I0
sg9
I3
sg10
Nsg11
g4460
sg12
(I0
I3
tp4464
sg14
NsbsS'z(22, 8)'
p4465
g2
(g3
g4
Ntp4466
Rp4467
(dp4468
g8
I22
sg9
I8
sg10
Nsg11
g4465
sg12
(I22
I8
tp4469
sg14
NsbsS'z(9, 3)'
p4470
g2
(g3
g4
Ntp4471
Rp4472
(dp4473
g8
I9
sg9
I3
sg10
Nsg11
g4470
sg12
(I9
I3
tp4474
sg14
NsbsS'z(17, 3)'
p4475
g2
(g3
g4
Ntp4476
Rp4477
(dp4478
g8
I17
sg9
I3
sg10
Nsg11
g4475
sg12
(I17
I3
tp4479
sg14
NsbsS'z(4, 5)'
p4480
g2
(g3
g4
Ntp4481
Rp4482
(dp4483
g8
I4
sg9
I5
sg10
Nsg11
g4480
sg12
(I4
I5
tp4484
sg14
g2
(g90
g4
Ntp4485
Rp4486
(dp4487
g94
S'1010200124'
p4488
sg96
g4482
sbsbsS'z(14, 25)'
p4489
g2
(g3
g4
Ntp4490
Rp4491
(dp4492
g8
I14
sg9
I25
sg10
Nsg11
g4489
sg12
(I14
I25
tp4493
sg14
NsbsS'z(12, 3)'
p4494
g2
(g3
g4
Ntp4495
Rp4496
(dp4497
g8
I12
sg9
I3
sg10
Nsg11
g4494
sg12
(I12
I3
tp4498
sg14
NsbsS'z(28, 25)'
p4499
g2
(g3
g4
Ntp4500
Rp4501
(dp4502
g8
I28
sg9
I25
sg10
Nsg11
g4499
sg12
(I28
I25
tp4503
sg14
NsbsS'z(2, 4)'
p4504
g2
(g3
g4
Ntp4505
Rp4506
(dp4507
g8
I2
sg9
I4
sg10
Nsg11
g4504
sg12
(I2
I4
tp4508
sg14
g2
(g90
g4
Ntp4509
Rp4510
(dp4511
g94
S'1010200116'
p4512
sg96
g4506
sbsbsS'z(7, 29)'
p4513
g2
(g3
g4
Ntp4514
Rp4515
(dp4516
g8
I7
sg9
I29
sg10
Nsg11
g4513
sg12
(I7
I29
tp4517
sg14
NsbsS'z(26, 20)'
p4518
g2
(g3
g4
Ntp4519
Rp4520
(dp4521
g8
I26
sg9
I20
sg10
Nsg11
g4518
sg12
(I26
I20
tp4522
sg14
NsbsS'z(20, 24)'
p4523
g2
(g3
g4
Ntp4524
Rp4525
(dp4526
g8
I20
sg9
I24
sg10
Nsg11
g4523
sg12
(I20
I24
tp4527
sg14
NsbsS'z(16, 18)'
p4528
g2
(g3
g4
Ntp4529
Rp4530
(dp4531
g8
I16
sg9
I18
sg10
Nsg11
g4528
sg12
(I16
I18
tp4532
sg14
NsbsS'z(14, 2)'
p4533
g2
(g3
g4
Ntp4534
Rp4535
(dp4536
g8
I14
sg9
I2
sg10
Nsg11
g4533
sg12
(I14
I2
tp4537
sg14
NsbsS'z(0, 8)'
p4538
g2
(g3
g4
Ntp4539
Rp4540
(dp4541
g8
I0
sg9
I8
sg10
Nsg11
g4538
sg12
(I0
I8
tp4542
sg14
NsbsS'z(13, 13)'
p4543
g2
(g3
g4
Ntp4544
Rp4545
(dp4546
g8
I13
sg9
I13
sg10
Nsg11
g4543
sg12
(I13
I13
tp4547
sg14
NsbsS'z(8, 30)'
p4548
g2
(g3
g4
Ntp4549
Rp4550
(dp4551
g8
I8
sg9
I30
sg10
Nsg11
g4548
sg12
(I8
I30
tp4552
sg14
NsbsS'z(24, 12)'
p4553
g2
(g3
g4
Ntp4554
Rp4555
(dp4556
g8
I24
sg9
I12
sg10
Nsg11
g4553
sg12
(I24
I12
tp4557
sg14
NsbsS'z(8, 1)'
p4558
g2
(g3
g4
Ntp4559
Rp4560
(dp4561
g8
I8
sg9
I1
sg10
Nsg11
g4558
sg12
(I8
I1
tp4562
sg14
NsbsS'z(14, 15)'
p4563
g2
(g3
g4
Ntp4564
Rp4565
(dp4566
g8
I14
sg9
I15
sg10
Nsg11
g4563
sg12
(I14
I15
tp4567
sg14
NsbsS'z(8, 13)'
p4568
g2
(g3
g4
Ntp4569
Rp4570
(dp4571
g8
I8
sg9
I13
sg10
Nsg11
g4568
sg12
(I8
I13
tp4572
sg14
NsbsS'z(23, 10)'
p4573
g2
(g3
g4
Ntp4574
Rp4575
(dp4576
g8
I23
sg9
I10
sg10
Nsg11
g4573
sg12
(I23
I10
tp4577
sg14
NsbsS'z(3, 16)'
p4578
g2
(g3
g4
Ntp4579
Rp4580
(dp4581
g8
I3
sg9
I16
sg10
Nsg11
g4578
sg12
(I3
I16
tp4582
sg14
NsbsS'z(5, 27)'
p4583
g2
(g3
g4
Ntp4584
Rp4585
(dp4586
g8
I5
sg9
I27
sg10
Nsg11
g4583
sg12
(I5
I27
tp4587
sg14
NsbsS'z(11, 25)'
p4588
g2
(g3
g4
Ntp4589
Rp4590
(dp4591
g8
I11
sg9
I25
sg10
Nsg11
g4588
sg12
(I11
I25
tp4592
sg14
NsbsS'z(3, 22)'
p4593
g2
(g3
g4
Ntp4594
Rp4595
(dp4596
g8
I3
sg9
I22
sg10
Nsg11
g4593
sg12
(I3
I22
tp4597
sg14
NsbsS'z(15, 20)'
p4598
g2
(g3
g4
Ntp4599
Rp4600
(dp4601
g8
I15
sg9
I20
sg10
Nsg11
g4598
sg12
(I15
I20
tp4602
sg14
g2
(g90
g4
Ntp4603
Rp4604
(dp4605
g94
S'1010200031'
p4606
sg96
g4600
sbsbsS'z(10, 0)'
p4607
g2
(g3
g4
Ntp4608
Rp4609
(dp4610
g8
I10
sg9
I0
sg10
Nsg11
g4607
sg12
(I10
I0
tp4611
sg14
NsbsS'z(21, 25)'
p4612
g2
(g3
g4
Ntp4613
Rp4614
(dp4615
g8
I21
sg9
I25
sg10
Nsg11
g4612
sg12
(I21
I25
tp4616
sg14
NsbsS'z(16, 10)'
p4617
g2
(g3
g4
Ntp4618
Rp4619
(dp4620
g8
I16
sg9
I10
sg10
Nsg11
g4617
sg12
(I16
I10
tp4621
sg14
NsbsS'z(5, 16)'
p4622
g2
(g3
g4
Ntp4623
Rp4624
(dp4625
g8
I5
sg9
I16
sg10
Nsg11
g4622
sg12
(I5
I16
tp4626
sg14
NsbsS'z(20, 26)'
p4627
g2
(g3
g4
Ntp4628
Rp4629
(dp4630
g8
I20
sg9
I26
sg10
Nsg11
g4627
sg12
(I20
I26
tp4631
sg14
NsbsS'z(9, 20)'
p4632
g2
(g3
g4
Ntp4633
Rp4634
(dp4635
g8
I9
sg9
I20
sg10
Nsg11
g4632
sg12
(I9
I20
tp4636
sg14
NsbsS'z(25, 6)'
p4637
g2
(g3
g4
Ntp4638
Rp4639
(dp4640
g8
I25
sg9
I6
sg10
Nsg11
g4637
sg12
(I25
I6
tp4641
sg14
g2
(g90
g4
Ntp4642
Rp4643
(dp4644
g94
S'1010200069'
p4645
sg96
g4639
sbsbsS'z(3, 5)'
p4646
g2
(g3
g4
Ntp4647
Rp4648
(dp4649
g8
I3
sg9
I5
sg10
Nsg11
g4646
sg12
(I3
I5
tp4650
sg14
NsbsS'z(8, 11)'
p4651
g2
(g3
g4
Ntp4652
Rp4653
(dp4654
g8
I8
sg9
I11
sg10
Nsg11
g4651
sg12
(I8
I11
tp4655
sg14
NsbsS'z(16, 0)'
p4656
g2
(g3
g4
Ntp4657
Rp4658
(dp4659
g8
I16
sg9
I0
sg10
Nsg11
g4656
sg12
(I16
I0
tp4660
sg14
g2
(g90
g4
Ntp4661
Rp4662
(dp4663
g94
S'1010200106'
p4664
sg96
g4658
sbsbsS'z(20, 18)'
p4665
g2
(g3
g4
Ntp4666
Rp4667
(dp4668
g8
I20
sg9
I18
sg10
Nsg11
g4665
sg12
(I20
I18
tp4669
sg14
NsbsS'z(13, 25)'
p4670
g2
(g3
g4
Ntp4671
Rp4672
(dp4673
g8
I13
sg9
I25
sg10
Nsg11
g4670
sg12
(I13
I25
tp4674
sg14
g2
(g90
g4
Ntp4675
Rp4676
(dp4677
g94
S'1010200010'
p4678
sg96
g4672
sbsbsS'z(2, 21)'
p4679
g2
(g3
g4
Ntp4680
Rp4681
(dp4682
g8
I2
sg9
I21
sg10
Nsg11
g4679
sg12
(I2
I21
tp4683
sg14
NsbsS'z(4, 13)'
p4684
g2
(g3
g4
Ntp4685
Rp4686
(dp4687
g8
I4
sg9
I13
sg10
Nsg11
g4684
sg12
(I4
I13
tp4688
sg14
g2
(g90
g4
Ntp4689
Rp4690
(dp4691
g94
S'1010200127'
p4692
sg96
g4686
sbsbsS'z(23, 2)'
p4693
g2
(g3
g4
Ntp4694
Rp4695
(dp4696
g8
I23
sg9
I2
sg10
Nsg11
g4693
sg12
(I23
I2
tp4697
sg14
NsbsS'z(18, 3)'
p4698
g2
(g3
g4
Ntp4699
Rp4700
(dp4701
g8
I18
sg9
I3
sg10
Nsg11
g4698
sg12
(I18
I3
tp4702
sg14
NsbsS'z(10, 15)'
p4703
g2
(g3
g4
Ntp4704
Rp4705
(dp4706
g8
I10
sg9
I15
sg10
Nsg11
g4703
sg12
(I10
I15
tp4707
sg14
NsbsS'z(28, 22)'
p4708
g2
(g3
g4
Ntp4709
Rp4710
(dp4711
g8
I28
sg9
I22
sg10
Nsg11
g4708
sg12
(I28
I22
tp4712
sg14
NsbsS'z(8, 26)'
p4713
g2
(g3
g4
Ntp4714
Rp4715
(dp4716
g8
I8
sg9
I26
sg10
Nsg11
g4713
sg12
(I8
I26
tp4717
sg14
NsbsS'z(5, 2)'
p4718
g2
(g3
g4
Ntp4719
Rp4720
(dp4721
g8
I5
sg9
I2
sg10
Nsg11
g4718
sg12
(I5
I2
tp4722
sg14
g2
(g90
g4
Ntp4723
Rp4724
(dp4725
g94
S'1010200119'
p4726
sg96
g4720
sbsbsS'z(10, 23)'
p4727
g2
(g3
g4
Ntp4728
Rp4729
(dp4730
g8
I10
sg9
I23
sg10
Nsg11
g4727
sg12
(I10
I23
tp4731
sg14
NsbsS'z(16, 22)'
p4732
g2
(g3
g4
Ntp4733
Rp4734
(dp4735
g8
I16
sg9
I22
sg10
Nsg11
g4732
sg12
(I16
I22
tp4736
sg14
NsbsS'z(26, 7)'
p4737
g2
(g3
g4
Ntp4738
Rp4739
(dp4740
g8
I26
sg9
I7
sg10
Nsg11
g4737
sg12
(I26
I7
tp4741
sg14
NsbsS'z(8, 18)'
p4742
g2
(g3
g4
Ntp4743
Rp4744
(dp4745
g8
I8
sg9
I18
sg10
Nsg11
g4742
sg12
(I8
I18
tp4746
sg14
NsbsS'z(7, 7)'
p4747
g2
(g3
g4
Ntp4748
Rp4749
(dp4750
g8
I7
sg9
I7
sg10
Nsg11
g4747
sg12
(I7
I7
tp4751
sg14
NsbsS'z(18, 25)'
p4752
g2
(g3
g4
Ntp4753
Rp4754
(dp4755
g8
I18
sg9
I25
sg10
Nsg11
g4752
sg12
(I18
I25
tp4756
sg14
NsbsS'z(17, 23)'
p4757
g2
(g3
g4
Ntp4758
Rp4759
(dp4760
g8
I17
sg9
I23
sg10
Nsg11
g4757
sg12
(I17
I23
tp4761
sg14
NsbsS'z(24, 18)'
p4762
g2
(g3
g4
Ntp4763
Rp4764
(dp4765
g8
I24
sg9
I18
sg10
Nsg11
g4762
sg12
(I24
I18
tp4766
sg14
NsbsS'z(19, 26)'
p4767
g2
(g3
g4
Ntp4768
Rp4769
(dp4770
g8
I19
sg9
I26
sg10
Nsg11
g4767
sg12
(I19
I26
tp4771
sg14
NsbsS'z(22, 7)'
p4772
g2
(g3
g4
Ntp4773
Rp4774
(dp4775
g8
I22
sg9
I7
sg10
Nsg11
g4772
sg12
(I22
I7
tp4776
sg14
NsbsS'z(23, 20)'
p4777
g2
(g3
g4
Ntp4778
Rp4779
(dp4780
g8
I23
sg9
I20
sg10
Nsg11
g4777
sg12
(I23
I20
tp4781
sg14
NsbsS'z(20, 4)'
p4782
g2
(g3
g4
Ntp4783
Rp4784
(dp4785
g8
I20
sg9
I4
sg10
Nsg11
g4782
sg12
(I20
I4
tp4786
sg14
g2
(g90
g4
Ntp4787
Rp4788
(dp4789
g94
S'1010200092'
p4790
sg96
g4784
sbsbsS'z(27, 8)'
p4791
g2
(g3
g4
Ntp4792
Rp4793
(dp4794
g8
I27
sg9
I8
sg10
Nsg11
g4791
sg12
(I27
I8
tp4795
sg14
NsbsS'z(19, 18)'
p4796
g2
(g3
g4
Ntp4797
Rp4798
(dp4799
g8
I19
sg9
I18
sg10
Nsg11
g4796
sg12
(I19
I18
tp4800
sg14
NsbsS'z(24, 21)'
p4801
g2
(g3
g4
Ntp4802
Rp4803
(dp4804
g8
I24
sg9
I21
sg10
Nsg11
g4801
sg12
(I24
I21
tp4805
sg14
NsbsS'z(12, 26)'
p4806
g2
(g3
g4
Ntp4807
Rp4808
(dp4809
g8
I12
sg9
I26
sg10
Nsg11
g4806
sg12
(I12
I26
tp4810
sg14
NsbsS'z(17, 17)'
p4811
g2
(g3
g4
Ntp4812
Rp4813
(dp4814
g8
I17
sg9
I17
sg10
Nsg11
g4811
sg12
(I17
I17
tp4815
sg14
NsbsS'z(12, 12)'
p4816
g2
(g3
g4
Ntp4817
Rp4818
(dp4819
g8
I12
sg9
I12
sg10
Nsg11
g4816
sg12
(I12
I12
tp4820
sg14
NsbsS'z(10, 13)'
p4821
g2
(g3
g4
Ntp4822
Rp4823
(dp4824
g8
I10
sg9
I13
sg10
Nsg11
g4821
sg12
(I10
I13
tp4825
sg14
NsbsS'z(20, 3)'
p4826
g2
(g3
g4
Ntp4827
Rp4828
(dp4829
g8
I20
sg9
I3
sg10
Nsg11
g4826
sg12
(I20
I3
tp4830
sg14
NsbsS'z(24, 4)'
p4831
g2
(g3
g4
Ntp4832
Rp4833
(dp4834
g8
I24
sg9
I4
sg10
Nsg11
g4831
sg12
(I24
I4
tp4835
sg14
NsbsS'z(22, 22)'
p4836
g2
(g3
g4
Ntp4837
Rp4838
(dp4839
g8
I22
sg9
I22
sg10
Nsg11
g4836
sg12
(I22
I22
tp4840
sg14
NsbsS'z(11, 22)'
p4841
g2
(g3
g4
Ntp4842
Rp4843
(dp4844
g8
I11
sg9
I22
sg10
Nsg11
g4841
sg12
(I11
I22
tp4845
sg14
g2
(g90
g4
Ntp4846
Rp4847
(dp4848
g94
S'1010200013'
p4849
sg96
g4843
sbsbsS'z(20, 16)'
p4850
g2
(g3
g4
Ntp4851
Rp4852
(dp4853
g8
I20
sg9
I16
sg10
Nsg11
g4850
sg12
(I20
I16
tp4854
sg14
NsbsS'z(7, 25)'
p4855
g2
(g3
g4
Ntp4856
Rp4857
(dp4858
g8
I7
sg9
I25
sg10
Nsg11
g4855
sg12
(I7
I25
tp4859
sg14
NsbsS'z(15, 29)'
p4860
g2
(g3
g4
Ntp4861
Rp4862
(dp4863
g8
I15
sg9
I29
sg10
Nsg11
g4860
sg12
(I15
I29
tp4864
sg14
g2
(g90
g4
Ntp4865
Rp4866
(dp4867
g94
S'1010200005'
p4868
sg96
g4862
sbsbsS'z(9, 23)'
p4869
g2
(g3
g4
Ntp4870
Rp4871
(dp4872
g8
I9
sg9
I23
sg10
Nsg11
g4869
sg12
(I9
I23
tp4873
sg14
NsbsS'z(10, 7)'
p4874
g2
(g3
g4
Ntp4875
Rp4876
(dp4877
g8
I10
sg9
I7
sg10
Nsg11
g4874
sg12
(I10
I7
tp4878
sg14
g2
(g90
g4
Ntp4879
Rp4880
(dp4881
g94
S'1010200040'
p4882
sg96
g4876
sbsbsS'z(28, 16)'
p4883
g2
(g3
g4
Ntp4884
Rp4885
(dp4886
g8
I28
sg9
I16
sg10
Nsg11
g4883
sg12
(I28
I16
tp4887
sg14
NsbsS'z(25, 11)'
p4888
g2
(g3
g4
Ntp4889
Rp4890
(dp4891
g8
I25
sg9
I11
sg10
Nsg11
g4888
sg12
(I25
I11
tp4892
sg14
g2
(g90
g4
Ntp4893
Rp4894
(dp4895
g94
S'1010200061'
p4896
sg96
g4890
sbsbsS'z(15, 11)'
p4897
g2
(g3
g4
Ntp4898
Rp4899
(dp4900
g8
I15
sg9
I11
sg10
Nsg11
g4897
sg12
(I15
I11
tp4901
sg14
g2
(g90
g4
Ntp4902
Rp4903
(dp4904
g94
S'1010200045'
p4905
sg96
g4899
sbsbsS'z(1, 27)'
p4906
g2
(g3
g4
Ntp4907
Rp4908
(dp4909
g8
I1
sg9
I27
sg10
Nsg11
g4906
sg12
(I1
I27
tp4910
sg14
NsbsS'z(1, 7)'
p4911
g2
(g3
g4
Ntp4912
Rp4913
(dp4914
g8
I1
sg9
I7
sg10
Nsg11
g4911
sg12
(I1
I7
tp4915
sg14
NsbsS'z(16, 13)'
p4916
g2
(g3
g4
Ntp4917
Rp4918
(dp4919
g8
I16
sg9
I13
sg10
Nsg11
g4916
sg12
(I16
I13
tp4920
sg14
g2
(g90
g4
Ntp4921
Rp4922
(dp4923
g94
S'1010200047'
p4924
sg96
g4918
sbsbsS'z(1, 18)'
p4925
g2
(g3
g4
Ntp4926
Rp4927
(dp4928
g8
I1
sg9
I18
sg10
Nsg11
g4925
sg12
(I1
I18
tp4929
sg14
NsbsS'z(21, 10)'
p4930
g2
(g3
g4
Ntp4931
Rp4932
(dp4933
g8
I21
sg9
I10
sg10
Nsg11
g4930
sg12
(I21
I10
tp4934
sg14
NsbsS'z(27, 3)'
p4935
g2
(g3
g4
Ntp4936
Rp4937
(dp4938
g8
I27
sg9
I3
sg10
Nsg11
g4935
sg12
(I27
I3
tp4939
sg14
NsbsS'z(8, 23)'
p4940
g2
(g3
g4
Ntp4941
Rp4942
(dp4943
g8
I8
sg9
I23
sg10
Nsg11
g4940
sg12
(I8
I23
tp4944
sg14
NsbsS'z(0, 7)'
p4945
g2
(g3
g4
Ntp4946
Rp4947
(dp4948
g8
I0
sg9
I7
sg10
Nsg11
g4945
sg12
(I0
I7
tp4949
sg14
NsbsS'z(12, 25)'
p4950
g2
(g3
g4
Ntp4951
Rp4952
(dp4953
g8
I12
sg9
I25
sg10
Nsg11
g4950
sg12
(I12
I25
tp4954
sg14
NsbsS'z(13, 5)'
p4955
g2
(g3
g4
Ntp4956
Rp4957
(dp4958
g8
I13
sg9
I5
sg10
Nsg11
g4955
sg12
(I13
I5
tp4959
sg14
NsbsS'z(14, 17)'
p4960
g2
(g3
g4
Ntp4961
Rp4962
(dp4963
g8
I14
sg9
I17
sg10
Nsg11
g4960
sg12
(I14
I17
tp4964
sg14
NsbsS'z(11, 6)'
p4965
g2
(g3
g4
Ntp4966
Rp4967
(dp4968
g8
I11
sg9
I6
sg10
Nsg11
g4965
sg12
(I11
I6
tp4969
sg14
NsbsS'z(17, 24)'
p4970
g2
(g3
g4
Ntp4971
Rp4972
(dp4973
g8
I17
sg9
I24
sg10
Nsg11
g4970
sg12
(I17
I24
tp4974
sg14
NsbsS'z(0, 20)'
p4975
g2
(g3
g4
Ntp4976
Rp4977
(dp4978
g8
I0
sg9
I20
sg10
Nsg11
g4975
sg12
(I0
I20
tp4979
sg14
NsbsS'z(14, 18)'
p4980
g2
(g3
g4
Ntp4981
Rp4982
(dp4983
g8
I14
sg9
I18
sg10
Nsg11
g4980
sg12
(I14
I18
tp4984
sg14
NsbsS'z(7, 14)'
p4985
g2
(g3
g4
Ntp4986
Rp4987
(dp4988
g8
I7
sg9
I14
sg10
Nsg11
g4985
sg12
(I7
I14
tp4989
sg14
NsbsS'z(15, 3)'
p4990
g2
(g3
g4
Ntp4991
Rp4992
(dp4993
g8
I15
sg9
I3
sg10
Nsg11
g4990
sg12
(I15
I3
tp4994
sg14
NsbsS'z(10, 12)'
p4995
g2
(g3
g4
Ntp4996
Rp4997
(dp4998
g8
I10
sg9
I12
sg10
Nsg11
g4995
sg12
(I10
I12
tp4999
sg14
NsbsS'z(6, 12)'
p5000
g2
(g3
g4
Ntp5001
Rp5002
(dp5003
g8
I6
sg9
I12
sg10
Nsg11
g5000
sg12
(I6
I12
tp5004
sg14
g2
(g90
g4
Ntp5005
Rp5006
(dp5007
g94
S'1010200034'
p5008
sg96
g5002
sbsbsS'z(12, 22)'
p5009
g2
(g3
g4
Ntp5010
Rp5011
(dp5012
g8
I12
sg9
I22
sg10
Nsg11
g5009
sg12
(I12
I22
tp5013
sg14
NsbsS'z(25, 16)'
p5014
g2
(g3
g4
Ntp5015
Rp5016
(dp5017
g8
I25
sg9
I16
sg10
Nsg11
g5014
sg12
(I25
I16
tp5018
sg14
NsbsS'z(22, 12)'
p5019
g2
(g3
g4
Ntp5020
Rp5021
(dp5022
g8
I22
sg9
I12
sg10
Nsg11
g5019
sg12
(I22
I12
tp5023
sg14
NsbsS'z(0, 27)'
p5024
g2
(g3
g4
Ntp5025
Rp5026
(dp5027
g8
I0
sg9
I27
sg10
Nsg11
g5024
sg12
(I0
I27
tp5028
sg14
NsbsS'z(2, 13)'
p5029
g2
(g3
g4
Ntp5030
Rp5031
(dp5032
g8
I2
sg9
I13
sg10
Nsg11
g5029
sg12
(I2
I13
tp5033
sg14
NsbsS'z(25, 20)'
p5034
g2
(g3
g4
Ntp5035
Rp5036
(dp5037
g8
I25
sg9
I20
sg10
Nsg11
g5034
sg12
(I25
I20
tp5038
sg14
NsbsS'z(4, 1)'
p5039
g2
(g3
g4
Ntp5040
Rp5041
(dp5042
g8
I4
sg9
I1
sg10
Nsg11
g5039
sg12
(I4
I1
tp5043
sg14
NsbsS'z(26, 10)'
p5044
g2
(g3
g4
Ntp5045
Rp5046
(dp5047
g8
I26
sg9
I10
sg10
Nsg11
g5044
sg12
(I26
I10
tp5048
sg14
NsbsS'z(18, 30)'
p5049
g2
(g3
g4
Ntp5050
Rp5051
(dp5052
g8
I18
sg9
I30
sg10
Nsg11
g5049
sg12
(I18
I30
tp5053
sg14
NsbsS'z(11, 16)'
p5054
g2
(g3
g4
Ntp5055
Rp5056
(dp5057
g8
I11
sg9
I16
sg10
Nsg11
g5054
sg12
(I11
I16
tp5058
sg14
g2
(g90
g4
Ntp5059
Rp5060
(dp5061
g94
S'1010200028'
p5062
sg96
g5056
sbsbsS'z(24, 17)'
p5063
g2
(g3
g4
Ntp5064
Rp5065
(dp5066
g8
I24
sg9
I17
sg10
Nsg11
g5063
sg12
(I24
I17
tp5067
sg14
Nsbs.