(dp0
S'z(13, 2)'
p1
ccopy_reg
_reconstructor
p2
(c_class
Zone
p3
c__builtin__
object
p4
Ntp5
Rp6
(dp7
S'i'
p8
I13
sS'zid'
p9
g1
sS'j'
p10
I2
sS'coords'
p11
(I13
I2
tp12
sS'bs'
p13
(lp14
sbsS'z(0, 29)'
p15
g2
(g3
g4
Ntp16
Rp17
(dp18
g8
I0
sg9
g15
sg10
I29
sg11
(I0
I29
tp19
sg13
(lp20
sbsS'z(27, 20)'
p21
g2
(g3
g4
Ntp22
Rp23
(dp24
g8
I27
sg9
g21
sg10
I20
sg11
(I27
I20
tp25
sg13
(lp26
sbsS'z(14, 11)'
p27
g2
(g3
g4
Ntp28
Rp29
(dp30
g8
I14
sg9
g27
sg10
I11
sg11
(I14
I11
tp31
sg13
(lp32
sbsS'z(18, 10)'
p33
g2
(g3
g4
Ntp34
Rp35
(dp36
g8
I18
sg9
g33
sg10
I10
sg11
(I18
I10
tp37
sg13
(lp38
sbsS'z(8, 5)'
p39
g2
(g3
g4
Ntp40
Rp41
(dp42
g8
I8
sg9
g39
sg10
I5
sg11
(I8
I5
tp43
sg13
(lp44
sbsS'z(18, 8)'
p45
g2
(g3
g4
Ntp46
Rp47
(dp48
g8
I18
sg9
g45
sg10
I8
sg11
(I18
I8
tp49
sg13
(lp50
sbsS'z(14, 29)'
p51
g2
(g3
g4
Ntp52
Rp53
(dp54
g8
I14
sg9
g51
sg10
I29
sg11
(I14
I29
tp55
sg13
(lp56
sbsS'z(17, 30)'
p57
g2
(g3
g4
Ntp58
Rp59
(dp60
g8
I17
sg9
g57
sg10
I30
sg11
(I17
I30
tp61
sg13
(lp62
sbsS'z(28, 29)'
p63
g2
(g3
g4
Ntp64
Rp65
(dp66
g8
I28
sg9
g63
sg10
I29
sg11
(I28
I29
tp67
sg13
(lp68
sbsS'z(0, 10)'
p69
g2
(g3
g4
Ntp70
Rp71
(dp72
g8
I0
sg9
g69
sg10
I10
sg11
(I0
I10
tp73
sg13
(lp74
sbsS'z(27, 11)'
p75
g2
(g3
g4
Ntp76
Rp77
(dp78
g8
I27
sg9
g75
sg10
I11
sg11
(I27
I11
tp79
sg13
(lp80
sbsS'z(15, 17)'
p81
g2
(g3
g4
Ntp82
Rp83
(dp84
g8
I15
sg9
g81
sg10
I17
sg11
(I15
I17
tp85
sg13
(lp86
sbsS'z(2, 0)'
p87
g2
(g3
g4
Ntp88
Rp89
(dp90
g8
I2
sg9
g87
sg10
I0
sg11
(I2
I0
tp91
sg13
(lp92
sbsS'z(8, 29)'
p93
g2
(g3
g4
Ntp94
Rp95
(dp96
g8
I8
sg9
g93
sg10
I29
sg11
(I8
I29
tp97
sg13
(lp98
sbsS'z(4, 6)'
p99
g2
(g3
g4
Ntp100
Rp101
(dp102
g8
I4
sg9
g99
sg10
I6
sg11
(I4
I6
tp103
sg13
(lp104
sbsS'z(21, 5)'
p105
g2
(g3
g4
Ntp106
Rp107
(dp108
g8
I21
sg9
g105
sg10
I5
sg11
(I21
I5
tp109
sg13
(lp110
sbsS'z(27, 18)'
p111
g2
(g3
g4
Ntp112
Rp113
(dp114
g8
I27
sg9
g111
sg10
I18
sg11
(I27
I18
tp115
sg13
(lp116
sbsS'z(0, 19)'
p117
g2
(g3
g4
Ntp118
Rp119
(dp120
g8
I0
sg9
g117
sg10
I19
sg11
(I0
I19
tp121
sg13
(lp122
sbsS'z(19, 2)'
p123
g2
(g3
g4
Ntp124
Rp125
(dp126
g8
I19
sg9
g123
sg10
I2
sg11
(I19
I2
tp127
sg13
(lp128
sbsS'z(6, 6)'
p129
g2
(g3
g4
Ntp130
Rp131
(dp132
g8
I6
sg9
g129
sg10
I6
sg11
(I6
I6
tp133
sg13
(lp134
sbsS'z(1, 11)'
p135
g2
(g3
g4
Ntp136
Rp137
(dp138
g8
I1
sg9
g135
sg10
I11
sg11
(I1
I11
tp139
sg13
(lp140
sbsS'z(19, 16)'
p141
g2
(g3
g4
Ntp142
Rp143
(dp144
g8
I19
sg9
g141
sg10
I16
sg11
(I19
I16
tp145
sg13
(lp146
sbsS'z(17, 4)'
p147
g2
(g3
g4
Ntp148
Rp149
(dp150
g8
I17
sg9
g147
sg10
I4
sg11
(I17
I4
tp151
sg13
(lp152
sbsS'z(21, 26)'
p153
g2
(g3
g4
Ntp154
Rp155
(dp156
g8
I21
sg9
g153
sg10
I26
sg11
(I21
I26
tp157
sg13
(lp158
sbsS'z(13, 17)'
p159
g2
(g3
g4
Ntp160
Rp161
(dp162
g8
I13
sg9
g159
sg10
I17
sg11
(I13
I17
tp163
sg13
(lp164
sbsS'z(27, 27)'
p165
g2
(g3
g4
Ntp166
Rp167
(dp168
g8
I27
sg9
g165
sg10
I27
sg11
(I27
I27
tp169
sg13
(lp170
sbsS'z(5, 28)'
p171
g2
(g3
g4
Ntp172
Rp173
(dp174
g8
I5
sg9
g171
sg10
I28
sg11
(I5
I28
tp175
sg13
(lp176
sbsS'z(16, 26)'
p177
g2
(g3
g4
Ntp178
Rp179
(dp180
g8
I16
sg9
g177
sg10
I26
sg11
(I16
I26
tp181
sg13
(lp182
sbsS'z(26, 3)'
p183
g2
(g3
g4
Ntp184
Rp185
(dp186
g8
I26
sg9
g183
sg10
I3
sg11
(I26
I3
tp187
sg13
(lp188
sbsS'z(5, 6)'
p189
g2
(g3
g4
Ntp190
Rp191
(dp192
g8
I5
sg9
g189
sg10
I6
sg11
(I5
I6
tp193
sg13
(lp194
sbsS'z(13, 19)'
p195
g2
(g3
g4
Ntp196
Rp197
(dp198
g8
I13
sg9
g195
sg10
I19
sg11
(I13
I19
tp199
sg13
(lp200
sbsS'z(11, 29)'
p201
g2
(g3
g4
Ntp202
Rp203
(dp204
g8
I11
sg9
g201
sg10
I29
sg11
(I11
I29
tp205
sg13
(lp206
sbsS'z(26, 25)'
p207
g2
(g3
g4
Ntp208
Rp209
(dp210
g8
I26
sg9
g207
sg10
I25
sg11
(I26
I25
tp211
sg13
(lp212
sbsS'z(20, 30)'
p213
g2
(g3
g4
Ntp214
Rp215
(dp216
g8
I20
sg9
g213
sg10
I30
sg11
(I20
I30
tp217
sg13
(lp218
sbsS'z(21, 21)'
p219
g2
(g3
g4
Ntp220
Rp221
(dp222
g8
I21
sg9
g219
sg10
I21
sg11
(I21
I21
tp223
sg13
(lp224
sbsS'z(5, 25)'
p225
g2
(g3
g4
Ntp226
Rp227
(dp228
g8
I5
sg9
g225
sg10
I25
sg11
(I5
I25
tp229
sg13
(lp230
sbsS'z(13, 20)'
p231
g2
(g3
g4
Ntp232
Rp233
(dp234
g8
I13
sg9
g231
sg10
I20
sg11
(I13
I20
tp235
sg13
(lp236
sbsS'z(24, 22)'
p237
g2
(g3
g4
Ntp238
Rp239
(dp240
g8
I24
sg9
g237
sg10
I22
sg11
(I24
I22
tp241
sg13
(lp242
sbsS'z(0, 9)'
p243
g2
(g3
g4
Ntp244
Rp245
(dp246
g8
I0
sg9
g243
sg10
I9
sg11
(I0
I9
tp247
sg13
(lp248
sbsS'z(12, 1)'
p249
g2
(g3
g4
Ntp250
Rp251
(dp252
g8
I12
sg9
g249
sg10
I1
sg11
(I12
I1
tp253
sg13
(lp254
sbsS'z(14, 16)'
p255
g2
(g3
g4
Ntp256
Rp257
(dp258
g8
I14
sg9
g255
sg10
I16
sg11
(I14
I16
tp259
sg13
(lp260
sbsS'z(2, 9)'
p261
g2
(g3
g4
Ntp262
Rp263
(dp264
g8
I2
sg9
g261
sg10
I9
sg11
(I2
I9
tp265
sg13
(lp266
sbsS'z(3, 13)'
p267
g2
(g3
g4
Ntp268
Rp269
(dp270
g8
I3
sg9
g267
sg10
I13
sg11
(I3
I13
tp271
sg13
(lp272
sbsS'z(17, 14)'
p273
g2
(g3
g4
Ntp274
Rp275
(dp276
g8
I17
sg9
g273
sg10
I14
sg11
(I17
I14
tp277
sg13
(lp278
sbsS'z(27, 24)'
p279
g2
(g3
g4
Ntp280
Rp281
(dp282
g8
I27
sg9
g279
sg10
I24
sg11
(I27
I24
tp283
sg13
(lp284
sbsS'z(12, 6)'
p285
g2
(g3
g4
Ntp286
Rp287
(dp288
g8
I12
sg9
g285
sg10
I6
sg11
(I12
I6
tp289
sg13
(lp290
sbsS'z(14, 20)'
p291
g2
(g3
g4
Ntp292
Rp293
(dp294
g8
I14
sg9
g291
sg10
I20
sg11
(I14
I20
tp295
sg13
(lp296
sbsS'z(28, 26)'
p297
g2
(g3
g4
Ntp298
Rp299
(dp300
g8
I28
sg9
g297
sg10
I26
sg11
(I28
I26
tp301
sg13
(lp302
sbsS'z(8, 2)'
p303
g2
(g3
g4
Ntp304
Rp305
(dp306
g8
I8
sg9
g303
sg10
I2
sg11
(I8
I2
tp307
sg13
(lp308
sbsS'z(15, 25)'
p309
g2
(g3
g4
Ntp310
Rp311
(dp312
g8
I15
sg9
g309
sg10
I25
sg11
(I15
I25
tp313
sg13
(lp314
sbsS'z(22, 21)'
p315
g2
(g3
g4
Ntp316
Rp317
(dp318
g8
I22
sg9
g315
sg10
I21
sg11
(I22
I21
tp319
sg13
(lp320
sbsS'z(10, 3)'
p321
g2
(g3
g4
Ntp322
Rp323
(dp324
g8
I10
sg9
g321
sg10
I3
sg11
(I10
I3
tp325
sg13
(lp326
sbsS'z(28, 12)'
p327
g2
(g3
g4
Ntp328
Rp329
(dp330
g8
I28
sg9
g327
sg10
I12
sg11
(I28
I12
tp331
sg13
(lp332
sbsS'z(5, 13)'
p333
g2
(g3
g4
Ntp334
Rp335
(dp336
g8
I5
sg9
g333
sg10
I13
sg11
(I5
I13
tp337
sg13
(lp338
sbsS'z(6, 14)'
p339
g2
(g3
g4
Ntp340
Rp341
(dp342
g8
I6
sg9
g339
sg10
I14
sg11
(I6
I14
tp343
sg13
(lp344
sbsS'z(15, 15)'
p345
g2
(g3
g4
Ntp346
Rp347
(dp348
g8
I15
sg9
g345
sg10
I15
sg11
(I15
I15
tp349
sg13
(lp350
sbsS'z(1, 23)'
p351
g2
(g3
g4
Ntp352
Rp353
(dp354
g8
I1
sg9
g351
sg10
I23
sg11
(I1
I23
tp355
sg13
(lp356
sbsS'z(2, 18)'
p357
g2
(g3
g4
Ntp358
Rp359
(dp360
g8
I2
sg9
g357
sg10
I18
sg11
(I2
I18
tp361
sg13
(lp362
sbsS'z(4, 19)'
p363
g2
(g3
g4
Ntp364
Rp365
(dp366
g8
I4
sg9
g363
sg10
I19
sg11
(I4
I19
tp367
sg13
(lp368
sbsS'z(23, 8)'
p369
g2
(g3
g4
Ntp370
Rp371
(dp372
g8
I23
sg9
g369
sg10
I8
sg11
(I23
I8
tp373
sg13
(lp374
sbsS'z(25, 1)'
p375
g2
(g3
g4
Ntp376
Rp377
(dp378
g8
I25
sg9
g375
sg10
I1
sg11
(I25
I1
tp379
sg13
(lp380
sbsS'z(28, 4)'
p381
g2
(g3
g4
Ntp382
Rp383
(dp384
g8
I28
sg9
g381
sg10
I4
sg11
(I28
I4
tp385
sg13
(lp386
sbsS'z(9, 11)'
p387
g2
(g3
g4
Ntp388
Rp389
(dp390
g8
I9
sg9
g387
sg10
I11
sg11
(I9
I11
tp391
sg13
(lp392
sbsS'z(5, 21)'
p393
g2
(g3
g4
Ntp394
Rp395
(dp396
g8
I5
sg9
g393
sg10
I21
sg11
(I5
I21
tp397
sg13
(lp398
sbsS'z(18, 21)'
p399
g2
(g3
g4
Ntp400
Rp401
(dp402
g8
I18
sg9
g399
sg10
I21
sg11
(I18
I21
tp403
sg13
(lp404
sbsS'z(4, 16)'
p405
g2
(g3
g4
Ntp406
Rp407
(dp408
g8
I4
sg9
g405
sg10
I16
sg11
(I4
I16
tp409
sg13
(lp410
sbsS'z(18, 6)'
p411
g2
(g3
g4
Ntp412
Rp413
(dp414
g8
I18
sg9
g411
sg10
I6
sg11
(I18
I6
tp415
sg13
(lp416
sbsS'z(28, 3)'
p417
g2
(g3
g4
Ntp418
Rp419
(dp420
g8
I28
sg9
g417
sg10
I3
sg11
(I28
I3
tp421
sg13
(lp422
sbsS'z(23, 1)'
p423
g2
(g3
g4
Ntp424
Rp425
(dp426
g8
I23
sg9
g423
sg10
I1
sg11
(I23
I1
tp427
sg13
(lp428
sbsS'z(16, 4)'
p429
g2
(g3
g4
Ntp430
Rp431
(dp432
g8
I16
sg9
g429
sg10
I4
sg11
(I16
I4
tp433
sg13
(lp434
sbsS'z(13, 29)'
p435
g2
(g3
g4
Ntp436
Rp437
(dp438
g8
I13
sg9
g435
sg10
I29
sg11
(I13
I29
tp439
sg13
(lp440
sbsS'z(3, 1)'
p441
g2
(g3
g4
Ntp442
Rp443
(dp444
g8
I3
sg9
g441
sg10
I1
sg11
(I3
I1
tp445
sg13
(lp446
sbsS'z(16, 21)'
p447
g2
(g3
g4
Ntp448
Rp449
(dp450
g8
I16
sg9
g447
sg10
I21
sg11
(I16
I21
tp451
sg13
(lp452
sbsS'z(22, 30)'
p453
g2
(g3
g4
Ntp454
Rp455
(dp456
g8
I22
sg9
g453
sg10
I30
sg11
(I22
I30
tp457
sg13
(lp458
sbsS'z(26, 8)'
p459
g2
(g3
g4
Ntp460
Rp461
(dp462
g8
I26
sg9
g459
sg10
I8
sg11
(I26
I8
tp463
sg13
(lp464
sbsS'z(10, 17)'
p465
g2
(g3
g4
Ntp466
Rp467
(dp468
g8
I10
sg9
g465
sg10
I17
sg11
(I10
I17
tp469
sg13
(lp470
sbsS'z(24, 8)'
p471
g2
(g3
g4
Ntp472
Rp473
(dp474
g8
I24
sg9
g471
sg10
I8
sg11
(I24
I8
tp475
sg13
(lp476
sbsS'z(22, 26)'
p477
g2
(g3
g4
Ntp478
Rp479
(dp480
g8
I22
sg9
g477
sg10
I26
sg11
(I22
I26
tp481
sg13
(lp482
sbsS'z(11, 26)'
p483
g2
(g3
g4
Ntp484
Rp485
(dp486
g8
I11
sg9
g483
sg10
I26
sg11
(I11
I26
tp487
sg13
(lp488
sbsS'z(5, 1)'
p489
g2
(g3
g4
Ntp490
Rp491
(dp492
g8
I5
sg9
g489
sg10
I1
sg11
(I5
I1
tp493
sg13
(lp494
sbsS'z(3, 25)'
p495
g2
(g3
g4
Ntp496
Rp497
(dp498
g8
I3
sg9
g495
sg10
I25
sg11
(I3
I25
tp499
sg13
(lp500
sbsS'z(18, 28)'
p501
g2
(g3
g4
Ntp502
Rp503
(dp504
g8
I18
sg9
g501
sg10
I28
sg11
(I18
I28
tp505
sg13
(lp506
sbsS'z(4, 22)'
p507
g2
(g3
g4
Ntp508
Rp509
(dp510
g8
I4
sg9
g507
sg10
I22
sg11
(I4
I22
tp511
sg13
(lp512
sbsS'z(11, 12)'
p513
g2
(g3
g4
Ntp514
Rp515
(dp516
g8
I11
sg9
g513
sg10
I12
sg11
(I11
I12
tp517
sg13
(lp518
sbsS'z(19, 23)'
p519
g2
(g3
g4
Ntp520
Rp521
(dp522
g8
I19
sg9
g519
sg10
I23
sg11
(I19
I23
tp523
sg13
(lp524
sbsS'z(12, 18)'
p525
g2
(g3
g4
Ntp526
Rp527
(dp528
g8
I12
sg9
g525
sg10
I18
sg11
(I12
I18
tp529
sg13
(lp530
sbsS'z(16, 17)'
p531
g2
(g3
g4
Ntp532
Rp533
(dp534
g8
I16
sg9
g531
sg10
I17
sg11
(I16
I17
tp535
sg13
(lp536
sbsS'z(20, 9)'
p537
g2
(g3
g4
Ntp538
Rp539
(dp540
g8
I20
sg9
g537
sg10
I9
sg11
(I20
I9
tp541
sg13
(lp542
sbsS'z(22, 0)'
p543
g2
(g3
g4
Ntp544
Rp545
(dp546
g8
I22
sg9
g543
sg10
I0
sg11
(I22
I0
tp547
sg13
(lp548
sbsS'z(22, 28)'
p549
g2
(g3
g4
Ntp550
Rp551
(dp552
g8
I22
sg9
g549
sg10
I28
sg11
(I22
I28
tp553
sg13
(lp554
sbsS'z(21, 14)'
p555
g2
(g3
g4
Ntp556
Rp557
(dp558
g8
I21
sg9
g555
sg10
I14
sg11
(I21
I14
tp559
sg13
(lp560
sbsS'z(27, 7)'
p561
g2
(g3
g4
Ntp562
Rp563
(dp564
g8
I27
sg9
g561
sg10
I7
sg11
(I27
I7
tp565
sg13
(lp566
sbsS'z(1, 3)'
p567
g2
(g3
g4
Ntp568
Rp569
(dp570
g8
I1
sg9
g567
sg10
I3
sg11
(I1
I3
tp571
sg13
(lp572
sbsS'z(20, 20)'
p573
g2
(g3
g4
Ntp574
Rp575
(dp576
g8
I20
sg9
g573
sg10
I20
sg11
(I20
I20
tp577
sg13
(lp578
sbsS'z(10, 25)'
p579
g2
(g3
g4
Ntp580
Rp581
(dp582
g8
I10
sg9
g579
sg10
I25
sg11
(I10
I25
tp583
sg13
(lp584
sbsS'z(15, 0)'
p585
g2
(g3
g4
Ntp586
Rp587
(dp588
g8
I15
sg9
g585
sg10
I0
sg11
(I15
I0
tp589
sg13
(lp590
sbsS'z(12, 21)'
p591
g2
(g3
g4
Ntp592
Rp593
(dp594
g8
I12
sg9
g591
sg10
I21
sg11
(I12
I21
tp595
sg13
(lp596
sbsS'z(1, 24)'
p597
g2
(g3
g4
Ntp598
Rp599
(dp600
g8
I1
sg9
g597
sg10
I24
sg11
(I1
I24
tp601
sg13
(lp602
sbsS'z(12, 17)'
p603
g2
(g3
g4
Ntp604
Rp605
(dp606
g8
I12
sg9
g603
sg10
I17
sg11
(I12
I17
tp607
sg13
(lp608
sbsS'z(24, 1)'
p609
g2
(g3
g4
Ntp610
Rp611
(dp612
g8
I24
sg9
g609
sg10
I1
sg11
(I24
I1
tp613
sg13
(lp614
sbsS'z(22, 18)'
p615
g2
(g3
g4
Ntp616
Rp617
(dp618
g8
I22
sg9
g615
sg10
I18
sg11
(I22
I18
tp619
sg13
(lp620
sbsS'z(20, 0)'
p621
g2
(g3
g4
Ntp622
Rp623
(dp624
g8
I20
sg9
g621
sg10
I0
sg11
(I20
I0
tp625
sg13
(lp626
sbsS'z(9, 28)'
p627
g2
(g3
g4
Ntp628
Rp629
(dp630
g8
I9
sg9
g627
sg10
I28
sg11
(I9
I28
tp631
sg13
(lp632
sbsS'z(6, 24)'
p633
g2
(g3
g4
Ntp634
Rp635
(dp636
g8
I6
sg9
g633
sg10
I24
sg11
(I6
I24
tp637
sg13
(lp638
sbsS'z(9, 6)'
p639
g2
(g3
g4
Ntp640
Rp641
(dp642
g8
I9
sg9
g639
sg10
I6
sg11
(I9
I6
tp643
sg13
(lp644
sbsS'z(15, 7)'
p645
g2
(g3
g4
Ntp646
Rp647
(dp648
g8
I15
sg9
g645
sg10
I7
sg11
(I15
I7
tp649
sg13
(lp650
sbsS'z(6, 16)'
p651
g2
(g3
g4
Ntp652
Rp653
(dp654
g8
I6
sg9
g651
sg10
I16
sg11
(I6
I16
tp655
sg13
(lp656
sbsS'z(28, 19)'
p657
g2
(g3
g4
Ntp658
Rp659
(dp660
g8
I28
sg9
g657
sg10
I19
sg11
(I28
I19
tp661
sg13
(lp662
sbsS'z(7, 18)'
p663
g2
(g3
g4
Ntp664
Rp665
(dp666
g8
I7
sg9
g663
sg10
I18
sg11
(I7
I18
tp667
sg13
(lp668
sbsS'z(25, 12)'
p669
g2
(g3
g4
Ntp670
Rp671
(dp672
g8
I25
sg9
g669
sg10
I12
sg11
(I25
I12
tp673
sg13
(lp674
sbsS'z(7, 2)'
p675
g2
(g3
g4
Ntp676
Rp677
(dp678
g8
I7
sg9
g675
sg10
I2
sg11
(I7
I2
tp679
sg13
(lp680
sbsS'z(11, 9)'
p681
g2
(g3
g4
Ntp682
Rp683
(dp684
g8
I11
sg9
g681
sg10
I9
sg11
(I11
I9
tp685
sg13
(lp686
sbsS'z(25, 8)'
p687
g2
(g3
g4
Ntp688
Rp689
(dp690
g8
I25
sg9
g687
sg10
I8
sg11
(I25
I8
tp691
sg13
(lp692
sbsS'z(8, 17)'
p693
g2
(g3
g4
Ntp694
Rp695
(dp696
g8
I8
sg9
g693
sg10
I17
sg11
(I8
I17
tp697
sg13
(lp698
sbsS'z(28, 30)'
p699
g2
(g3
g4
Ntp700
Rp701
(dp702
g8
I28
sg9
g699
sg10
I30
sg11
(I28
I30
tp703
sg13
(lp704
sbsS'z(25, 24)'
p705
g2
(g3
g4
Ntp706
Rp707
(dp708
g8
I25
sg9
g705
sg10
I24
sg11
(I25
I24
tp709
sg13
(lp710
sbsS'z(20, 12)'
p711
g2
(g3
g4
Ntp712
Rp713
(dp714
g8
I20
sg9
g711
sg10
I12
sg11
(I20
I12
tp715
sg13
(lp716
sbsS'z(8, 20)'
p717
g2
(g3
g4
Ntp718
Rp719
(dp720
g8
I8
sg9
g717
sg10
I20
sg11
(I8
I20
tp721
sg13
(lp722
sbsS'z(15, 9)'
p723
g2
(g3
g4
Ntp724
Rp725
(dp726
g8
I15
sg9
g723
sg10
I9
sg11
(I15
I9
tp727
sg13
(lp728
sbsS'z(17, 0)'
p729
g2
(g3
g4
Ntp730
Rp731
(dp732
g8
I17
sg9
g729
sg10
I0
sg11
(I17
I0
tp733
sg13
(lp734
sbsS'z(9, 30)'
p735
g2
(g3
g4
Ntp736
Rp737
(dp738
g8
I9
sg9
g735
sg10
I30
sg11
(I9
I30
tp739
sg13
(lp740
sbsS'z(5, 26)'
p741
g2
(g3
g4
Ntp742
Rp743
(dp744
g8
I5
sg9
g741
sg10
I26
sg11
(I5
I26
tp745
sg13
(lp746
sbsS'z(13, 6)'
p747
g2
(g3
g4
Ntp748
Rp749
(dp750
g8
I13
sg9
g747
sg10
I6
sg11
(I13
I6
tp751
sg13
(lp752
sbsS'z(17, 29)'
p753
g2
(g3
g4
Ntp754
Rp755
(dp756
g8
I17
sg9
g753
sg10
I29
sg11
(I17
I29
tp757
sg13
(lp758
sbsS'z(18, 14)'
p759
g2
(g3
g4
Ntp760
Rp761
(dp762
g8
I18
sg9
g759
sg10
I14
sg11
(I18
I14
tp763
sg13
(lp764
sbsS'z(23, 18)'
p765
g2
(g3
g4
Ntp766
Rp767
(dp768
g8
I23
sg9
g765
sg10
I18
sg11
(I23
I18
tp769
sg13
(lp770
sbsS'z(14, 6)'
p771
g2
(g3
g4
Ntp772
Rp773
(dp774
g8
I14
sg9
g771
sg10
I6
sg11
(I14
I6
tp775
sg13
(lp776
sbsS'z(4, 26)'
p777
g2
(g3
g4
Ntp778
Rp779
(dp780
g8
I4
sg9
g777
sg10
I26
sg11
(I4
I26
tp781
sg13
(lp782
sbsS'z(6, 3)'
p783
g2
(g3
g4
Ntp784
Rp785
(dp786
g8
I6
sg9
g783
sg10
I3
sg11
(I6
I3
tp787
sg13
(lp788
sbsS'z(2, 29)'
p789
g2
(g3
g4
Ntp790
Rp791
(dp792
g8
I2
sg9
g789
sg10
I29
sg11
(I2
I29
tp793
sg13
(lp794
sbsS'z(0, 14)'
p795
g2
(g3
g4
Ntp796
Rp797
(dp798
g8
I0
sg9
g795
sg10
I14
sg11
(I0
I14
tp799
sg13
(lp800
sbsS'z(8, 9)'
p801
g2
(g3
g4
Ntp802
Rp803
(dp804
g8
I8
sg9
g801
sg10
I9
sg11
(I8
I9
tp805
sg13
(lp806
sbsS'z(13, 9)'
p807
g2
(g3
g4
Ntp808
Rp809
(dp810
g8
I13
sg9
g807
sg10
I9
sg11
(I13
I9
tp811
sg13
(lp812
sbsS'z(2, 16)'
p813
g2
(g3
g4
Ntp814
Rp815
(dp816
g8
I2
sg9
g813
sg10
I16
sg11
(I2
I16
tp817
sg13
(lp818
sbsS'z(11, 2)'
p819
g2
(g3
g4
Ntp820
Rp821
(dp822
g8
I11
sg9
g819
sg10
I2
sg11
(I11
I2
tp823
sg13
(lp824
sbsS'z(17, 20)'
p825
g2
(g3
g4
Ntp826
Rp827
(dp828
g8
I17
sg9
g825
sg10
I20
sg11
(I17
I20
tp829
sg13
(lp830
sbsS'z(0, 24)'
p831
g2
(g3
g4
Ntp832
Rp833
(dp834
g8
I0
sg9
g831
sg10
I24
sg11
(I0
I24
tp835
sg13
(lp836
sbsS'z(16, 16)'
p837
g2
(g3
g4
Ntp838
Rp839
(dp840
g8
I16
sg9
g837
sg10
I16
sg11
(I16
I16
tp841
sg13
(lp842
sbsS'z(7, 9)'
p843
g2
(g3
g4
Ntp844
Rp845
(dp846
g8
I7
sg9
g843
sg10
I9
sg11
(I7
I9
tp847
sg13
(lp848
sbsS'z(27, 14)'
p849
g2
(g3
g4
Ntp850
Rp851
(dp852
g8
I27
sg9
g849
sg10
I14
sg11
(I27
I14
tp853
sg13
(lp854
sbsS'z(7, 10)'
p855
g2
(g3
g4
Ntp856
Rp857
(dp858
g8
I7
sg9
g855
sg10
I10
sg11
(I7
I10
tp859
sg13
(lp860
sbsS'z(26, 17)'
p861
g2
(g3
g4
Ntp862
Rp863
(dp864
g8
I26
sg9
g861
sg10
I17
sg11
(I26
I17
tp865
sg13
(lp866
sbsS'z(0, 0)'
p867
g2
(g3
g4
Ntp868
Rp869
(dp870
g8
I0
sg9
g867
sg10
I0
sg11
(I0
I0
tp871
sg13
(lp872
sbsS'z(11, 19)'
p873
g2
(g3
g4
Ntp874
Rp875
(dp876
g8
I11
sg9
g873
sg10
I19
sg11
(I11
I19
tp877
sg13
(lp878
sbsS'z(21, 1)'
p879
g2
(g3
g4
Ntp880
Rp881
(dp882
g8
I21
sg9
g879
sg10
I1
sg11
(I21
I1
tp883
sg13
(lp884
sbsS'z(17, 19)'
p885
g2
(g3
g4
Ntp886
Rp887
(dp888
g8
I17
sg9
g885
sg10
I19
sg11
(I17
I19
tp889
sg13
(lp890
sbsS'z(19, 28)'
p891
g2
(g3
g4
Ntp892
Rp893
(dp894
g8
I19
sg9
g891
sg10
I28
sg11
(I19
I28
tp895
sg13
(lp896
sbsS'z(22, 9)'
p897
g2
(g3
g4
Ntp898
Rp899
(dp900
g8
I22
sg9
g897
sg10
I9
sg11
(I22
I9
tp901
sg13
(lp902
sbsS'z(22, 24)'
p903
g2
(g3
g4
Ntp904
Rp905
(dp906
g8
I22
sg9
g903
sg10
I24
sg11
(I22
I24
tp907
sg13
(lp908
sbsS'z(4, 2)'
p909
g2
(g3
g4
Ntp910
Rp911
(dp912
g8
I4
sg9
g909
sg10
I2
sg11
(I4
I2
tp913
sg13
(lp914
sbsS'z(9, 2)'
p915
g2
(g3
g4
Ntp916
Rp917
(dp918
g8
I9
sg9
g915
sg10
I2
sg11
(I9
I2
tp919
sg13
(lp920
sbsS'z(19, 12)'
p921
g2
(g3
g4
Ntp922
Rp923
(dp924
g8
I19
sg9
g921
sg10
I12
sg11
(I19
I12
tp925
sg13
(lp926
sbsS'z(12, 2)'
p927
g2
(g3
g4
Ntp928
Rp929
(dp930
g8
I12
sg9
g927
sg10
I2
sg11
(I12
I2
tp931
sg13
(lp932
sbsS'z(2, 5)'
p933
g2
(g3
g4
Ntp934
Rp935
(dp936
g8
I2
sg9
g933
sg10
I5
sg11
(I2
I5
tp937
sg13
(lp938
sbsS'z(17, 27)'
p939
g2
(g3
g4
Ntp940
Rp941
(dp942
g8
I17
sg9
g939
sg10
I27
sg11
(I17
I27
tp943
sg13
(lp944
sbsS'z(7, 28)'
p945
g2
(g3
g4
Ntp946
Rp947
(dp948
g8
I7
sg9
g945
sg10
I28
sg11
(I7
I28
tp949
sg13
(lp950
sbsS'z(19, 8)'
p951
g2
(g3
g4
Ntp952
Rp953
(dp954
g8
I19
sg9
g951
sg10
I8
sg11
(I19
I8
tp955
sg13
(lp956
sbsS'z(3, 27)'
p957
g2
(g3
g4
Ntp958
Rp959
(dp960
g8
I3
sg9
g957
sg10
I27
sg11
(I3
I27
tp961
sg13
(lp962
sbsS'z(26, 21)'
p963
g2
(g3
g4
Ntp964
Rp965
(dp966
g8
I26
sg9
g963
sg10
I21
sg11
(I26
I21
tp967
sg13
(lp968
sbsS'z(19, 7)'
p969
g2
(g3
g4
Ntp970
Rp971
(dp972
g8
I19
sg9
g969
sg10
I7
sg11
(I19
I7
tp973
sg13
(lp974
sbsS'z(16, 19)'
p975
g2
(g3
g4
Ntp976
Rp977
(dp978
g8
I16
sg9
g975
sg10
I19
sg11
(I16
I19
tp979
sg13
(lp980
sbsS'z(8, 14)'
p981
g2
(g3
g4
Ntp982
Rp983
(dp984
g8
I8
sg9
g981
sg10
I14
sg11
(I8
I14
tp985
sg13
(lp986
sbsS'z(14, 1)'
p987
g2
(g3
g4
Ntp988
Rp989
(dp990
g8
I14
sg9
g987
sg10
I1
sg11
(I14
I1
tp991
sg13
(lp992
sbsS'z(9, 5)'
p993
g2
(g3
g4
Ntp994
Rp995
(dp996
g8
I9
sg9
g993
sg10
I5
sg11
(I9
I5
tp997
sg13
(lp998
sbsS'z(13, 12)'
p999
g2
(g3
g4
Ntp1000
Rp1001
(dp1002
g8
I13
sg9
g999
sg10
I12
sg11
(I13
I12
tp1003
sg13
(lp1004
sbsS'z(8, 6)'
p1005
g2
(g3
g4
Ntp1006
Rp1007
(dp1008
g8
I8
sg9
g1005
sg10
I6
sg11
(I8
I6
tp1009
sg13
(lp1010
sbsS'z(26, 28)'
p1011
g2
(g3
g4
Ntp1012
Rp1013
(dp1014
g8
I26
sg9
g1011
sg10
I28
sg11
(I26
I28
tp1015
sg13
(lp1016
sbsS'z(6, 19)'
p1017
g2
(g3
g4
Ntp1018
Rp1019
(dp1020
g8
I6
sg9
g1017
sg10
I19
sg11
(I6
I19
tp1021
sg13
(lp1022
sbsS'z(14, 12)'
p1023
g2
(g3
g4
Ntp1024
Rp1025
(dp1026
g8
I14
sg9
g1023
sg10
I12
sg11
(I14
I12
tp1027
sg13
(lp1028
sbsS'z(3, 17)'
p1029
g2
(g3
g4
Ntp1030
Rp1031
(dp1032
g8
I3
sg9
g1029
sg10
I17
sg11
(I3
I17
tp1033
sg13
(lp1034
sbsS'z(23, 11)'
p1035
g2
(g3
g4
Ntp1036
Rp1037
(dp1038
g8
I23
sg9
g1035
sg10
I11
sg11
(I23
I11
tp1039
sg13
(lp1040
sbsS'z(16, 7)'
p1041
g2
(g3
g4
Ntp1042
Rp1043
(dp1044
g8
I16
sg9
g1041
sg10
I7
sg11
(I16
I7
tp1045
sg13
(lp1046
sbsS'z(2, 30)'
p1047
g2
(g3
g4
Ntp1048
Rp1049
(dp1050
g8
I2
sg9
g1047
sg10
I30
sg11
(I2
I30
tp1051
sg13
(lp1052
sbsS'z(3, 21)'
p1053
g2
(g3
g4
Ntp1054
Rp1055
(dp1056
g8
I3
sg9
g1053
sg10
I21
sg11
(I3
I21
tp1057
sg13
(lp1058
sbsS'z(15, 21)'
p1059
g2
(g3
g4
Ntp1060
Rp1061
(dp1062
g8
I15
sg9
g1059
sg10
I21
sg11
(I15
I21
tp1063
sg13
(lp1064
sbsS'z(21, 24)'
p1065
g2
(g3
g4
Ntp1066
Rp1067
(dp1068
g8
I21
sg9
g1065
sg10
I24
sg11
(I21
I24
tp1069
sg13
(lp1070
sbsS'z(5, 17)'
p1071
g2
(g3
g4
Ntp1072
Rp1073
(dp1074
g8
I5
sg9
g1071
sg10
I17
sg11
(I5
I17
tp1075
sg13
(lp1076
sbsS'z(3, 4)'
p1077
g2
(g3
g4
Ntp1078
Rp1079
(dp1080
g8
I3
sg9
g1077
sg10
I4
sg11
(I3
I4
tp1081
sg13
(lp1082
sbsS'z(4, 15)'
p1083
g2
(g3
g4
Ntp1084
Rp1085
(dp1086
g8
I4
sg9
g1083
sg10
I15
sg11
(I4
I15
tp1087
sg13
(lp1088
sbsS'z(8, 10)'
p1089
g2
(g3
g4
Ntp1090
Rp1091
(dp1092
g8
I8
sg9
g1089
sg10
I10
sg11
(I8
I10
tp1093
sg13
(lp1094
sbsS'z(25, 5)'
p1095
g2
(g3
g4
Ntp1096
Rp1097
(dp1098
g8
I25
sg9
g1095
sg10
I5
sg11
(I25
I5
tp1099
sg13
(lp1100
sbsS'z(23, 4)'
p1101
g2
(g3
g4
Ntp1102
Rp1103
(dp1104
g8
I23
sg9
g1101
sg10
I4
sg11
(I23
I4
tp1105
sg13
(lp1106
sbsS'z(9, 27)'
p1107
g2
(g3
g4
Ntp1108
Rp1109
(dp1110
g8
I9
sg9
g1107
sg10
I27
sg11
(I9
I27
tp1111
sg13
(lp1112
sbsS'z(16, 3)'
p1113
g2
(g3
g4
Ntp1114
Rp1115
(dp1116
g8
I16
sg9
g1113
sg10
I3
sg11
(I16
I3
tp1117
sg13
(lp1118
sbsS'z(4, 12)'
p1119
g2
(g3
g4
Ntp1120
Rp1121
(dp1122
g8
I4
sg9
g1119
sg10
I12
sg11
(I4
I12
tp1123
sg13
(lp1124
sbsS'z(18, 2)'
p1125
g2
(g3
g4
Ntp1126
Rp1127
(dp1128
g8
I18
sg9
g1125
sg10
I2
sg11
(I18
I2
tp1129
sg13
(lp1130
sbsS'z(28, 0)'
p1131
g2
(g3
g4
Ntp1132
Rp1133
(dp1134
g8
I28
sg9
g1131
sg10
I0
sg11
(I28
I0
tp1135
sg13
(lp1136
sbsS'z(14, 23)'
p1137
g2
(g3
g4
Ntp1138
Rp1139
(dp1140
g8
I14
sg9
g1137
sg10
I23
sg11
(I14
I23
tp1141
sg13
(lp1142
sbsS'z(12, 5)'
p1143
g2
(g3
g4
Ntp1144
Rp1145
(dp1146
g8
I12
sg9
g1143
sg10
I5
sg11
(I12
I5
tp1147
sg13
(lp1148
sbsS'z(5, 5)'
p1149
g2
(g3
g4
Ntp1150
Rp1151
(dp1152
g8
I5
sg9
g1149
sg10
I5
sg11
(I5
I5
tp1153
sg13
(lp1154
sbsS'z(28, 23)'
p1155
g2
(g3
g4
Ntp1156
Rp1157
(dp1158
g8
I28
sg9
g1155
sg10
I23
sg11
(I28
I23
tp1159
sg13
(lp1160
sbsS'z(6, 29)'
p1161
g2
(g3
g4
Ntp1162
Rp1163
(dp1164
g8
I6
sg9
g1161
sg10
I29
sg11
(I6
I29
tp1165
sg13
(lp1166
sbsS'z(16, 25)'
p1167
g2
(g3
g4
Ntp1168
Rp1169
(dp1170
g8
I16
sg9
g1167
sg10
I25
sg11
(I16
I25
tp1171
sg13
(lp1172
sbsS'z(26, 4)'
p1173
g2
(g3
g4
Ntp1174
Rp1175
(dp1176
g8
I26
sg9
g1173
sg10
I4
sg11
(I26
I4
tp1177
sg13
(lp1178
sbsS'z(1, 26)'
p1179
g2
(g3
g4
Ntp1180
Rp1181
(dp1182
g8
I1
sg9
g1179
sg10
I26
sg11
(I1
I26
tp1183
sg13
(lp1184
sbsS'z(5, 10)'
p1185
g2
(g3
g4
Ntp1186
Rp1187
(dp1188
g8
I5
sg9
g1185
sg10
I10
sg11
(I5
I10
tp1189
sg13
(lp1190
sbsS'z(7, 6)'
p1191
g2
(g3
g4
Ntp1192
Rp1193
(dp1194
g8
I7
sg9
g1191
sg10
I6
sg11
(I7
I6
tp1195
sg13
(lp1196
sbsS'z(9, 16)'
p1197
g2
(g3
g4
Ntp1198
Rp1199
(dp1200
g8
I9
sg9
g1197
sg10
I16
sg11
(I9
I16
tp1201
sg13
(lp1202
sbsS'z(20, 29)'
p1203
g2
(g3
g4
Ntp1204
Rp1205
(dp1206
g8
I20
sg9
g1203
sg10
I29
sg11
(I20
I29
tp1207
sg13
(lp1208
sbsS'z(18, 24)'
p1209
g2
(g3
g4
Ntp1210
Rp1211
(dp1212
g8
I18
sg9
g1209
sg10
I24
sg11
(I18
I24
tp1213
sg13
(lp1214
sbsS'z(4, 30)'
p1215
g2
(g3
g4
Ntp1216
Rp1217
(dp1218
g8
I4
sg9
g1215
sg10
I30
sg11
(I4
I30
tp1219
sg13
(lp1220
sbsS'z(19, 27)'
p1221
g2
(g3
g4
Ntp1222
Rp1223
(dp1224
g8
I19
sg9
g1221
sg10
I27
sg11
(I19
I27
tp1225
sg13
(lp1226
sbsS'z(12, 14)'
p1227
g2
(g3
g4
Ntp1228
Rp1229
(dp1230
g8
I12
sg9
g1227
sg10
I14
sg11
(I12
I14
tp1231
sg13
(lp1232
sbsS'z(10, 19)'
p1233
g2
(g3
g4
Ntp1234
Rp1235
(dp1236
g8
I10
sg9
g1233
sg10
I19
sg11
(I10
I19
tp1237
sg13
(lp1238
sbsS'z(20, 5)'
p1239
g2
(g3
g4
Ntp1240
Rp1241
(dp1242
g8
I20
sg9
g1239
sg10
I5
sg11
(I20
I5
tp1243
sg13
(lp1244
sbsS'z(22, 4)'
p1245
g2
(g3
g4
Ntp1246
Rp1247
(dp1248
g8
I22
sg9
g1245
sg10
I4
sg11
(I22
I4
tp1249
sg13
(lp1250
sbsS'z(10, 14)'
p1251
g2
(g3
g4
Ntp1252
Rp1253
(dp1254
g8
I10
sg9
g1251
sg10
I14
sg11
(I10
I14
tp1255
sg13
(lp1256
sbsS'z(21, 18)'
p1257
g2
(g3
g4
Ntp1258
Rp1259
(dp1260
g8
I21
sg9
g1257
sg10
I18
sg11
(I21
I18
tp1261
sg13
(lp1262
sbsS'z(13, 26)'
p1263
g2
(g3
g4
Ntp1264
Rp1265
(dp1266
g8
I13
sg9
g1263
sg10
I26
sg11
(I13
I26
tp1267
sg13
(lp1268
sbsS'z(15, 19)'
p1269
g2
(g3
g4
Ntp1270
Rp1271
(dp1272
g8
I15
sg9
g1269
sg10
I19
sg11
(I15
I19
tp1273
sg13
(lp1274
sbsS'z(19, 13)'
p1275
g2
(g3
g4
Ntp1276
Rp1277
(dp1278
g8
I19
sg9
g1275
sg10
I13
sg11
(I19
I13
tp1279
sg13
(lp1280
sbsS'z(12, 13)'
p1281
g2
(g3
g4
Ntp1282
Rp1283
(dp1284
g8
I12
sg9
g1281
sg10
I13
sg11
(I12
I13
tp1285
sg13
(lp1286
sbsS'z(10, 10)'
p1287
g2
(g3
g4
Ntp1288
Rp1289
(dp1290
g8
I10
sg9
g1287
sg10
I10
sg11
(I10
I10
tp1291
sg13
(lp1292
sbsS'z(22, 27)'
p1293
g2
(g3
g4
Ntp1294
Rp1295
(dp1296
g8
I22
sg9
g1293
sg10
I27
sg11
(I22
I27
tp1297
sg13
(lp1298
sbsS'z(7, 21)'
p1299
g2
(g3
g4
Ntp1300
Rp1301
(dp1302
g8
I7
sg9
g1299
sg10
I21
sg11
(I7
I21
tp1303
sg13
(lp1304
sbsS'z(22, 23)'
p1305
g2
(g3
g4
Ntp1306
Rp1307
(dp1308
g8
I22
sg9
g1305
sg10
I23
sg11
(I22
I23
tp1309
sg13
(lp1310
sbsS'z(6, 20)'
p1311
g2
(g3
g4
Ntp1312
Rp1313
(dp1314
g8
I6
sg9
g1311
sg10
I20
sg11
(I6
I20
tp1315
sg13
(lp1316
sbsS'z(3, 28)'
p1317
g2
(g3
g4
Ntp1318
Rp1319
(dp1320
g8
I3
sg9
g1317
sg10
I28
sg11
(I3
I28
tp1321
sg13
(lp1322
sbsS'z(15, 26)'
p1323
g2
(g3
g4
Ntp1324
Rp1325
(dp1326
g8
I15
sg9
g1323
sg10
I26
sg11
(I15
I26
tp1327
sg13
(lp1328
sbsS'z(10, 6)'
p1329
g2
(g3
g4
Ntp1330
Rp1331
(dp1332
g8
I10
sg9
g1329
sg10
I6
sg11
(I10
I6
tp1333
sg13
(lp1334
sbsS'z(28, 15)'
p1335
g2
(g3
g4
Ntp1336
Rp1337
(dp1338
g8
I28
sg9
g1335
sg10
I15
sg11
(I28
I15
tp1339
sg13
(lp1340
sbsS'z(0, 26)'
p1341
g2
(g3
g4
Ntp1342
Rp1343
(dp1344
g8
I0
sg9
g1341
sg10
I26
sg11
(I0
I26
tp1345
sg13
(lp1346
sbsS'z(0, 4)'
p1347
g2
(g3
g4
Ntp1348
Rp1349
(dp1350
g8
I0
sg9
g1347
sg10
I4
sg11
(I0
I4
tp1351
sg13
(lp1352
sbsS'z(1, 19)'
p1353
g2
(g3
g4
Ntp1354
Rp1355
(dp1356
g8
I1
sg9
g1353
sg10
I19
sg11
(I1
I19
tp1357
sg13
(lp1358
sbsS'z(27, 2)'
p1359
g2
(g3
g4
Ntp1360
Rp1361
(dp1362
g8
I27
sg9
g1359
sg10
I2
sg11
(I27
I2
tp1363
sg13
(lp1364
sbsS'z(21, 11)'
p1365
g2
(g3
g4
Ntp1366
Rp1367
(dp1368
g8
I21
sg9
g1365
sg10
I11
sg11
(I21
I11
tp1369
sg13
(lp1370
sbsS'z(24, 20)'
p1371
g2
(g3
g4
Ntp1372
Rp1373
(dp1374
g8
I24
sg9
g1371
sg10
I20
sg11
(I24
I20
tp1375
sg13
(lp1376
sbsS'z(23, 30)'
p1377
g2
(g3
g4
Ntp1378
Rp1379
(dp1380
g8
I23
sg9
g1377
sg10
I30
sg11
(I23
I30
tp1381
sg13
(lp1382
sbsS'z(27, 29)'
p1383
g2
(g3
g4
Ntp1384
Rp1385
(dp1386
g8
I27
sg9
g1383
sg10
I29
sg11
(I27
I29
tp1387
sg13
(lp1388
sbsS'z(9, 29)'
p1389
g2
(g3
g4
Ntp1390
Rp1391
(dp1392
g8
I9
sg9
g1389
sg10
I29
sg11
(I9
I29
tp1393
sg13
(lp1394
sbsS'z(12, 24)'
p1395
g2
(g3
g4
Ntp1396
Rp1397
(dp1398
g8
I12
sg9
g1395
sg10
I24
sg11
(I12
I24
tp1399
sg13
(lp1400
sbsS'z(19, 17)'
p1401
g2
(g3
g4
Ntp1402
Rp1403
(dp1404
g8
I19
sg9
g1401
sg10
I17
sg11
(I19
I17
tp1405
sg13
(lp1406
sbsS'z(11, 7)'
p1407
g2
(g3
g4
Ntp1408
Rp1409
(dp1410
g8
I11
sg9
g1407
sg10
I7
sg11
(I11
I7
tp1411
sg13
(lp1412
sbsS'z(0, 21)'
p1413
g2
(g3
g4
Ntp1414
Rp1415
(dp1416
g8
I0
sg9
g1413
sg10
I21
sg11
(I0
I21
tp1417
sg13
(lp1418
sbsS'z(17, 25)'
p1419
g2
(g3
g4
Ntp1420
Rp1421
(dp1422
g8
I17
sg9
g1419
sg10
I25
sg11
(I17
I25
tp1423
sg13
(lp1424
sbsS'z(14, 19)'
p1425
g2
(g3
g4
Ntp1426
Rp1427
(dp1428
g8
I14
sg9
g1425
sg10
I19
sg11
(I14
I19
tp1429
sg13
(lp1430
sbsS'z(18, 18)'
p1431
g2
(g3
g4
Ntp1432
Rp1433
(dp1434
g8
I18
sg9
g1431
sg10
I18
sg11
(I18
I18
tp1435
sg13
(lp1436
sbsS'z(1, 6)'
p1437
g2
(g3
g4
Ntp1438
Rp1439
(dp1440
g8
I1
sg9
g1437
sg10
I6
sg11
(I1
I6
tp1441
sg13
(lp1442
sbsS'z(24, 26)'
p1443
g2
(g3
g4
Ntp1444
Rp1445
(dp1446
g8
I24
sg9
g1443
sg10
I26
sg11
(I24
I26
tp1447
sg13
(lp1448
sbsS'z(10, 21)'
p1449
g2
(g3
g4
Ntp1450
Rp1451
(dp1452
g8
I10
sg9
g1449
sg10
I21
sg11
(I10
I21
tp1453
sg13
(lp1454
sbsS'z(15, 4)'
p1455
g2
(g3
g4
Ntp1456
Rp1457
(dp1458
g8
I15
sg9
g1455
sg10
I4
sg11
(I15
I4
tp1459
sg13
(lp1460
sbsS'z(6, 11)'
p1461
g2
(g3
g4
Ntp1462
Rp1463
(dp1464
g8
I6
sg9
g1461
sg10
I11
sg11
(I6
I11
tp1465
sg13
(lp1466
sbsS'z(25, 17)'
p1467
g2
(g3
g4
Ntp1468
Rp1469
(dp1470
g8
I25
sg9
g1467
sg10
I17
sg11
(I25
I17
tp1471
sg13
(lp1472
sbsS'z(22, 15)'
p1473
g2
(g3
g4
Ntp1474
Rp1475
(dp1476
g8
I22
sg9
g1473
sg10
I15
sg11
(I22
I15
tp1477
sg13
(lp1478
sbsS'z(1, 29)'
p1479
g2
(g3
g4
Ntp1480
Rp1481
(dp1482
g8
I1
sg9
g1479
sg10
I29
sg11
(I1
I29
tp1483
sg13
(lp1484
sbsS'z(2, 12)'
p1485
g2
(g3
g4
Ntp1486
Rp1487
(dp1488
g8
I2
sg9
g1485
sg10
I12
sg11
(I2
I12
tp1489
sg13
(lp1490
sbsS'z(25, 27)'
p1491
g2
(g3
g4
Ntp1492
Rp1493
(dp1494
g8
I25
sg9
g1491
sg10
I27
sg11
(I25
I27
tp1495
sg13
(lp1496
sbsS'z(20, 15)'
p1497
g2
(g3
g4
Ntp1498
Rp1499
(dp1500
g8
I20
sg9
g1497
sg10
I15
sg11
(I20
I15
tp1501
sg13
(lp1502
sbsS'z(26, 11)'
p1503
g2
(g3
g4
Ntp1504
Rp1505
(dp1506
g8
I26
sg9
g1503
sg10
I11
sg11
(I26
I11
tp1507
sg13
(lp1508
sbsS'z(26, 13)'
p1509
g2
(g3
g4
Ntp1510
Rp1511
(dp1512
g8
I26
sg9
g1509
sg10
I13
sg11
(I26
I13
tp1513
sg13
(lp1514
sbsS'z(11, 15)'
p1515
g2
(g3
g4
Ntp1516
Rp1517
(dp1518
g8
I11
sg9
g1515
sg10
I15
sg11
(I11
I15
tp1519
sg13
(lp1520
sbsS'z(24, 16)'
p1521
g2
(g3
g4
Ntp1522
Rp1523
(dp1524
g8
I24
sg9
g1521
sg10
I16
sg11
(I24
I16
tp1525
sg13
(lp1526
sbsS'z(13, 3)'
p1527
g2
(g3
g4
Ntp1528
Rp1529
(dp1530
g8
I13
sg9
g1527
sg10
I3
sg11
(I13
I3
tp1531
sg13
(lp1532
sbsS'z(6, 26)'
p1533
g2
(g3
g4
Ntp1534
Rp1535
(dp1536
g8
I6
sg9
g1533
sg10
I26
sg11
(I6
I26
tp1537
sg13
(lp1538
sbsS'z(18, 11)'
p1539
g2
(g3
g4
Ntp1540
Rp1541
(dp1542
g8
I18
sg9
g1539
sg10
I11
sg11
(I18
I11
tp1543
sg13
(lp1544
sbsS'z(14, 28)'
p1545
g2
(g3
g4
Ntp1546
Rp1547
(dp1548
g8
I14
sg9
g1545
sg10
I28
sg11
(I14
I28
tp1549
sg13
(lp1550
sbsS'z(27, 12)'
p1551
g2
(g3
g4
Ntp1552
Rp1553
(dp1554
g8
I27
sg9
g1551
sg10
I12
sg11
(I27
I12
tp1555
sg13
(lp1556
sbsS'z(0, 13)'
p1557
g2
(g3
g4
Ntp1558
Rp1559
(dp1560
g8
I0
sg9
g1557
sg10
I13
sg11
(I0
I13
tp1561
sg13
(lp1562
sbsS'z(19, 4)'
p1563
g2
(g3
g4
Ntp1564
Rp1565
(dp1566
g8
I19
sg9
g1563
sg10
I4
sg11
(I19
I4
tp1567
sg13
(lp1568
sbsS'z(5, 20)'
p1569
g2
(g3
g4
Ntp1570
Rp1571
(dp1572
g8
I5
sg9
g1569
sg10
I20
sg11
(I5
I20
tp1573
sg13
(lp1574
sbsS'z(6, 0)'
p1575
g2
(g3
g4
Ntp1576
Rp1577
(dp1578
g8
I6
sg9
g1575
sg10
I0
sg11
(I6
I0
tp1579
sg13
(lp1580
sbsS'z(7, 15)'
p1581
g2
(g3
g4
Ntp1582
Rp1583
(dp1584
g8
I7
sg9
g1581
sg10
I15
sg11
(I7
I15
tp1585
sg13
(lp1586
sbsS'z(9, 1)'
p1587
g2
(g3
g4
Ntp1588
Rp1589
(dp1590
g8
I9
sg9
g1587
sg10
I1
sg11
(I9
I1
tp1591
sg13
(lp1592
sbsS'z(4, 7)'
p1593
g2
(g3
g4
Ntp1594
Rp1595
(dp1596
g8
I4
sg9
g1593
sg10
I7
sg11
(I4
I7
tp1597
sg13
(lp1598
sbsS'z(21, 4)'
p1599
g2
(g3
g4
Ntp1600
Rp1601
(dp1602
g8
I21
sg9
g1599
sg10
I4
sg11
(I21
I4
tp1603
sg13
(lp1604
sbsS'z(0, 18)'
p1605
g2
(g3
g4
Ntp1606
Rp1607
(dp1608
g8
I0
sg9
g1605
sg10
I18
sg11
(I0
I18
tp1609
sg13
(lp1610
sbsS'z(6, 7)'
p1611
g2
(g3
g4
Ntp1612
Rp1613
(dp1614
g8
I6
sg9
g1611
sg10
I7
sg11
(I6
I7
tp1615
sg13
(lp1616
sbsS'z(19, 3)'
p1617
g2
(g3
g4
Ntp1618
Rp1619
(dp1620
g8
I19
sg9
g1617
sg10
I3
sg11
(I19
I3
tp1621
sg13
(lp1622
sbsS'z(27, 21)'
p1623
g2
(g3
g4
Ntp1624
Rp1625
(dp1626
g8
I27
sg9
g1623
sg10
I21
sg11
(I27
I21
tp1627
sg13
(lp1628
sbsS'z(1, 9)'
p1629
g2
(g3
g4
Ntp1630
Rp1631
(dp1632
g8
I1
sg9
g1629
sg10
I9
sg11
(I1
I9
tp1633
sg13
(lp1634
sbsS'z(14, 5)'
p1635
g2
(g3
g4
Ntp1636
Rp1637
(dp1638
g8
I14
sg9
g1635
sg10
I5
sg11
(I14
I5
tp1639
sg13
(lp1640
sbsS'z(19, 15)'
p1641
g2
(g3
g4
Ntp1642
Rp1643
(dp1644
g8
I19
sg9
g1641
sg10
I15
sg11
(I19
I15
tp1645
sg13
(lp1646
sbsS'z(17, 5)'
p1647
g2
(g3
g4
Ntp1648
Rp1649
(dp1650
g8
I17
sg9
g1647
sg10
I5
sg11
(I17
I5
tp1651
sg13
(lp1652
sbsS'z(9, 22)'
p1653
g2
(g3
g4
Ntp1654
Rp1655
(dp1656
g8
I9
sg9
g1653
sg10
I22
sg11
(I9
I22
tp1657
sg13
(lp1658
sbsS'z(23, 28)'
p1659
g2
(g3
g4
Ntp1660
Rp1661
(dp1662
g8
I23
sg9
g1659
sg10
I28
sg11
(I23
I28
tp1663
sg13
(lp1664
sbsS'z(13, 16)'
p1665
g2
(g3
g4
Ntp1666
Rp1667
(dp1668
g8
I13
sg9
g1665
sg10
I16
sg11
(I13
I16
tp1669
sg13
(lp1670
sbsS'z(5, 9)'
p1671
g2
(g3
g4
Ntp1672
Rp1673
(dp1674
g8
I5
sg9
g1671
sg10
I9
sg11
(I5
I9
tp1675
sg13
(lp1676
sbsS'z(15, 10)'
p1677
g2
(g3
g4
Ntp1678
Rp1679
(dp1680
g8
I15
sg9
g1677
sg10
I10
sg11
(I15
I10
tp1681
sg13
(lp1682
sbsS'z(16, 29)'
p1683
g2
(g3
g4
Ntp1684
Rp1685
(dp1686
g8
I16
sg9
g1683
sg10
I29
sg11
(I16
I29
tp1687
sg13
(lp1688
sbsS'z(27, 25)'
p1689
g2
(g3
g4
Ntp1690
Rp1691
(dp1692
g8
I27
sg9
g1689
sg10
I25
sg11
(I27
I25
tp1693
sg13
(lp1694
sbsS'z(26, 0)'
p1695
g2
(g3
g4
Ntp1696
Rp1697
(dp1698
g8
I26
sg9
g1695
sg10
I0
sg11
(I26
I0
tp1699
sg13
(lp1700
sbsS'z(13, 18)'
p1701
g2
(g3
g4
Ntp1702
Rp1703
(dp1704
g8
I13
sg9
g1701
sg10
I18
sg11
(I13
I18
tp1705
sg13
(lp1706
sbsS'z(1, 28)'
p1707
g2
(g3
g4
Ntp1708
Rp1709
(dp1710
g8
I1
sg9
g1707
sg10
I28
sg11
(I1
I28
tp1711
sg13
(lp1712
sbsS'z(26, 26)'
p1713
g2
(g3
g4
Ntp1714
Rp1715
(dp1716
g8
I26
sg9
g1713
sg10
I26
sg11
(I26
I26
tp1717
sg13
(lp1718
sbsS'z(8, 28)'
p1719
g2
(g3
g4
Ntp1720
Rp1721
(dp1722
g8
I8
sg9
g1719
sg10
I28
sg11
(I8
I28
tp1723
sg13
(lp1724
sbsS'z(21, 20)'
p1725
g2
(g3
g4
Ntp1726
Rp1727
(dp1728
g8
I21
sg9
g1725
sg10
I20
sg11
(I21
I20
tp1729
sg13
(lp1730
sbsS'z(4, 21)'
p1731
g2
(g3
g4
Ntp1732
Rp1733
(dp1734
g8
I4
sg9
g1731
sg10
I21
sg11
(I4
I21
tp1735
sg13
(lp1736
sbsS'z(14, 24)'
p1737
g2
(g3
g4
Ntp1738
Rp1739
(dp1740
g8
I14
sg9
g1737
sg10
I24
sg11
(I14
I24
tp1741
sg13
(lp1742
sbsS'z(13, 11)'
p1743
g2
(g3
g4
Ntp1744
Rp1745
(dp1746
g8
I13
sg9
g1743
sg10
I11
sg11
(I13
I11
tp1747
sg13
(lp1748
sbsS'z(23, 15)'
p1749
g2
(g3
g4
Ntp1750
Rp1751
(dp1752
g8
I23
sg9
g1749
sg10
I15
sg11
(I23
I15
tp1753
sg13
(lp1754
sbsS'z(3, 9)'
p1755
g2
(g3
g4
Ntp1756
Rp1757
(dp1758
g8
I3
sg9
g1755
sg10
I9
sg11
(I3
I9
tp1759
sg13
(lp1760
sbsS'z(23, 16)'
p1761
g2
(g3
g4
Ntp1762
Rp1763
(dp1764
g8
I23
sg9
g1761
sg10
I16
sg11
(I23
I16
tp1765
sg13
(lp1766
sbsS'z(3, 10)'
p1767
g2
(g3
g4
Ntp1768
Rp1769
(dp1770
g8
I3
sg9
g1767
sg10
I10
sg11
(I3
I10
tp1771
sg13
(lp1772
sbsS'z(14, 27)'
p1773
g2
(g3
g4
Ntp1774
Rp1775
(dp1776
g8
I14
sg9
g1773
sg10
I27
sg11
(I14
I27
tp1777
sg13
(lp1778
sbsS'z(8, 3)'
p1779
g2
(g3
g4
Ntp1780
Rp1781
(dp1782
g8
I8
sg9
g1779
sg10
I3
sg11
(I8
I3
tp1783
sg13
(lp1784
sbsS'z(28, 27)'
p1785
g2
(g3
g4
Ntp1786
Rp1787
(dp1788
g8
I28
sg9
g1785
sg10
I27
sg11
(I28
I27
tp1789
sg13
(lp1790
sbsS'z(3, 24)'
p1791
g2
(g3
g4
Ntp1792
Rp1793
(dp1794
g8
I3
sg9
g1791
sg10
I24
sg11
(I3
I24
tp1795
sg13
(lp1796
sbsS'z(5, 22)'
p1797
g2
(g3
g4
Ntp1798
Rp1799
(dp1800
g8
I5
sg9
g1797
sg10
I22
sg11
(I5
I22
tp1801
sg13
(lp1802
sbsS'z(15, 22)'
p1803
g2
(g3
g4
Ntp1804
Rp1805
(dp1806
g8
I15
sg9
g1803
sg10
I22
sg11
(I15
I22
tp1807
sg13
(lp1808
sbsS'z(10, 2)'
p1809
g2
(g3
g4
Ntp1810
Rp1811
(dp1812
g8
I10
sg9
g1809
sg10
I2
sg11
(I10
I2
tp1813
sg13
(lp1814
sbsS'z(21, 27)'
p1815
g2
(g3
g4
Ntp1816
Rp1817
(dp1818
g8
I21
sg9
g1815
sg10
I27
sg11
(I21
I27
tp1819
sg13
(lp1820
sbsS'z(2, 20)'
p1821
g2
(g3
g4
Ntp1822
Rp1823
(dp1824
g8
I2
sg9
g1821
sg10
I20
sg11
(I2
I20
tp1825
sg13
(lp1826
sbsS'z(28, 11)'
p1827
g2
(g3
g4
Ntp1828
Rp1829
(dp1830
g8
I28
sg9
g1827
sg10
I11
sg11
(I28
I11
tp1831
sg13
(lp1832
sbsS'z(1, 22)'
p1833
g2
(g3
g4
Ntp1834
Rp1835
(dp1836
g8
I1
sg9
g1833
sg10
I22
sg11
(I1
I22
tp1837
sg13
(lp1838
sbsS'z(5, 14)'
p1839
g2
(g3
g4
Ntp1840
Rp1841
(dp1842
g8
I5
sg9
g1839
sg10
I14
sg11
(I5
I14
tp1843
sg13
(lp1844
sbsS'z(4, 18)'
p1845
g2
(g3
g4
Ntp1846
Rp1847
(dp1848
g8
I4
sg9
g1845
sg10
I18
sg11
(I4
I18
tp1849
sg13
(lp1850
sbsS'z(25, 0)'
p1851
g2
(g3
g4
Ntp1852
Rp1853
(dp1854
g8
I25
sg9
g1851
sg10
I0
sg11
(I25
I0
tp1855
sg13
(lp1856
sbsS'z(28, 5)'
p1857
g2
(g3
g4
Ntp1858
Rp1859
(dp1860
g8
I28
sg9
g1857
sg10
I5
sg11
(I28
I5
tp1861
sg13
(lp1862
sbsS'z(20, 28)'
p1863
g2
(g3
g4
Ntp1864
Rp1865
(dp1866
g8
I20
sg9
g1863
sg10
I28
sg11
(I20
I28
tp1867
sg13
(lp1868
sbsS'z(24, 25)'
p1869
g2
(g3
g4
Ntp1870
Rp1871
(dp1872
g8
I24
sg9
g1869
sg10
I25
sg11
(I24
I25
tp1873
sg13
(lp1874
sbsS'z(6, 15)'
p1875
g2
(g3
g4
Ntp1876
Rp1877
(dp1878
g8
I6
sg9
g1875
sg10
I15
sg11
(I6
I15
tp1879
sg13
(lp1880
sbsS'z(9, 12)'
p1881
g2
(g3
g4
Ntp1882
Rp1883
(dp1884
g8
I9
sg9
g1881
sg10
I12
sg11
(I9
I12
tp1885
sg13
(lp1886
sbsS'z(18, 20)'
p1887
g2
(g3
g4
Ntp1888
Rp1889
(dp1890
g8
I18
sg9
g1887
sg10
I20
sg11
(I18
I20
tp1891
sg13
(lp1892
sbsS'z(3, 7)'
p1893
g2
(g3
g4
Ntp1894
Rp1895
(dp1896
g8
I3
sg9
g1893
sg10
I7
sg11
(I3
I7
tp1897
sg13
(lp1898
sbsS'z(17, 15)'
p1899
g2
(g3
g4
Ntp1900
Rp1901
(dp1902
g8
I17
sg9
g1899
sg10
I15
sg11
(I17
I15
tp1903
sg13
(lp1904
sbsS'z(4, 11)'
p1905
g2
(g3
g4
Ntp1906
Rp1907
(dp1908
g8
I4
sg9
g1905
sg10
I11
sg11
(I4
I11
tp1909
sg13
(lp1910
sbsS'z(23, 0)'
p1911
g2
(g3
g4
Ntp1912
Rp1913
(dp1914
g8
I23
sg9
g1911
sg10
I0
sg11
(I23
I0
tp1915
sg13
(lp1916
sbsS'z(18, 5)'
p1917
g2
(g3
g4
Ntp1918
Rp1919
(dp1920
g8
I18
sg9
g1917
sg10
I5
sg11
(I18
I5
tp1921
sg13
(lp1922
sbsS'z(13, 23)'
p1923
g2
(g3
g4
Ntp1924
Rp1925
(dp1926
g8
I13
sg9
g1923
sg10
I23
sg11
(I13
I23
tp1927
sg13
(lp1928
sbsS'z(3, 0)'
p1929
g2
(g3
g4
Ntp1930
Rp1931
(dp1932
g8
I3
sg9
g1929
sg10
I0
sg11
(I3
I0
tp1933
sg13
(lp1934
sbsS'z(4, 25)'
p1935
g2
(g3
g4
Ntp1936
Rp1937
(dp1938
g8
I4
sg9
g1935
sg10
I25
sg11
(I4
I25
tp1939
sg13
(lp1940
sbsS'z(9, 18)'
p1941
g2
(g3
g4
Ntp1942
Rp1943
(dp1944
g8
I9
sg9
g1941
sg10
I18
sg11
(I9
I18
tp1945
sg13
(lp1946
sbsS'z(14, 30)'
p1947
g2
(g3
g4
Ntp1948
Rp1949
(dp1950
g8
I14
sg9
g1947
sg10
I30
sg11
(I14
I30
tp1951
sg13
(lp1952
sbsS'z(6, 25)'
p1953
g2
(g3
g4
Ntp1954
Rp1955
(dp1956
g8
I6
sg9
g1953
sg10
I25
sg11
(I6
I25
tp1957
sg13
(lp1958
sbsS'z(16, 20)'
p1959
g2
(g3
g4
Ntp1960
Rp1961
(dp1962
g8
I16
sg9
g1959
sg10
I20
sg11
(I16
I20
tp1963
sg13
(lp1964
sbsS'z(26, 9)'
p1965
g2
(g3
g4
Ntp1966
Rp1967
(dp1968
g8
I26
sg9
g1965
sg10
I9
sg11
(I26
I9
tp1969
sg13
(lp1970
sbsS'z(2, 24)'
p1971
g2
(g3
g4
Ntp1972
Rp1973
(dp1974
g8
I2
sg9
g1971
sg10
I24
sg11
(I2
I24
tp1975
sg13
(lp1976
sbsS'z(24, 9)'
p1977
g2
(g3
g4
Ntp1978
Rp1979
(dp1980
g8
I24
sg9
g1977
sg10
I9
sg11
(I24
I9
tp1981
sg13
(lp1982
sbsS'z(7, 26)'
p1983
g2
(g3
g4
Ntp1984
Rp1985
(dp1986
g8
I7
sg9
g1983
sg10
I26
sg11
(I7
I26
tp1987
sg13
(lp1988
sbsS'z(5, 0)'
p1989
g2
(g3
g4
Ntp1990
Rp1991
(dp1992
g8
I5
sg9
g1989
sg10
I0
sg11
(I5
I0
tp1993
sg13
(lp1994
sbsS'z(11, 27)'
p1995
g2
(g3
g4
Ntp1996
Rp1997
(dp1998
g8
I11
sg9
g1995
sg10
I27
sg11
(I11
I27
tp1999
sg13
(lp2000
sbsS'z(16, 9)'
p2001
g2
(g3
g4
Ntp2002
Rp2003
(dp2004
g8
I16
sg9
g2001
sg10
I9
sg11
(I16
I9
tp2005
sg13
(lp2006
sbsS'z(20, 11)'
p2007
g2
(g3
g4
Ntp2008
Rp2009
(dp2010
g8
I20
sg9
g2007
sg10
I11
sg11
(I20
I11
tp2011
sg13
(lp2012
sbsS'z(18, 27)'
p2013
g2
(g3
g4
Ntp2014
Rp2015
(dp2016
g8
I18
sg9
g2013
sg10
I27
sg11
(I18
I27
tp2017
sg13
(lp2018
sbsS'z(11, 11)'
p2019
g2
(g3
g4
Ntp2020
Rp2021
(dp2022
g8
I11
sg9
g2019
sg10
I11
sg11
(I11
I11
tp2023
sg13
(lp2024
sbsS'z(21, 9)'
p2025
g2
(g3
g4
Ntp2026
Rp2027
(dp2028
g8
I21
sg9
g2025
sg10
I9
sg11
(I21
I9
tp2029
sg13
(lp2030
sbsS'z(19, 20)'
p2031
g2
(g3
g4
Ntp2032
Rp2033
(dp2034
g8
I19
sg9
g2031
sg10
I20
sg11
(I19
I20
tp2035
sg13
(lp2036
sbsS'z(12, 19)'
p2037
g2
(g3
g4
Ntp2038
Rp2039
(dp2040
g8
I12
sg9
g2037
sg10
I19
sg11
(I12
I19
tp2041
sg13
(lp2042
sbsS'z(22, 1)'
p2043
g2
(g3
g4
Ntp2044
Rp2045
(dp2046
g8
I22
sg9
g2043
sg10
I1
sg11
(I22
I1
tp2047
sg13
(lp2048
sbsS'z(23, 26)'
p2049
g2
(g3
g4
Ntp2050
Rp2051
(dp2052
g8
I23
sg9
g2049
sg10
I26
sg11
(I23
I26
tp2053
sg13
(lp2054
sbsS'z(1, 2)'
p2055
g2
(g3
g4
Ntp2056
Rp2057
(dp2058
g8
I1
sg9
g2055
sg10
I2
sg11
(I1
I2
tp2059
sg13
(lp2060
sbsS'z(27, 6)'
p2061
g2
(g3
g4
Ntp2062
Rp2063
(dp2064
g8
I27
sg9
g2061
sg10
I6
sg11
(I27
I6
tp2065
sg13
(lp2066
sbsS'z(21, 15)'
p2067
g2
(g3
g4
Ntp2068
Rp2069
(dp2070
g8
I21
sg9
g2067
sg10
I15
sg11
(I21
I15
tp2071
sg13
(lp2072
sbsS'z(10, 24)'
p2073
g2
(g3
g4
Ntp2074
Rp2075
(dp2076
g8
I10
sg9
g2073
sg10
I24
sg11
(I10
I24
tp2077
sg13
(lp2078
sbsS'z(15, 1)'
p2079
g2
(g3
g4
Ntp2080
Rp2081
(dp2082
g8
I15
sg9
g2079
sg10
I1
sg11
(I15
I1
tp2083
sg13
(lp2084
sbsS'z(17, 8)'
p2085
g2
(g3
g4
Ntp2086
Rp2087
(dp2088
g8
I17
sg9
g2085
sg10
I8
sg11
(I17
I8
tp2089
sg13
(lp2090
sbsS'z(23, 23)'
p2091
g2
(g3
g4
Ntp2092
Rp2093
(dp2094
g8
I23
sg9
g2091
sg10
I23
sg11
(I23
I23
tp2095
sg13
(lp2096
sbsS'z(12, 20)'
p2097
g2
(g3
g4
Ntp2098
Rp2099
(dp2100
g8
I12
sg9
g2097
sg10
I20
sg11
(I12
I20
tp2101
sg13
(lp2102
sbsS'z(1, 16)'
p2103
g2
(g3
g4
Ntp2104
Rp2105
(dp2106
g8
I1
sg9
g2103
sg10
I16
sg11
(I1
I16
tp2107
sg13
(lp2108
sbsS'z(12, 10)'
p2109
g2
(g3
g4
Ntp2110
Rp2111
(dp2112
g8
I12
sg9
g2109
sg10
I10
sg11
(I12
I10
tp2113
sg13
(lp2114
sbsS'z(20, 1)'
p2115
g2
(g3
g4
Ntp2116
Rp2117
(dp2118
g8
I20
sg9
g2115
sg10
I1
sg11
(I20
I1
tp2119
sg13
(lp2120
sbsS'z(24, 2)'
p2121
g2
(g3
g4
Ntp2122
Rp2123
(dp2124
g8
I24
sg9
g2121
sg10
I2
sg11
(I24
I2
tp2125
sg13
(lp2126
sbsS'z(22, 20)'
p2127
g2
(g3
g4
Ntp2128
Rp2129
(dp2130
g8
I22
sg9
g2127
sg10
I20
sg11
(I22
I20
tp2131
sg13
(lp2132
sbsS'z(9, 21)'
p2133
g2
(g3
g4
Ntp2134
Rp2135
(dp2136
g8
I9
sg9
g2133
sg10
I21
sg11
(I9
I21
tp2137
sg13
(lp2138
sbsS'z(7, 1)'
p2139
g2
(g3
g4
Ntp2140
Rp2141
(dp2142
g8
I7
sg9
g2139
sg10
I1
sg11
(I7
I1
tp2143
sg13
(lp2144
sbsS'z(27, 22)'
p2145
g2
(g3
g4
Ntp2146
Rp2147
(dp2148
g8
I27
sg9
g2145
sg10
I22
sg11
(I27
I22
tp2149
sg13
(lp2150
sbsS'z(10, 9)'
p2151
g2
(g3
g4
Ntp2152
Rp2153
(dp2154
g8
I10
sg9
g2151
sg10
I9
sg11
(I10
I9
tp2155
sg13
(lp2156
sbsS'z(12, 29)'
p2157
g2
(g3
g4
Ntp2158
Rp2159
(dp2160
g8
I12
sg9
g2157
sg10
I29
sg11
(I12
I29
tp2161
sg13
(lp2162
sbsS'z(28, 18)'
p2163
g2
(g3
g4
Ntp2164
Rp2165
(dp2166
g8
I28
sg9
g2163
sg10
I18
sg11
(I28
I18
tp2167
sg13
(lp2168
sbsS'z(25, 13)'
p2169
g2
(g3
g4
Ntp2170
Rp2171
(dp2172
g8
I25
sg9
g2169
sg10
I13
sg11
(I25
I13
tp2173
sg13
(lp2174
sbsS'z(15, 13)'
p2175
g2
(g3
g4
Ntp2176
Rp2177
(dp2178
g8
I15
sg9
g2175
sg10
I13
sg11
(I15
I13
tp2179
sg13
(lp2180
sbsS'z(1, 25)'
p2181
g2
(g3
g4
Ntp2182
Rp2183
(dp2184
g8
I1
sg9
g2181
sg10
I25
sg11
(I1
I25
tp2185
sg13
(lp2186
sbsS'z(8, 0)'
p2187
g2
(g3
g4
Ntp2188
Rp2189
(dp2190
g8
I8
sg9
g2187
sg10
I0
sg11
(I8
I0
tp2191
sg13
(lp2192
sbsS'z(21, 12)'
p2193
g2
(g3
g4
Ntp2194
Rp2195
(dp2196
g8
I21
sg9
g2193
sg10
I12
sg11
(I21
I12
tp2197
sg13
(lp2198
sbsS'z(27, 1)'
p2199
g2
(g3
g4
Ntp2200
Rp2201
(dp2202
g8
I27
sg9
g2199
sg10
I1
sg11
(I27
I1
tp2203
sg13
(lp2204
sbsS'z(19, 11)'
p2205
g2
(g3
g4
Ntp2206
Rp2207
(dp2208
g8
I19
sg9
g2205
sg10
I11
sg11
(I19
I11
tp2209
sg13
(lp2210
sbsS'z(20, 23)'
p2211
g2
(g3
g4
Ntp2212
Rp2213
(dp2214
g8
I20
sg9
g2211
sg10
I23
sg11
(I20
I23
tp2215
sg13
(lp2216
sbsS'z(17, 1)'
p2217
g2
(g3
g4
Ntp2218
Rp2219
(dp2220
g8
I17
sg9
g2217
sg10
I1
sg11
(I17
I1
tp2221
sg13
(lp2222
sbsS'z(1, 5)'
p2223
g2
(g3
g4
Ntp2224
Rp2225
(dp2226
g8
I1
sg9
g2223
sg10
I5
sg11
(I1
I5
tp2227
sg13
(lp2228
sbsS'z(13, 7)'
p2229
g2
(g3
g4
Ntp2230
Rp2231
(dp2232
g8
I13
sg9
g2229
sg10
I7
sg11
(I13
I7
tp2233
sg13
(lp2234
sbsS'z(0, 1)'
p2235
g2
(g3
g4
Ntp2236
Rp2237
(dp2238
g8
I0
sg9
g2235
sg10
I1
sg11
(I0
I1
tp2239
sg13
(lp2240
sbsS'z(11, 4)'
p2241
g2
(g3
g4
Ntp2242
Rp2243
(dp2244
g8
I11
sg9
g2241
sg10
I4
sg11
(I11
I4
tp2245
sg13
(lp2246
sbsS'z(6, 4)'
p2247
g2
(g3
g4
Ntp2248
Rp2249
(dp2250
g8
I6
sg9
g2247
sg10
I4
sg11
(I6
I4
tp2251
sg13
(lp2252
sbsS'z(18, 15)'
p2253
g2
(g3
g4
Ntp2254
Rp2255
(dp2256
g8
I18
sg9
g2253
sg10
I15
sg11
(I18
I15
tp2257
sg13
(lp2258
sbsS'z(25, 29)'
p2259
g2
(g3
g4
Ntp2260
Rp2261
(dp2262
g8
I25
sg9
g2259
sg10
I29
sg11
(I25
I29
tp2263
sg13
(lp2264
sbsS'z(23, 19)'
p2265
g2
(g3
g4
Ntp2266
Rp2267
(dp2268
g8
I23
sg9
g2265
sg10
I19
sg11
(I23
I19
tp2269
sg13
(lp2270
sbsS'z(7, 16)'
p2271
g2
(g3
g4
Ntp2272
Rp2273
(dp2274
g8
I7
sg9
g2271
sg10
I16
sg11
(I7
I16
tp2275
sg13
(lp2276
sbsS'z(26, 19)'
p2277
g2
(g3
g4
Ntp2278
Rp2279
(dp2280
g8
I26
sg9
g2277
sg10
I19
sg11
(I26
I19
tp2281
sg13
(lp2282
sbsS'z(27, 17)'
p2283
g2
(g3
g4
Ntp2284
Rp2285
(dp2286
g8
I27
sg9
g2283
sg10
I17
sg11
(I27
I17
tp2287
sg13
(lp2288
sbsS'z(25, 18)'
p2289
g2
(g3
g4
Ntp2290
Rp2291
(dp2292
g8
I25
sg9
g2289
sg10
I18
sg11
(I25
I18
tp2293
sg13
(lp2294
sbsS'z(22, 10)'
p2295
g2
(g3
g4
Ntp2296
Rp2297
(dp2298
g8
I22
sg9
g2295
sg10
I10
sg11
(I22
I10
tp2299
sg13
(lp2300
sbsS'z(11, 3)'
p2301
g2
(g3
g4
Ntp2302
Rp2303
(dp2304
g8
I11
sg9
g2301
sg10
I3
sg11
(I11
I3
tp2305
sg13
(lp2306
sbsS'z(0, 25)'
p2307
g2
(g3
g4
Ntp2308
Rp2309
(dp2310
g8
I0
sg9
g2307
sg10
I25
sg11
(I0
I25
tp2311
sg13
(lp2312
sbsS'z(7, 8)'
p2313
g2
(g3
g4
Ntp2314
Rp2315
(dp2316
g8
I7
sg9
g2313
sg10
I8
sg11
(I7
I8
tp2317
sg13
(lp2318
sbsS'z(2, 28)'
p2319
g2
(g3
g4
Ntp2320
Rp2321
(dp2322
g8
I2
sg9
g2319
sg10
I28
sg11
(I2
I28
tp2323
sg13
(lp2324
sbsS'z(25, 22)'
p2325
g2
(g3
g4
Ntp2326
Rp2327
(dp2328
g8
I25
sg9
g2325
sg10
I22
sg11
(I25
I22
tp2329
sg13
(lp2330
sbsS'z(7, 11)'
p2331
g2
(g3
g4
Ntp2332
Rp2333
(dp2334
g8
I7
sg9
g2331
sg10
I11
sg11
(I7
I11
tp2335
sg13
(lp2336
sbsS'z(26, 16)'
p2337
g2
(g3
g4
Ntp2338
Rp2339
(dp2340
g8
I26
sg9
g2337
sg10
I16
sg11
(I26
I16
tp2341
sg13
(lp2342
sbsS'z(17, 21)'
p2343
g2
(g3
g4
Ntp2344
Rp2345
(dp2346
g8
I17
sg9
g2343
sg10
I21
sg11
(I17
I21
tp2347
sg13
(lp2348
sbsS'z(21, 0)'
p2349
g2
(g3
g4
Ntp2350
Rp2351
(dp2352
g8
I21
sg9
g2349
sg10
I0
sg11
(I21
I0
tp2353
sg13
(lp2354
sbsS'z(11, 18)'
p2355
g2
(g3
g4
Ntp2356
Rp2357
(dp2358
g8
I11
sg9
g2355
sg10
I18
sg11
(I11
I18
tp2359
sg13
(lp2360
sbsS'z(24, 11)'
p2361
g2
(g3
g4
Ntp2362
Rp2363
(dp2364
g8
I24
sg9
g2361
sg10
I11
sg11
(I24
I11
tp2365
sg13
(lp2366
sbsS'z(17, 18)'
p2367
g2
(g3
g4
Ntp2368
Rp2369
(dp2370
g8
I17
sg9
g2367
sg10
I18
sg11
(I17
I18
tp2371
sg13
(lp2372
sbsS'z(4, 3)'
p2373
g2
(g3
g4
Ntp2374
Rp2375
(dp2376
g8
I4
sg9
g2373
sg10
I3
sg11
(I4
I3
tp2377
sg13
(lp2378
sbsS'z(16, 11)'
p2379
g2
(g3
g4
Ntp2380
Rp2381
(dp2382
g8
I16
sg9
g2379
sg10
I11
sg11
(I16
I11
tp2383
sg13
(lp2384
sbsS'z(23, 29)'
p2385
g2
(g3
g4
Ntp2386
Rp2387
(dp2388
g8
I23
sg9
g2385
sg10
I29
sg11
(I23
I29
tp2389
sg13
(lp2390
sbsS'z(9, 25)'
p2391
g2
(g3
g4
Ntp2392
Rp2393
(dp2394
g8
I9
sg9
g2391
sg10
I25
sg11
(I9
I25
tp2395
sg13
(lp2396
sbsS'z(14, 9)'
p2397
g2
(g3
g4
Ntp2398
Rp2399
(dp2400
g8
I14
sg9
g2397
sg10
I9
sg11
(I14
I9
tp2401
sg13
(lp2402
sbsS'z(2, 6)'
p2403
g2
(g3
g4
Ntp2404
Rp2405
(dp2406
g8
I2
sg9
g2403
sg10
I6
sg11
(I2
I6
tp2407
sg13
(lp2408
sbsS'z(23, 12)'
p2409
g2
(g3
g4
Ntp2410
Rp2411
(dp2412
g8
I23
sg9
g2409
sg10
I12
sg11
(I23
I12
tp2413
sg13
(lp2414
sbsS'z(3, 14)'
p2415
g2
(g3
g4
Ntp2416
Rp2417
(dp2418
g8
I3
sg9
g2415
sg10
I14
sg11
(I3
I14
tp2419
sg13
(lp2420
sbsS'z(13, 22)'
p2421
g2
(g3
g4
Ntp2422
Rp2423
(dp2424
g8
I13
sg9
g2421
sg10
I22
sg11
(I13
I22
tp2425
sg13
(lp2426
sbsS'z(4, 24)'
p2427
g2
(g3
g4
Ntp2428
Rp2429
(dp2430
g8
I4
sg9
g2427
sg10
I24
sg11
(I4
I24
tp2431
sg13
(lp2432
sbsS'z(19, 30)'
p2433
g2
(g3
g4
Ntp2434
Rp2435
(dp2436
g8
I19
sg9
g2433
sg10
I30
sg11
(I19
I30
tp2437
sg13
(lp2438
sbsS'z(8, 21)'
p2439
g2
(g3
g4
Ntp2440
Rp2441
(dp2442
g8
I8
sg9
g2439
sg10
I21
sg11
(I8
I21
tp2443
sg13
(lp2444
sbsS'z(19, 9)'
p2445
g2
(g3
g4
Ntp2446
Rp2447
(dp2448
g8
I19
sg9
g2445
sg10
I9
sg11
(I19
I9
tp2449
sg13
(lp2450
sbsS'z(14, 7)'
p2451
g2
(g3
g4
Ntp2452
Rp2453
(dp2454
g8
I14
sg9
g2451
sg10
I7
sg11
(I14
I7
tp2455
sg13
(lp2456
sbsS'z(24, 5)'
p2457
g2
(g3
g4
Ntp2458
Rp2459
(dp2460
g8
I24
sg9
g2457
sg10
I5
sg11
(I24
I5
tp2461
sg13
(lp2462
sbsS'z(17, 16)'
p2463
g2
(g3
g4
Ntp2464
Rp2465
(dp2466
g8
I17
sg9
g2463
sg10
I16
sg11
(I17
I16
tp2467
sg13
(lp2468
sbsS'z(7, 20)'
p2469
g2
(g3
g4
Ntp2470
Rp2471
(dp2472
g8
I7
sg9
g2469
sg10
I20
sg11
(I7
I20
tp2473
sg13
(lp2474
sbsS'z(21, 7)'
p2475
g2
(g3
g4
Ntp2476
Rp2477
(dp2478
g8
I21
sg9
g2475
sg10
I7
sg11
(I21
I7
tp2479
sg13
(lp2480
sbsS'z(17, 13)'
p2481
g2
(g3
g4
Ntp2482
Rp2483
(dp2484
g8
I17
sg9
g2481
sg10
I13
sg11
(I17
I13
tp2485
sg13
(lp2486
sbsS'z(0, 17)'
p2487
g2
(g3
g4
Ntp2488
Rp2489
(dp2490
g8
I0
sg9
g2487
sg10
I17
sg11
(I0
I17
tp2491
sg13
(lp2492
sbsS'z(19, 0)'
p2493
g2
(g3
g4
Ntp2494
Rp2495
(dp2496
g8
I19
sg9
g2493
sg10
I0
sg11
(I19
I0
tp2497
sg13
(lp2498
sbsS'z(5, 24)'
p2499
g2
(g3
g4
Ntp2500
Rp2501
(dp2502
g8
I5
sg9
g2499
sg10
I24
sg11
(I5
I24
tp2503
sg13
(lp2504
sbsS'z(14, 0)'
p2505
g2
(g3
g4
Ntp2506
Rp2507
(dp2508
g8
I14
sg9
g2505
sg10
I0
sg11
(I14
I0
tp2509
sg13
(lp2510
sbsS'z(4, 8)'
p2511
g2
(g3
g4
Ntp2512
Rp2513
(dp2514
g8
I4
sg9
g2511
sg10
I8
sg11
(I4
I8
tp2515
sg13
(lp2516
sbsS'z(9, 4)'
p2517
g2
(g3
g4
Ntp2518
Rp2519
(dp2520
g8
I9
sg9
g2517
sg10
I4
sg11
(I9
I4
tp2521
sg13
(lp2522
sbsS'z(17, 6)'
p2523
g2
(g3
g4
Ntp2524
Rp2525
(dp2526
g8
I17
sg9
g2523
sg10
I6
sg11
(I17
I6
tp2527
sg13
(lp2528
sbsS'z(11, 23)'
p2529
g2
(g3
g4
Ntp2530
Rp2531
(dp2532
g8
I11
sg9
g2529
sg10
I23
sg11
(I11
I23
tp2533
sg13
(lp2534
sbsS'z(13, 15)'
p2535
g2
(g3
g4
Ntp2536
Rp2537
(dp2538
g8
I13
sg9
g2535
sg10
I15
sg11
(I13
I15
tp2539
sg13
(lp2540
sbsS'z(26, 29)'
p2541
g2
(g3
g4
Ntp2542
Rp2543
(dp2544
g8
I26
sg9
g2541
sg10
I29
sg11
(I26
I29
tp2545
sg13
(lp2546
sbsS'z(14, 13)'
p2547
g2
(g3
g4
Ntp2548
Rp2549
(dp2550
g8
I14
sg9
g2547
sg10
I13
sg11
(I14
I13
tp2551
sg13
(lp2552
sbsS'z(26, 5)'
p2553
g2
(g3
g4
Ntp2554
Rp2555
(dp2556
g8
I26
sg9
g2553
sg10
I5
sg11
(I26
I5
tp2557
sg13
(lp2558
sbsS'z(18, 19)'
p2559
g2
(g3
g4
Ntp2560
Rp2561
(dp2562
g8
I18
sg9
g2559
sg10
I19
sg11
(I18
I19
tp2563
sg13
(lp2564
sbsS'z(2, 25)'
p2565
g2
(g3
g4
Ntp2566
Rp2567
(dp2568
g8
I2
sg9
g2565
sg10
I25
sg11
(I2
I25
tp2569
sg13
(lp2570
sbsS'z(6, 28)'
p2571
g2
(g3
g4
Ntp2572
Rp2573
(dp2574
g8
I6
sg9
g2571
sg10
I28
sg11
(I6
I28
tp2575
sg13
(lp2576
sbsS'z(3, 20)'
p2577
g2
(g3
g4
Ntp2578
Rp2579
(dp2580
g8
I3
sg9
g2577
sg10
I20
sg11
(I3
I20
tp2581
sg13
(lp2582
sbsS'z(3, 3)'
p2583
g2
(g3
g4
Ntp2584
Rp2585
(dp2586
g8
I3
sg9
g2583
sg10
I3
sg11
(I3
I3
tp2587
sg13
(lp2588
sbsS'z(21, 23)'
p2589
g2
(g3
g4
Ntp2590
Rp2591
(dp2592
g8
I21
sg9
g2589
sg10
I23
sg11
(I21
I23
tp2593
sg13
(lp2594
sbsS'z(5, 18)'
p2595
g2
(g3
g4
Ntp2596
Rp2597
(dp2598
g8
I5
sg9
g2595
sg10
I18
sg11
(I5
I18
tp2599
sg13
(lp2600
sbsS'z(4, 14)'
p2601
g2
(g3
g4
Ntp2602
Rp2603
(dp2604
g8
I4
sg9
g2601
sg10
I14
sg11
(I4
I14
tp2605
sg13
(lp2606
sbsS'z(25, 4)'
p2607
g2
(g3
g4
Ntp2608
Rp2609
(dp2610
g8
I25
sg9
g2607
sg10
I4
sg11
(I25
I4
tp2611
sg13
(lp2612
sbsS'z(2, 23)'
p2613
g2
(g3
g4
Ntp2614
Rp2615
(dp2616
g8
I2
sg9
g2613
sg10
I23
sg11
(I2
I23
tp2617
sg13
(lp2618
sbsS'z(28, 1)'
p2619
g2
(g3
g4
Ntp2620
Rp2621
(dp2622
g8
I28
sg9
g2619
sg10
I1
sg11
(I28
I1
tp2623
sg13
(lp2624
sbsS'z(23, 7)'
p2625
g2
(g3
g4
Ntp2626
Rp2627
(dp2628
g8
I23
sg9
g2625
sg10
I7
sg11
(I23
I7
tp2629
sg13
(lp2630
sbsS'z(26, 22)'
p2631
g2
(g3
g4
Ntp2632
Rp2633
(dp2634
g8
I26
sg9
g2631
sg10
I22
sg11
(I26
I22
tp2635
sg13
(lp2636
sbsS'z(5, 4)'
p2637
g2
(g3
g4
Ntp2638
Rp2639
(dp2640
g8
I5
sg9
g2637
sg10
I4
sg11
(I5
I4
tp2641
sg13
(lp2642
sbsS'z(12, 4)'
p2643
g2
(g3
g4
Ntp2644
Rp2645
(dp2646
g8
I12
sg9
g2643
sg10
I4
sg11
(I12
I4
tp2647
sg13
(lp2648
sbsS'z(18, 1)'
p2649
g2
(g3
g4
Ntp2650
Rp2651
(dp2652
g8
I18
sg9
g2649
sg10
I1
sg11
(I18
I1
tp2653
sg13
(lp2654
sbsS'z(28, 8)'
p2655
g2
(g3
g4
Ntp2656
Rp2657
(dp2658
g8
I28
sg9
g2655
sg10
I8
sg11
(I28
I8
tp2659
sg13
(lp2660
sbsS'z(28, 20)'
p2661
g2
(g3
g4
Ntp2662
Rp2663
(dp2664
g8
I28
sg9
g2661
sg10
I20
sg11
(I28
I20
tp2665
sg13
(lp2666
sbsS'z(16, 24)'
p2667
g2
(g3
g4
Ntp2668
Rp2669
(dp2670
g8
I16
sg9
g2667
sg10
I24
sg11
(I16
I24
tp2671
sg13
(lp2672
sbsS'z(28, 14)'
p2673
g2
(g3
g4
Ntp2674
Rp2675
(dp2676
g8
I28
sg9
g2673
sg10
I14
sg11
(I28
I14
tp2677
sg13
(lp2678
sbsS'z(5, 11)'
p2679
g2
(g3
g4
Ntp2680
Rp2681
(dp2682
g8
I5
sg9
g2679
sg10
I11
sg11
(I5
I11
tp2683
sg13
(lp2684
sbsS'z(7, 5)'
p2685
g2
(g3
g4
Ntp2686
Rp2687
(dp2688
g8
I7
sg9
g2685
sg10
I5
sg11
(I7
I5
tp2689
sg13
(lp2690
sbsS'z(1, 21)'
p2691
g2
(g3
g4
Ntp2692
Rp2693
(dp2694
g8
I1
sg9
g2691
sg10
I21
sg11
(I1
I21
tp2695
sg13
(lp2696
sbsS'z(19, 10)'
p2697
g2
(g3
g4
Ntp2698
Rp2699
(dp2700
g8
I19
sg9
g2697
sg10
I10
sg11
(I19
I10
tp2701
sg13
(lp2702
sbsS'z(25, 3)'
p2703
g2
(g3
g4
Ntp2704
Rp2705
(dp2706
g8
I25
sg9
g2703
sg10
I3
sg11
(I25
I3
tp2707
sg13
(lp2708
sbsS'z(16, 30)'
p2709
g2
(g3
g4
Ntp2710
Rp2711
(dp2712
g8
I16
sg9
g2709
sg10
I30
sg11
(I16
I30
tp2713
sg13
(lp2714
sbsS'z(9, 17)'
p2715
g2
(g3
g4
Ntp2716
Rp2717
(dp2718
g8
I9
sg9
g2715
sg10
I17
sg11
(I9
I17
tp2719
sg13
(lp2720
sbsS'z(28, 7)'
p2721
g2
(g3
g4
Ntp2722
Rp2723
(dp2724
g8
I28
sg9
g2721
sg10
I7
sg11
(I28
I7
tp2725
sg13
(lp2726
sbsS'z(18, 23)'
p2727
g2
(g3
g4
Ntp2728
Rp2729
(dp2730
g8
I18
sg9
g2727
sg10
I23
sg11
(I18
I23
tp2731
sg13
(lp2732
sbsS'z(23, 5)'
p2733
g2
(g3
g4
Ntp2734
Rp2735
(dp2736
g8
I23
sg9
g2733
sg10
I5
sg11
(I23
I5
tp2737
sg13
(lp2738
sbsS'z(16, 14)'
p2739
g2
(g3
g4
Ntp2740
Rp2741
(dp2742
g8
I16
sg9
g2739
sg10
I14
sg11
(I16
I14
tp2743
sg13
(lp2744
sbsS'z(19, 24)'
p2745
g2
(g3
g4
Ntp2746
Rp2747
(dp2748
g8
I19
sg9
g2745
sg10
I24
sg11
(I19
I24
tp2749
sg13
(lp2750
sbsS'z(12, 15)'
p2751
g2
(g3
g4
Ntp2752
Rp2753
(dp2754
g8
I12
sg9
g2751
sg10
I15
sg11
(I12
I15
tp2755
sg13
(lp2756
sbsS'z(22, 5)'
p2757
g2
(g3
g4
Ntp2758
Rp2759
(dp2760
g8
I22
sg9
g2757
sg10
I5
sg11
(I22
I5
tp2761
sg13
(lp2762
sbsS'z(23, 22)'
p2763
g2
(g3
g4
Ntp2764
Rp2765
(dp2766
g8
I23
sg9
g2763
sg10
I22
sg11
(I23
I22
tp2767
sg13
(lp2768
sbsS'z(20, 6)'
p2769
g2
(g3
g4
Ntp2770
Rp2771
(dp2772
g8
I20
sg9
g2769
sg10
I6
sg11
(I20
I6
tp2773
sg13
(lp2774
sbsS'z(16, 2)'
p2775
g2
(g3
g4
Ntp2776
Rp2777
(dp2778
g8
I16
sg9
g2775
sg10
I2
sg11
(I16
I2
tp2779
sg13
(lp2780
sbsS'z(8, 27)'
p2781
g2
(g3
g4
Ntp2782
Rp2783
(dp2784
g8
I8
sg9
g2781
sg10
I27
sg11
(I8
I27
tp2785
sg13
(lp2786
sbsS'z(13, 27)'
p2787
g2
(g3
g4
Ntp2788
Rp2789
(dp2790
g8
I13
sg9
g2787
sg10
I27
sg11
(I13
I27
tp2791
sg13
(lp2792
sbsS'z(24, 29)'
p2793
g2
(g3
g4
Ntp2794
Rp2795
(dp2796
g8
I24
sg9
g2793
sg10
I29
sg11
(I24
I29
tp2797
sg13
(lp2798
sbsS'z(10, 11)'
p2799
g2
(g3
g4
Ntp2800
Rp2801
(dp2802
g8
I10
sg9
g2799
sg10
I11
sg11
(I10
I11
tp2803
sg13
(lp2804
sbsS'z(24, 6)'
p2805
g2
(g3
g4
Ntp2806
Rp2807
(dp2808
g8
I24
sg9
g2805
sg10
I6
sg11
(I24
I6
tp2809
sg13
(lp2810
sbsS'z(6, 21)'
p2811
g2
(g3
g4
Ntp2812
Rp2813
(dp2814
g8
I6
sg9
g2811
sg10
I21
sg11
(I6
I21
tp2815
sg13
(lp2816
sbsS'z(11, 20)'
p2817
g2
(g3
g4
Ntp2818
Rp2819
(dp2820
g8
I11
sg9
g2817
sg10
I20
sg11
(I11
I20
tp2821
sg13
(lp2822
sbsS'z(1, 13)'
p2823
g2
(g3
g4
Ntp2824
Rp2825
(dp2826
g8
I1
sg9
g2823
sg10
I13
sg11
(I1
I13
tp2827
sg13
(lp2828
sbsS'z(10, 29)'
p2829
g2
(g3
g4
Ntp2830
Rp2831
(dp2832
g8
I10
sg9
g2829
sg10
I29
sg11
(I10
I29
tp2833
sg13
(lp2834
sbsS'z(15, 27)'
p2835
g2
(g3
g4
Ntp2836
Rp2837
(dp2838
g8
I15
sg9
g2835
sg10
I27
sg11
(I15
I27
tp2839
sg13
(lp2840
sbsS'z(27, 26)'
p2841
g2
(g3
g4
Ntp2842
Rp2843
(dp2844
g8
I27
sg9
g2841
sg10
I26
sg11
(I27
I26
tp2845
sg13
(lp2846
sbsS'z(10, 5)'
p2847
g2
(g3
g4
Ntp2848
Rp2849
(dp2850
g8
I10
sg9
g2847
sg10
I5
sg11
(I10
I5
tp2851
sg13
(lp2852
sbsS'z(11, 14)'
p2853
g2
(g3
g4
Ntp2854
Rp2855
(dp2856
g8
I11
sg9
g2853
sg10
I14
sg11
(I11
I14
tp2857
sg13
(lp2858
sbsS'z(24, 15)'
p2859
g2
(g3
g4
Ntp2860
Rp2861
(dp2862
g8
I24
sg9
g2859
sg10
I15
sg11
(I24
I15
tp2863
sg13
(lp2864
sbsS'z(0, 5)'
p2865
g2
(g3
g4
Ntp2866
Rp2867
(dp2868
g8
I0
sg9
g2865
sg10
I5
sg11
(I0
I5
tp2869
sg13
(lp2870
sbsS'z(16, 15)'
p2871
g2
(g3
g4
Ntp2872
Rp2873
(dp2874
g8
I16
sg9
g2871
sg10
I15
sg11
(I16
I15
tp2875
sg13
(lp2876
sbsS'z(23, 25)'
p2877
g2
(g3
g4
Ntp2878
Rp2879
(dp2880
g8
I23
sg9
g2877
sg10
I25
sg11
(I23
I25
tp2881
sg13
(lp2882
sbsS'z(22, 2)'
p2883
g2
(g3
g4
Ntp2884
Rp2885
(dp2886
g8
I22
sg9
g2883
sg10
I2
sg11
(I22
I2
tp2887
sg13
(lp2888
sbsS'z(9, 9)'
p2889
g2
(g3
g4
Ntp2890
Rp2891
(dp2892
g8
I9
sg9
g2889
sg10
I9
sg11
(I9
I9
tp2893
sg13
(lp2894
sbsS'z(21, 16)'
p2895
g2
(g3
g4
Ntp2896
Rp2897
(dp2898
g8
I21
sg9
g2895
sg10
I16
sg11
(I21
I16
tp2899
sg13
(lp2900
sbsS'z(27, 5)'
p2901
g2
(g3
g4
Ntp2902
Rp2903
(dp2904
g8
I27
sg9
g2901
sg10
I5
sg11
(I27
I5
tp2905
sg13
(lp2906
sbsS'z(8, 25)'
p2907
g2
(g3
g4
Ntp2908
Rp2909
(dp2910
g8
I8
sg9
g2907
sg10
I25
sg11
(I8
I25
tp2911
sg13
(lp2912
sbsS'z(8, 24)'
p2913
g2
(g3
g4
Ntp2914
Rp2915
(dp2916
g8
I8
sg9
g2913
sg10
I24
sg11
(I8
I24
tp2917
sg13
(lp2918
sbsS'z(10, 27)'
p2919
g2
(g3
g4
Ntp2920
Rp2921
(dp2922
g8
I10
sg9
g2919
sg10
I27
sg11
(I10
I27
tp2923
sg13
(lp2924
sbsS'z(27, 28)'
p2925
g2
(g3
g4
Ntp2926
Rp2927
(dp2928
g8
I27
sg9
g2925
sg10
I28
sg11
(I27
I28
tp2929
sg13
(lp2930
sbsS'z(12, 27)'
p2931
g2
(g3
g4
Ntp2932
Rp2933
(dp2934
g8
I12
sg9
g2931
sg10
I27
sg11
(I12
I27
tp2935
sg13
(lp2936
sbsS'z(1, 1)'
p2937
g2
(g3
g4
Ntp2938
Rp2939
(dp2940
g8
I1
sg9
g2937
sg10
I1
sg11
(I1
I1
tp2941
sg13
(lp2942
sbsS'z(11, 0)'
p2943
g2
(g3
g4
Ntp2944
Rp2945
(dp2946
g8
I11
sg9
g2943
sg10
I0
sg11
(I11
I0
tp2947
sg13
(lp2948
sbsS'z(17, 26)'
p2949
g2
(g3
g4
Ntp2950
Rp2951
(dp2952
g8
I17
sg9
g2949
sg10
I26
sg11
(I17
I26
tp2953
sg13
(lp2954
sbsS'z(0, 22)'
p2955
g2
(g3
g4
Ntp2956
Rp2957
(dp2958
g8
I0
sg9
g2955
sg10
I22
sg11
(I0
I22
tp2959
sg13
(lp2960
sbsS'z(21, 28)'
p2961
g2
(g3
g4
Ntp2962
Rp2963
(dp2964
g8
I21
sg9
g2961
sg10
I28
sg11
(I21
I28
tp2965
sg13
(lp2966
sbsS'z(21, 19)'
p2967
g2
(g3
g4
Ntp2968
Rp2969
(dp2970
g8
I21
sg9
g2967
sg10
I19
sg11
(I21
I19
tp2971
sg13
(lp2972
sbsS'z(10, 20)'
p2973
g2
(g3
g4
Ntp2974
Rp2975
(dp2976
g8
I10
sg9
g2973
sg10
I20
sg11
(I10
I20
tp2977
sg13
(lp2978
sbsS'z(15, 5)'
p2979
g2
(g3
g4
Ntp2980
Rp2981
(dp2982
g8
I15
sg9
g2979
sg10
I5
sg11
(I15
I5
tp2983
sg13
(lp2984
sbsS'z(6, 10)'
p2985
g2
(g3
g4
Ntp2986
Rp2987
(dp2988
g8
I6
sg9
g2985
sg10
I10
sg11
(I6
I10
tp2989
sg13
(lp2990
sbsS'z(2, 15)'
p2991
g2
(g3
g4
Ntp2992
Rp2993
(dp2994
g8
I2
sg9
g2991
sg10
I15
sg11
(I2
I15
tp2995
sg13
(lp2996
sbsS'z(25, 14)'
p2997
g2
(g3
g4
Ntp2998
Rp2999
(dp3000
g8
I25
sg9
g2997
sg10
I14
sg11
(I25
I14
tp3001
sg13
(lp3002
sbsS'z(22, 14)'
p3003
g2
(g3
g4
Ntp3004
Rp3005
(dp3006
g8
I22
sg9
g3003
sg10
I14
sg11
(I22
I14
tp3007
sg13
(lp3008
sbsS'z(2, 11)'
p3009
g2
(g3
g4
Ntp3010
Rp3011
(dp3012
g8
I2
sg9
g3009
sg10
I11
sg11
(I2
I11
tp3013
sg13
(lp3014
sbsS'z(25, 26)'
p3015
g2
(g3
g4
Ntp3016
Rp3017
(dp3018
g8
I25
sg9
g3015
sg10
I26
sg11
(I25
I26
tp3019
sg13
(lp3020
sbsS'z(20, 14)'
p3021
g2
(g3
g4
Ntp3022
Rp3023
(dp3024
g8
I20
sg9
g3021
sg10
I14
sg11
(I20
I14
tp3025
sg13
(lp3026
sbsS'z(2, 26)'
p3027
g2
(g3
g4
Ntp3028
Rp3029
(dp3030
g8
I2
sg9
g3027
sg10
I26
sg11
(I2
I26
tp3031
sg13
(lp3032
sbsS'z(26, 12)'
p3033
g2
(g3
g4
Ntp3034
Rp3035
(dp3036
g8
I26
sg9
g3033
sg10
I12
sg11
(I26
I12
tp3037
sg13
(lp3038
sbsS'z(20, 27)'
p3039
g2
(g3
g4
Ntp3040
Rp3041
(dp3042
g8
I20
sg9
g3039
sg10
I27
sg11
(I20
I27
tp3043
sg13
(lp3044
sbsS'z(13, 0)'
p3045
g2
(g3
g4
Ntp3046
Rp3047
(dp3048
g8
I13
sg9
g3045
sg10
I0
sg11
(I13
I0
tp3049
sg13
(lp3050
sbsS'z(8, 16)'
p3051
g2
(g3
g4
Ntp3052
Rp3053
(dp3054
g8
I8
sg9
g3051
sg10
I16
sg11
(I8
I16
tp3055
sg13
(lp3056
sbsS'z(14, 21)'
p3057
g2
(g3
g4
Ntp3058
Rp3059
(dp3060
g8
I14
sg9
g3057
sg10
I21
sg11
(I14
I21
tp3061
sg13
(lp3062
sbsS'z(18, 16)'
p3063
g2
(g3
g4
Ntp3064
Rp3065
(dp3066
g8
I18
sg9
g3063
sg10
I16
sg11
(I18
I16
tp3067
sg13
(lp3068
sbsS'z(3, 18)'
p3069
g2
(g3
g4
Ntp3070
Rp3071
(dp3072
g8
I3
sg9
g3069
sg10
I18
sg11
(I3
I18
tp3073
sg13
(lp3074
sbsS'z(2, 2)'
p3075
g2
(g3
g4
Ntp3076
Rp3077
(dp3078
g8
I2
sg9
g3075
sg10
I2
sg11
(I2
I2
tp3079
sg13
(lp3080
sbsS'z(12, 9)'
p3081
g2
(g3
g4
Ntp3082
Rp3083
(dp3084
g8
I12
sg9
g3081
sg10
I9
sg11
(I12
I9
tp3085
sg13
(lp3086
sbsS'z(0, 12)'
p3087
g2
(g3
g4
Ntp3088
Rp3089
(dp3090
g8
I0
sg9
g3087
sg10
I12
sg11
(I0
I12
tp3091
sg13
(lp3092
sbsS'z(27, 13)'
p3093
g2
(g3
g4
Ntp3094
Rp3095
(dp3096
g8
I27
sg9
g3093
sg10
I13
sg11
(I27
I13
tp3097
sg13
(lp3098
sbsS'z(19, 5)'
p3099
g2
(g3
g4
Ntp3100
Rp3101
(dp3102
g8
I19
sg9
g3099
sg10
I5
sg11
(I19
I5
tp3103
sg13
(lp3104
sbsS'z(6, 1)'
p3105
g2
(g3
g4
Ntp3106
Rp3107
(dp3108
g8
I6
sg9
g3105
sg10
I1
sg11
(I6
I1
tp3109
sg13
(lp3110
sbsS'z(5, 23)'
p3111
g2
(g3
g4
Ntp3112
Rp3113
(dp3114
g8
I5
sg9
g3111
sg10
I23
sg11
(I5
I23
tp3115
sg13
(lp3116
sbsS'z(4, 4)'
p3117
g2
(g3
g4
Ntp3118
Rp3119
(dp3120
g8
I4
sg9
g3117
sg10
I4
sg11
(I4
I4
tp3121
sg13
(lp3122
sbsS'z(9, 0)'
p3123
g2
(g3
g4
Ntp3124
Rp3125
(dp3126
g8
I9
sg9
g3123
sg10
I0
sg11
(I9
I0
tp3127
sg13
(lp3128
sbsS'z(7, 12)'
p3129
g2
(g3
g4
Ntp3130
Rp3131
(dp3132
g8
I7
sg9
g3129
sg10
I12
sg11
(I7
I12
tp3133
sg13
(lp3134
sbsS'z(6, 8)'
p3135
g2
(g3
g4
Ntp3136
Rp3137
(dp3138
g8
I6
sg9
g3135
sg10
I8
sg11
(I6
I8
tp3139
sg13
(lp3140
sbsS'z(26, 15)'
p3141
g2
(g3
g4
Ntp3142
Rp3143
(dp3144
g8
I26
sg9
g3141
sg10
I15
sg11
(I26
I15
tp3145
sg13
(lp3146
sbsS'z(7, 24)'
p3147
g2
(g3
g4
Ntp3148
Rp3149
(dp3150
g8
I7
sg9
g3147
sg10
I24
sg11
(I7
I24
tp3151
sg13
(lp3152
sbsS'z(21, 3)'
p3153
g2
(g3
g4
Ntp3154
Rp3155
(dp3156
g8
I21
sg9
g3153
sg10
I3
sg11
(I21
I3
tp3157
sg13
(lp3158
sbsS'z(1, 8)'
p3159
g2
(g3
g4
Ntp3160
Rp3161
(dp3162
g8
I1
sg9
g3159
sg10
I8
sg11
(I1
I8
tp3163
sg13
(lp3164
sbsS'z(14, 4)'
p3165
g2
(g3
g4
Ntp3166
Rp3167
(dp3168
g8
I14
sg9
g3165
sg10
I4
sg11
(I14
I4
tp3169
sg13
(lp3170
sbsS'z(0, 2)'
p3171
g2
(g3
g4
Ntp3172
Rp3173
(dp3174
g8
I0
sg9
g3171
sg10
I2
sg11
(I0
I2
tp3175
sg13
(lp3176
sbsS'z(19, 14)'
p3177
g2
(g3
g4
Ntp3178
Rp3179
(dp3180
g8
I19
sg9
g3177
sg10
I14
sg11
(I19
I14
tp3181
sg13
(lp3182
sbsS'z(17, 2)'
p3183
g2
(g3
g4
Ntp3184
Rp3185
(dp3186
g8
I17
sg9
g3183
sg10
I2
sg11
(I17
I2
tp3187
sg13
(lp3188
sbsS'z(28, 24)'
p3189
g2
(g3
g4
Ntp3190
Rp3191
(dp3192
g8
I28
sg9
g3189
sg10
I24
sg11
(I28
I24
tp3193
sg13
(lp3194
sbsS'z(5, 8)'
p3195
g2
(g3
g4
Ntp3196
Rp3197
(dp3198
g8
I5
sg9
g3195
sg10
I8
sg11
(I5
I8
tp3199
sg13
(lp3200
sbsS'z(16, 28)'
p3201
g2
(g3
g4
Ntp3202
Rp3203
(dp3204
g8
I16
sg9
g3201
sg10
I28
sg11
(I16
I28
tp3205
sg13
(lp3206
sbsS'z(26, 1)'
p3207
g2
(g3
g4
Ntp3208
Rp3209
(dp3210
g8
I26
sg9
g3207
sg10
I1
sg11
(I26
I1
tp3211
sg13
(lp3212
sbsS'z(2, 27)'
p3213
g2
(g3
g4
Ntp3214
Rp3215
(dp3216
g8
I2
sg9
g3213
sg10
I27
sg11
(I2
I27
tp3217
sg13
(lp3218
sbsS'z(5, 30)'
p3219
g2
(g3
g4
Ntp3220
Rp3221
(dp3222
g8
I5
sg9
g3219
sg10
I30
sg11
(I5
I30
tp3223
sg13
(lp3224
sbsS'z(23, 27)'
p3225
g2
(g3
g4
Ntp3226
Rp3227
(dp3228
g8
I23
sg9
g3225
sg10
I27
sg11
(I23
I27
tp3229
sg13
(lp3230
sbsS'z(10, 18)'
p3231
g2
(g3
g4
Ntp3232
Rp3233
(dp3234
g8
I10
sg9
g3231
sg10
I18
sg11
(I10
I18
tp3235
sg13
(lp3236
sbsS'z(19, 29)'
p3237
g2
(g3
g4
Ntp3238
Rp3239
(dp3240
g8
I19
sg9
g3237
sg10
I29
sg11
(I19
I29
tp3241
sg13
(lp3242
sbsS'z(26, 27)'
p3243
g2
(g3
g4
Ntp3244
Rp3245
(dp3246
g8
I26
sg9
g3243
sg10
I27
sg11
(I26
I27
tp3247
sg13
(lp3248
sbsS'z(7, 27)'
p3249
g2
(g3
g4
Ntp3250
Rp3251
(dp3252
g8
I7
sg9
g3249
sg10
I27
sg11
(I7
I27
tp3253
sg13
(lp3254
sbsS'z(6, 30)'
p3255
g2
(g3
g4
Ntp3256
Rp3257
(dp3258
g8
I6
sg9
g3255
sg10
I30
sg11
(I6
I30
tp3259
sg13
(lp3260
sbsS'z(24, 24)'
p3261
g2
(g3
g4
Ntp3262
Rp3263
(dp3264
g8
I24
sg9
g3261
sg10
I24
sg11
(I24
I24
tp3265
sg13
(lp3266
sbsS'z(14, 3)'
p3267
g2
(g3
g4
Ntp3268
Rp3269
(dp3270
g8
I14
sg9
g3267
sg10
I3
sg11
(I14
I3
tp3271
sg13
(lp3272
sbsS'z(26, 30)'
p3273
g2
(g3
g4
Ntp3274
Rp3275
(dp3276
g8
I26
sg9
g3273
sg10
I30
sg11
(I26
I30
tp3277
sg13
(lp3278
sbsS'z(13, 10)'
p3279
g2
(g3
g4
Ntp3280
Rp3281
(dp3282
g8
I13
sg9
g3279
sg10
I10
sg11
(I13
I10
tp3283
sg13
(lp3284
sbsS'z(4, 20)'
p3285
g2
(g3
g4
Ntp3286
Rp3287
(dp3288
g8
I4
sg9
g3285
sg10
I20
sg11
(I4
I20
tp3289
sg13
(lp3290
sbsS'z(1, 30)'
p3291
g2
(g3
g4
Ntp3292
Rp3293
(dp3294
g8
I1
sg9
g3291
sg10
I30
sg11
(I1
I30
tp3295
sg13
(lp3296
sbsS'z(3, 8)'
p3297
g2
(g3
g4
Ntp3298
Rp3299
(dp3300
g8
I3
sg9
g3297
sg10
I8
sg11
(I3
I8
tp3301
sg13
(lp3302
sbsS'z(14, 14)'
p3303
g2
(g3
g4
Ntp3304
Rp3305
(dp3306
g8
I14
sg9
g3303
sg10
I14
sg11
(I14
I14
tp3307
sg13
(lp3308
sbsS'z(3, 11)'
p3309
g2
(g3
g4
Ntp3310
Rp3311
(dp3312
g8
I3
sg9
g3309
sg10
I11
sg11
(I3
I11
tp3313
sg13
(lp3314
sbsS'z(23, 17)'
p3315
g2
(g3
g4
Ntp3316
Rp3317
(dp3318
g8
I23
sg9
g3315
sg10
I17
sg11
(I23
I17
tp3319
sg13
(lp3320
sbsS'z(1, 15)'
p3321
g2
(g3
g4
Ntp3322
Rp3323
(dp3324
g8
I1
sg9
g3321
sg10
I15
sg11
(I1
I15
tp3325
sg13
(lp3326
sbsS'z(12, 0)'
p3327
g2
(g3
g4
Ntp3328
Rp3329
(dp3330
g8
I12
sg9
g3327
sg10
I0
sg11
(I12
I0
tp3331
sg13
(lp3332
sbsS'z(14, 26)'
p3333
g2
(g3
g4
Ntp3334
Rp3335
(dp3336
g8
I14
sg9
g3333
sg10
I26
sg11
(I14
I26
tp3337
sg13
(lp3338
sbsS'z(18, 12)'
p3339
g2
(g3
g4
Ntp3340
Rp3341
(dp3342
g8
I18
sg9
g3339
sg10
I12
sg11
(I18
I12
tp3343
sg13
(lp3344
sbsS'z(11, 24)'
p3345
g2
(g3
g4
Ntp3346
Rp3347
(dp3348
g8
I11
sg9
g3345
sg10
I24
sg11
(I11
I24
tp3349
sg13
(lp3350
sbsS'z(3, 23)'
p3351
g2
(g3
g4
Ntp3352
Rp3353
(dp3354
g8
I3
sg9
g3351
sg10
I23
sg11
(I3
I23
tp3355
sg13
(lp3356
sbsS'z(9, 26)'
p3357
g2
(g3
g4
Ntp3358
Rp3359
(dp3360
g8
I9
sg9
g3357
sg10
I26
sg11
(I9
I26
tp3361
sg13
(lp3362
sbsS'z(15, 23)'
p3363
g2
(g3
g4
Ntp3364
Rp3365
(dp3366
g8
I15
sg9
g3363
sg10
I23
sg11
(I15
I23
tp3367
sg13
(lp3368
sbsS'z(10, 1)'
p3369
g2
(g3
g4
Ntp3370
Rp3371
(dp3372
g8
I10
sg9
g3369
sg10
I1
sg11
(I10
I1
tp3373
sg13
(lp3374
sbsS'z(28, 10)'
p3375
g2
(g3
g4
Ntp3376
Rp3377
(dp3378
g8
I28
sg9
g3375
sg10
I10
sg11
(I28
I10
tp3379
sg13
(lp3380
sbsS'z(5, 15)'
p3381
g2
(g3
g4
Ntp3382
Rp3383
(dp3384
g8
I5
sg9
g3381
sg10
I15
sg11
(I5
I15
tp3385
sg13
(lp3386
sbsS'z(20, 21)'
p3387
g2
(g3
g4
Ntp3388
Rp3389
(dp3390
g8
I20
sg9
g3387
sg10
I21
sg11
(I20
I21
tp3391
sg13
(lp3392
sbsS'z(21, 30)'
p3393
g2
(g3
g4
Ntp3394
Rp3395
(dp3396
g8
I21
sg9
g3393
sg10
I30
sg11
(I21
I30
tp3397
sg13
(lp3398
sbsS'z(25, 7)'
p3399
g2
(g3
g4
Ntp3400
Rp3401
(dp3402
g8
I25
sg9
g3399
sg10
I7
sg11
(I25
I7
tp3403
sg13
(lp3404
sbsS'z(28, 6)'
p3405
g2
(g3
g4
Ntp3406
Rp3407
(dp3408
g8
I28
sg9
g3405
sg10
I6
sg11
(I28
I6
tp3409
sg13
(lp3410
sbsS'z(16, 1)'
p3411
g2
(g3
g4
Ntp3412
Rp3413
(dp3414
g8
I16
sg9
g3411
sg10
I1
sg11
(I16
I1
tp3415
sg13
(lp3416
sbsS'z(20, 19)'
p3417
g2
(g3
g4
Ntp3418
Rp3419
(dp3420
g8
I20
sg9
g3417
sg10
I19
sg11
(I20
I19
tp3421
sg13
(lp3422
sbsS'z(9, 13)'
p3423
g2
(g3
g4
Ntp3424
Rp3425
(dp3426
g8
I9
sg9
g3423
sg10
I13
sg11
(I9
I13
tp3427
sg13
(lp3428
sbsS'z(3, 6)'
p3429
g2
(g3
g4
Ntp3430
Rp3431
(dp3432
g8
I3
sg9
g3429
sg10
I6
sg11
(I3
I6
tp3433
sg13
(lp3434
sbsS'z(8, 15)'
p3435
g2
(g3
g4
Ntp3436
Rp3437
(dp3438
g8
I8
sg9
g3435
sg10
I15
sg11
(I8
I15
tp3439
sg13
(lp3440
sbsS'z(4, 10)'
p3441
g2
(g3
g4
Ntp3442
Rp3443
(dp3444
g8
I4
sg9
g3441
sg10
I10
sg11
(I4
I10
tp3445
sg13
(lp3446
sbsS'z(18, 4)'
p3447
g2
(g3
g4
Ntp3448
Rp3449
(dp3450
g8
I18
sg9
g3447
sg10
I4
sg11
(I18
I4
tp3451
sg13
(lp3452
sbsS'z(23, 3)'
p3453
g2
(g3
g4
Ntp3454
Rp3455
(dp3456
g8
I23
sg9
g3453
sg10
I3
sg11
(I23
I3
tp3457
sg13
(lp3458
sbsS'z(16, 6)'
p3459
g2
(g3
g4
Ntp3460
Rp3461
(dp3462
g8
I16
sg9
g3459
sg10
I6
sg11
(I16
I6
tp3463
sg13
(lp3464
sbsS'z(15, 30)'
p3465
g2
(g3
g4
Ntp3466
Rp3467
(dp3468
g8
I15
sg9
g3465
sg10
I30
sg11
(I15
I30
tp3469
sg13
(lp3470
sbsS'z(16, 23)'
p3471
g2
(g3
g4
Ntp3472
Rp3473
(dp3474
g8
I16
sg9
g3471
sg10
I23
sg11
(I16
I23
tp3475
sg13
(lp3476
sbsS'z(5, 3)'
p3477
g2
(g3
g4
Ntp3478
Rp3479
(dp3480
g8
I5
sg9
g3477
sg10
I3
sg11
(I5
I3
tp3481
sg13
(lp3482
sbsS'z(26, 6)'
p3483
g2
(g3
g4
Ntp3484
Rp3485
(dp3486
g8
I26
sg9
g3483
sg10
I6
sg11
(I26
I6
tp3487
sg13
(lp3488
sbsS'z(9, 15)'
p3489
g2
(g3
g4
Ntp3490
Rp3491
(dp3492
g8
I9
sg9
g3489
sg10
I15
sg11
(I9
I15
tp3493
sg13
(lp3494
sbsS'z(8, 19)'
p3495
g2
(g3
g4
Ntp3496
Rp3497
(dp3498
g8
I8
sg9
g3495
sg10
I19
sg11
(I8
I19
tp3499
sg13
(lp3500
sbsS'z(16, 8)'
p3501
g2
(g3
g4
Ntp3502
Rp3503
(dp3504
g8
I16
sg9
g3501
sg10
I8
sg11
(I16
I8
tp3505
sg13
(lp3506
sbsS'z(20, 10)'
p3507
g2
(g3
g4
Ntp3508
Rp3509
(dp3510
g8
I20
sg9
g3507
sg10
I10
sg11
(I20
I10
tp3511
sg13
(lp3512
sbsS'z(1, 14)'
p3513
g2
(g3
g4
Ntp3514
Rp3515
(dp3516
g8
I1
sg9
g3513
sg10
I14
sg11
(I1
I14
tp3517
sg13
(lp3518
sbsS'z(9, 14)'
p3519
g2
(g3
g4
Ntp3520
Rp3521
(dp3522
g8
I9
sg9
g3519
sg10
I14
sg11
(I9
I14
tp3523
sg13
(lp3524
sbsS'z(18, 26)'
p3525
g2
(g3
g4
Ntp3526
Rp3527
(dp3528
g8
I18
sg9
g3525
sg10
I26
sg11
(I18
I26
tp3529
sg13
(lp3530
sbsS'z(21, 8)'
p3531
g2
(g3
g4
Ntp3532
Rp3533
(dp3534
g8
I21
sg9
g3531
sg10
I8
sg11
(I21
I8
tp3535
sg13
(lp3536
sbsS'z(11, 10)'
p3537
g2
(g3
g4
Ntp3538
Rp3539
(dp3540
g8
I11
sg9
g3537
sg10
I10
sg11
(I11
I10
tp3541
sg13
(lp3542
sbsS'z(24, 19)'
p3543
g2
(g3
g4
Ntp3544
Rp3545
(dp3546
g8
I24
sg9
g3543
sg10
I19
sg11
(I24
I19
tp3547
sg13
(lp3548
sbsS'z(7, 0)'
p3549
g2
(g3
g4
Ntp3550
Rp3551
(dp3552
g8
I7
sg9
g3549
sg10
I0
sg11
(I7
I0
tp3553
sg13
(lp3554
sbsS'z(19, 21)'
p3555
g2
(g3
g4
Ntp3556
Rp3557
(dp3558
g8
I19
sg9
g3555
sg10
I21
sg11
(I19
I21
tp3559
sg13
(lp3560
sbsS'z(23, 21)'
p3561
g2
(g3
g4
Ntp3562
Rp3563
(dp3564
g8
I23
sg9
g3561
sg10
I21
sg11
(I23
I21
tp3565
sg13
(lp3566
sbsS'z(22, 6)'
p3567
g2
(g3
g4
Ntp3568
Rp3569
(dp3570
g8
I22
sg9
g3567
sg10
I6
sg11
(I22
I6
tp3571
sg13
(lp3572
sbsS'z(27, 9)'
p3573
g2
(g3
g4
Ntp3574
Rp3575
(dp3576
g8
I27
sg9
g3573
sg10
I9
sg11
(I27
I9
tp3577
sg13
(lp3578
sbsS'z(19, 19)'
p3579
g2
(g3
g4
Ntp3580
Rp3581
(dp3582
g8
I19
sg9
g3579
sg10
I19
sg11
(I19
I19
tp3583
sg13
(lp3584
sbsS'z(17, 9)'
p3585
g2
(g3
g4
Ntp3586
Rp3587
(dp3588
g8
I17
sg9
g3585
sg10
I9
sg11
(I17
I9
tp3589
sg13
(lp3590
sbsS'z(15, 2)'
p3591
g2
(g3
g4
Ntp3592
Rp3593
(dp3594
g8
I15
sg9
g3591
sg10
I2
sg11
(I15
I2
tp3595
sg13
(lp3596
sbsS'z(4, 29)'
p3597
g2
(g3
g4
Ntp3598
Rp3599
(dp3600
g8
I4
sg9
g3597
sg10
I29
sg11
(I4
I29
tp3601
sg13
(lp3602
sbsS'z(12, 11)'
p3603
g2
(g3
g4
Ntp3604
Rp3605
(dp3606
g8
I12
sg9
g3603
sg10
I11
sg11
(I12
I11
tp3607
sg13
(lp3608
sbsS'z(24, 3)'
p3609
g2
(g3
g4
Ntp3610
Rp3611
(dp3612
g8
I24
sg9
g3609
sg10
I3
sg11
(I24
I3
tp3613
sg13
(lp3614
sbsS'z(20, 2)'
p3615
g2
(g3
g4
Ntp3616
Rp3617
(dp3618
g8
I20
sg9
g3615
sg10
I2
sg11
(I20
I2
tp3619
sg13
(lp3620
sbsS'z(6, 22)'
p3621
g2
(g3
g4
Ntp3622
Rp3623
(dp3624
g8
I6
sg9
g3621
sg10
I22
sg11
(I6
I22
tp3625
sg13
(lp3626
sbsS'z(15, 28)'
p3627
g2
(g3
g4
Ntp3628
Rp3629
(dp3630
g8
I15
sg9
g3627
sg10
I28
sg11
(I15
I28
tp3631
sg13
(lp3632
sbsS'z(10, 8)'
p3633
g2
(g3
g4
Ntp3634
Rp3635
(dp3636
g8
I10
sg9
g3633
sg10
I8
sg11
(I10
I8
tp3637
sg13
(lp3638
sbsS'z(12, 28)'
p3639
g2
(g3
g4
Ntp3640
Rp3641
(dp3642
g8
I12
sg9
g3639
sg10
I28
sg11
(I12
I28
tp3643
sg13
(lp3644
sbsS'z(28, 17)'
p3645
g2
(g3
g4
Ntp3646
Rp3647
(dp3648
g8
I28
sg9
g3645
sg10
I17
sg11
(I28
I17
tp3649
sg13
(lp3650
sbsS'z(25, 10)'
p3651
g2
(g3
g4
Ntp3652
Rp3653
(dp3654
g8
I25
sg9
g3651
sg10
I10
sg11
(I25
I10
tp3655
sg13
(lp3656
sbsS'z(15, 12)'
p3657
g2
(g3
g4
Ntp3658
Rp3659
(dp3660
g8
I15
sg9
g3657
sg10
I12
sg11
(I15
I12
tp3661
sg13
(lp3662
sbsS'z(24, 27)'
p3663
g2
(g3
g4
Ntp3664
Rp3665
(dp3666
g8
I24
sg9
g3663
sg10
I27
sg11
(I24
I27
tp3667
sg13
(lp3668
sbsS'z(14, 8)'
p3669
g2
(g3
g4
Ntp3670
Rp3671
(dp3672
g8
I14
sg9
g3669
sg10
I8
sg11
(I14
I8
tp3673
sg13
(lp3674
sbsS'z(6, 18)'
p3675
g2
(g3
g4
Ntp3676
Rp3677
(dp3678
g8
I6
sg9
g3675
sg10
I18
sg11
(I6
I18
tp3679
sg13
(lp3680
sbsS'z(27, 0)'
p3681
g2
(g3
g4
Ntp3682
Rp3683
(dp3684
g8
I27
sg9
g3681
sg10
I0
sg11
(I27
I0
tp3685
sg13
(lp3686
sbsS'z(21, 13)'
p3687
g2
(g3
g4
Ntp3688
Rp3689
(dp3690
g8
I21
sg9
g3687
sg10
I13
sg11
(I21
I13
tp3691
sg13
(lp3692
sbsS'z(1, 4)'
p3693
g2
(g3
g4
Ntp3694
Rp3695
(dp3696
g8
I1
sg9
g3693
sg10
I4
sg11
(I1
I4
tp3697
sg13
(lp3698
sbsS'z(8, 22)'
p3699
g2
(g3
g4
Ntp3700
Rp3701
(dp3702
g8
I8
sg9
g3699
sg10
I22
sg11
(I8
I22
tp3703
sg13
(lp3704
sbsS'z(0, 6)'
p3705
g2
(g3
g4
Ntp3706
Rp3707
(dp3708
g8
I0
sg9
g3705
sg10
I6
sg11
(I0
I6
tp3709
sg13
(lp3710
sbsS'z(6, 5)'
p3711
g2
(g3
g4
Ntp3712
Rp3713
(dp3714
g8
I6
sg9
g3711
sg10
I5
sg11
(I6
I5
tp3715
sg13
(lp3716
sbsS'z(11, 5)'
p3717
g2
(g3
g4
Ntp3718
Rp3719
(dp3720
g8
I11
sg9
g3717
sg10
I5
sg11
(I11
I5
tp3721
sg13
(lp3722
sbsS'z(13, 4)'
p3723
g2
(g3
g4
Ntp3724
Rp3725
(dp3726
g8
I13
sg9
g3723
sg10
I4
sg11
(I13
I4
tp3727
sg13
(lp3728
sbsS'z(27, 23)'
p3729
g2
(g3
g4
Ntp3730
Rp3731
(dp3732
g8
I27
sg9
g3729
sg10
I23
sg11
(I27
I23
tp3733
sg13
(lp3734
sbsS'z(12, 30)'
p3735
g2
(g3
g4
Ntp3736
Rp3737
(dp3738
g8
I12
sg9
g3735
sg10
I30
sg11
(I12
I30
tp3739
sg13
(lp3740
sbsS'z(25, 28)'
p3741
g2
(g3
g4
Ntp3742
Rp3743
(dp3744
g8
I25
sg9
g3741
sg10
I28
sg11
(I25
I28
tp3745
sg13
(lp3746
sbsS'z(7, 17)'
p3747
g2
(g3
g4
Ntp3748
Rp3749
(dp3750
g8
I7
sg9
g3747
sg10
I17
sg11
(I7
I17
tp3751
sg13
(lp3752
sbsS'z(26, 18)'
p3753
g2
(g3
g4
Ntp3754
Rp3755
(dp3756
g8
I26
sg9
g3753
sg10
I18
sg11
(I26
I18
tp3757
sg13
(lp3758
sbsS'z(0, 30)'
p3759
g2
(g3
g4
Ntp3760
Rp3761
(dp3762
g8
I0
sg9
g3759
sg10
I30
sg11
(I0
I30
tp3763
sg13
(lp3764
sbsS'z(6, 13)'
p3765
g2
(g3
g4
Ntp3766
Rp3767
(dp3768
g8
I6
sg9
g3765
sg10
I13
sg11
(I6
I13
tp3769
sg13
(lp3770
sbsS'z(12, 23)'
p3771
g2
(g3
g4
Ntp3772
Rp3773
(dp3774
g8
I12
sg9
g3771
sg10
I23
sg11
(I12
I23
tp3775
sg13
(lp3776
sbsS'z(25, 19)'
p3777
g2
(g3
g4
Ntp3778
Rp3779
(dp3780
g8
I25
sg9
g3777
sg10
I19
sg11
(I25
I19
tp3781
sg13
(lp3782
sbsS'z(22, 13)'
p3783
g2
(g3
g4
Ntp3784
Rp3785
(dp3786
g8
I22
sg9
g3783
sg10
I13
sg11
(I22
I13
tp3787
sg13
(lp3788
sbsS'z(9, 24)'
p3789
g2
(g3
g4
Ntp3790
Rp3791
(dp3792
g8
I9
sg9
g3789
sg10
I24
sg11
(I9
I24
tp3793
sg13
(lp3794
sbsS'z(2, 14)'
p3795
g2
(g3
g4
Ntp3796
Rp3797
(dp3798
g8
I2
sg9
g3795
sg10
I14
sg11
(I2
I14
tp3799
sg13
(lp3800
sbsS'z(17, 22)'
p3801
g2
(g3
g4
Ntp3802
Rp3803
(dp3804
g8
I17
sg9
g3801
sg10
I22
sg11
(I17
I22
tp3805
sg13
(lp3806
sbsS'z(15, 16)'
p3807
g2
(g3
g4
Ntp3808
Rp3809
(dp3810
g8
I15
sg9
g3807
sg10
I16
sg11
(I15
I16
tp3811
sg13
(lp3812
sbsS'z(13, 30)'
p3813
g2
(g3
g4
Ntp3814
Rp3815
(dp3816
g8
I13
sg9
g3813
sg10
I30
sg11
(I13
I30
tp3817
sg13
(lp3818
sbsS'z(25, 21)'
p3819
g2
(g3
g4
Ntp3820
Rp3821
(dp3822
g8
I25
sg9
g3819
sg10
I21
sg11
(I25
I21
tp3823
sg13
(lp3824
sbsS'z(22, 19)'
p3825
g2
(g3
g4
Ntp3826
Rp3827
(dp3828
g8
I22
sg9
g3825
sg10
I19
sg11
(I22
I19
tp3829
sg13
(lp3830
sbsS'z(20, 17)'
p3831
g2
(g3
g4
Ntp3832
Rp3833
(dp3834
g8
I20
sg9
g3831
sg10
I17
sg11
(I20
I17
tp3835
sg13
(lp3836
sbsS'z(4, 0)'
p3837
g2
(g3
g4
Ntp3838
Rp3839
(dp3840
g8
I4
sg9
g3837
sg10
I0
sg11
(I4
I0
tp3841
sg13
(lp3842
sbsS'z(11, 17)'
p3843
g2
(g3
g4
Ntp3844
Rp3845
(dp3846
g8
I11
sg9
g3843
sg10
I17
sg11
(I11
I17
tp3847
sg13
(lp3848
sbsS'z(24, 10)'
p3849
g2
(g3
g4
Ntp3850
Rp3851
(dp3852
g8
I24
sg9
g3849
sg10
I10
sg11
(I24
I10
tp3853
sg13
(lp3854
sbsS'z(10, 22)'
p3855
g2
(g3
g4
Ntp3856
Rp3857
(dp3858
g8
I10
sg9
g3855
sg10
I22
sg11
(I10
I22
tp3859
sg13
(lp3860
sbsS'z(16, 12)'
p3861
g2
(g3
g4
Ntp3862
Rp3863
(dp3864
g8
I16
sg9
g3861
sg10
I12
sg11
(I16
I12
tp3865
sg13
(lp3866
sbsS'z(22, 16)'
p3867
g2
(g3
g4
Ntp3868
Rp3869
(dp3870
g8
I22
sg9
g3867
sg10
I16
sg11
(I22
I16
tp3871
sg13
(lp3872
sbsS'z(0, 28)'
p3873
g2
(g3
g4
Ntp3874
Rp3875
(dp3876
g8
I0
sg9
g3873
sg10
I28
sg11
(I0
I28
tp3877
sg13
(lp3878
sbsS'z(14, 10)'
p3879
g2
(g3
g4
Ntp3880
Rp3881
(dp3882
g8
I14
sg9
g3879
sg10
I10
sg11
(I14
I10
tp3883
sg13
(lp3884
sbsS'z(18, 13)'
p3885
g2
(g3
g4
Ntp3886
Rp3887
(dp3888
g8
I18
sg9
g3885
sg10
I13
sg11
(I18
I13
tp3889
sg13
(lp3890
sbsS'z(3, 15)'
p3891
g2
(g3
g4
Ntp3892
Rp3893
(dp3894
g8
I3
sg9
g3891
sg10
I15
sg11
(I3
I15
tp3895
sg13
(lp3896
sbsS'z(23, 13)'
p3897
g2
(g3
g4
Ntp3898
Rp3899
(dp3900
g8
I23
sg9
g3897
sg10
I13
sg11
(I23
I13
tp3901
sg13
(lp3902
sbsS'z(18, 9)'
p3903
g2
(g3
g4
Ntp3904
Rp3905
(dp3906
g8
I18
sg9
g3903
sg10
I9
sg11
(I18
I9
tp3907
sg13
(lp3908
sbsS'z(8, 4)'
p3909
g2
(g3
g4
Ntp3910
Rp3911
(dp3912
g8
I8
sg9
g3909
sg10
I4
sg11
(I8
I4
tp3913
sg13
(lp3914
sbsS'z(27, 16)'
p3915
g2
(g3
g4
Ntp3916
Rp3917
(dp3918
g8
I27
sg9
g3915
sg10
I16
sg11
(I27
I16
tp3919
sg13
(lp3920
sbsS'z(28, 28)'
p3921
g2
(g3
g4
Ntp3922
Rp3923
(dp3924
g8
I28
sg9
g3921
sg10
I28
sg11
(I28
I28
tp3925
sg13
(lp3926
sbsS'z(27, 10)'
p3927
g2
(g3
g4
Ntp3928
Rp3929
(dp3930
g8
I27
sg9
g3927
sg10
I10
sg11
(I27
I10
tp3931
sg13
(lp3932
sbsS'z(0, 11)'
p3933
g2
(g3
g4
Ntp3934
Rp3935
(dp3936
g8
I0
sg9
g3933
sg10
I11
sg11
(I0
I11
tp3937
sg13
(lp3938
sbsS'z(7, 30)'
p3939
g2
(g3
g4
Ntp3940
Rp3941
(dp3942
g8
I7
sg9
g3939
sg10
I30
sg11
(I7
I30
tp3943
sg13
(lp3944
sbsS'z(2, 7)'
p3945
g2
(g3
g4
Ntp3946
Rp3947
(dp3948
g8
I2
sg9
g3945
sg10
I7
sg11
(I2
I7
tp3949
sg13
(lp3950
sbsS'z(21, 6)'
p3951
g2
(g3
g4
Ntp3952
Rp3953
(dp3954
g8
I21
sg9
g3951
sg10
I6
sg11
(I21
I6
tp3955
sg13
(lp3956
sbsS'z(0, 16)'
p3957
g2
(g3
g4
Ntp3958
Rp3959
(dp3960
g8
I0
sg9
g3957
sg10
I16
sg11
(I0
I16
tp3961
sg13
(lp3962
sbsS'z(17, 12)'
p3963
g2
(g3
g4
Ntp3964
Rp3965
(dp3966
g8
I17
sg9
g3963
sg10
I12
sg11
(I17
I12
tp3967
sg13
(lp3968
sbsS'z(19, 1)'
p3969
g2
(g3
g4
Ntp3970
Rp3971
(dp3972
g8
I19
sg9
g3969
sg10
I1
sg11
(I19
I1
tp3973
sg13
(lp3974
sbsS'z(9, 7)'
p3975
g2
(g3
g4
Ntp3976
Rp3977
(dp3978
g8
I9
sg9
g3975
sg10
I7
sg11
(I9
I7
tp3979
sg13
(lp3980
sbsS'z(4, 9)'
p3981
g2
(g3
g4
Ntp3982
Rp3983
(dp3984
g8
I4
sg9
g3981
sg10
I9
sg11
(I4
I9
tp3985
sg13
(lp3986
sbsS'z(1, 10)'
p3987
g2
(g3
g4
Ntp3988
Rp3989
(dp3990
g8
I1
sg9
g3987
sg10
I10
sg11
(I1
I10
tp3991
sg13
(lp3992
sbsS'z(27, 15)'
p3993
g2
(g3
g4
Ntp3994
Rp3995
(dp3996
g8
I27
sg9
g3993
sg10
I15
sg11
(I27
I15
tp3997
sg13
(lp3998
sbsS'z(1, 17)'
p3999
g2
(g3
g4
Ntp4000
Rp4001
(dp4002
g8
I1
sg9
g3999
sg10
I17
sg11
(I1
I17
tp4003
sg13
(lp4004
sbsS'z(17, 7)'
p4005
g2
(g3
g4
Ntp4006
Rp4007
(dp4008
g8
I17
sg9
g4005
sg10
I7
sg11
(I17
I7
tp4009
sg13
(lp4010
sbsS'z(13, 14)'
p4011
g2
(g3
g4
Ntp4012
Rp4013
(dp4014
g8
I13
sg9
g4011
sg10
I14
sg11
(I13
I14
tp4015
sg13
(lp4016
sbsS'z(24, 23)'
p4017
g2
(g3
g4
Ntp4018
Rp4019
(dp4020
g8
I24
sg9
g4017
sg10
I23
sg11
(I24
I23
tp4021
sg13
(lp4022
sbsS'z(5, 29)'
p4023
g2
(g3
g4
Ntp4024
Rp4025
(dp4026
g8
I5
sg9
g4023
sg10
I29
sg11
(I5
I29
tp4027
sg13
(lp4028
sbsS'z(16, 27)'
p4029
g2
(g3
g4
Ntp4030
Rp4031
(dp4032
g8
I16
sg9
g4029
sg10
I27
sg11
(I16
I27
tp4033
sg13
(lp4034
sbsS'z(26, 2)'
p4035
g2
(g3
g4
Ntp4036
Rp4037
(dp4038
g8
I26
sg9
g4035
sg10
I2
sg11
(I26
I2
tp4039
sg13
(lp4040
sbsS'z(18, 22)'
p4041
g2
(g3
g4
Ntp4042
Rp4043
(dp4044
g8
I18
sg9
g4041
sg10
I22
sg11
(I18
I22
tp4045
sg13
(lp4046
sbsS'z(5, 7)'
p4047
g2
(g3
g4
Ntp4048
Rp4049
(dp4050
g8
I5
sg9
g4047
sg10
I7
sg11
(I5
I7
tp4051
sg13
(lp4052
sbsS'z(11, 28)'
p4053
g2
(g3
g4
Ntp4054
Rp4055
(dp4056
g8
I11
sg9
g4053
sg10
I28
sg11
(I11
I28
tp4057
sg13
(lp4058
sbsS'z(26, 24)'
p4059
g2
(g3
g4
Ntp4060
Rp4061
(dp4062
g8
I26
sg9
g4059
sg10
I24
sg11
(I26
I24
tp4063
sg13
(lp4064
sbsS'z(3, 2)'
p4065
g2
(g3
g4
Ntp4066
Rp4067
(dp4068
g8
I3
sg9
g4065
sg10
I2
sg11
(I3
I2
tp4069
sg13
(lp4070
sbsS'z(6, 23)'
p4071
g2
(g3
g4
Ntp4072
Rp4073
(dp4074
g8
I6
sg9
g4071
sg10
I23
sg11
(I6
I23
tp4075
sg13
(lp4076
sbsS'z(2, 1)'
p4077
g2
(g3
g4
Ntp4078
Rp4079
(dp4080
g8
I2
sg9
g4077
sg10
I1
sg11
(I2
I1
tp4081
sg13
(lp4082
sbsS'z(7, 23)'
p4083
g2
(g3
g4
Ntp4084
Rp4085
(dp4086
g8
I7
sg9
g4083
sg10
I23
sg11
(I7
I23
tp4087
sg13
(lp4088
sbsS'z(5, 19)'
p4089
g2
(g3
g4
Ntp4090
Rp4091
(dp4092
g8
I5
sg9
g4089
sg10
I19
sg11
(I5
I19
tp4093
sg13
(lp4094
sbsS'z(20, 25)'
p4095
g2
(g3
g4
Ntp4096
Rp4097
(dp4098
g8
I20
sg9
g4095
sg10
I25
sg11
(I20
I25
tp4099
sg13
(lp4100
sbsS'z(4, 17)'
p4101
g2
(g3
g4
Ntp4102
Rp4103
(dp4104
g8
I4
sg9
g4101
sg10
I17
sg11
(I4
I17
tp4105
sg13
(lp4106
sbsS'z(10, 26)'
p4107
g2
(g3
g4
Ntp4108
Rp4109
(dp4110
g8
I10
sg9
g4107
sg10
I26
sg11
(I10
I26
tp4111
sg13
(lp4112
sbsS'z(15, 14)'
p4113
g2
(g3
g4
Ntp4114
Rp4115
(dp4116
g8
I15
sg9
g4113
sg10
I14
sg11
(I15
I14
tp4117
sg13
(lp4118
sbsS'z(26, 23)'
p4119
g2
(g3
g4
Ntp4120
Rp4121
(dp4122
g8
I26
sg9
g4119
sg10
I23
sg11
(I26
I23
tp4123
sg13
(lp4124
sbsS'z(8, 7)'
p4125
g2
(g3
g4
Ntp4126
Rp4127
(dp4128
g8
I8
sg9
g4125
sg10
I7
sg11
(I8
I7
tp4129
sg13
(lp4130
sbsS'z(23, 14)'
p4131
g2
(g3
g4
Ntp4132
Rp4133
(dp4134
g8
I23
sg9
g4131
sg10
I14
sg11
(I23
I14
tp4135
sg13
(lp4136
sbsS'z(3, 12)'
p4137
g2
(g3
g4
Ntp4138
Rp4139
(dp4140
g8
I3
sg9
g4137
sg10
I12
sg11
(I3
I12
tp4141
sg13
(lp4142
sbsS'z(2, 8)'
p4143
g2
(g3
g4
Ntp4144
Rp4145
(dp4146
g8
I2
sg9
g4143
sg10
I8
sg11
(I2
I8
tp4147
sg13
(lp4148
sbsS'z(3, 29)'
p4149
g2
(g3
g4
Ntp4150
Rp4151
(dp4152
g8
I3
sg9
g4149
sg10
I29
sg11
(I3
I29
tp4153
sg13
(lp4154
sbsS'z(18, 0)'
p4155
g2
(g3
g4
Ntp4156
Rp4157
(dp4158
g8
I18
sg9
g4155
sg10
I0
sg11
(I18
I0
tp4159
sg13
(lp4160
sbsS'z(28, 9)'
p4161
g2
(g3
g4
Ntp4162
Rp4163
(dp4164
g8
I28
sg9
g4161
sg10
I9
sg11
(I28
I9
tp4165
sg13
(lp4166
sbsS'z(12, 7)'
p4167
g2
(g3
g4
Ntp4168
Rp4169
(dp4170
g8
I12
sg9
g4167
sg10
I7
sg11
(I12
I7
tp4171
sg13
(lp4172
sbsS'z(28, 21)'
p4173
g2
(g3
g4
Ntp4174
Rp4175
(dp4176
g8
I28
sg9
g4173
sg10
I21
sg11
(I28
I21
tp4177
sg13
(lp4178
sbsS'z(10, 4)'
p4179
g2
(g3
g4
Ntp4180
Rp4181
(dp4182
g8
I10
sg9
g4179
sg10
I4
sg11
(I10
I4
tp4183
sg13
(lp4184
sbsS'z(8, 12)'
p4185
g2
(g3
g4
Ntp4186
Rp4187
(dp4188
g8
I8
sg9
g4185
sg10
I12
sg11
(I8
I12
tp4189
sg13
(lp4190
sbsS'z(21, 29)'
p4191
g2
(g3
g4
Ntp4192
Rp4193
(dp4194
g8
I21
sg9
g4191
sg10
I29
sg11
(I21
I29
tp4195
sg13
(lp4196
sbsS'z(7, 4)'
p4197
g2
(g3
g4
Ntp4198
Rp4199
(dp4200
g8
I7
sg9
g4197
sg10
I4
sg11
(I7
I4
tp4201
sg13
(lp4202
sbsS'z(28, 13)'
p4203
g2
(g3
g4
Ntp4204
Rp4205
(dp4206
g8
I28
sg9
g4203
sg10
I13
sg11
(I28
I13
tp4207
sg13
(lp4208
sbsS'z(3, 30)'
p4209
g2
(g3
g4
Ntp4210
Rp4211
(dp4212
g8
I3
sg9
g4209
sg10
I30
sg11
(I3
I30
tp4213
sg13
(lp4214
sbsS'z(1, 20)'
p4215
g2
(g3
g4
Ntp4216
Rp4217
(dp4218
g8
I1
sg9
g4215
sg10
I20
sg11
(I1
I20
tp4219
sg13
(lp4220
sbsS'z(5, 12)'
p4221
g2
(g3
g4
Ntp4222
Rp4223
(dp4224
g8
I5
sg9
g4221
sg10
I12
sg11
(I5
I12
tp4225
sg13
(lp4226
sbsS'z(20, 22)'
p4227
g2
(g3
g4
Ntp4228
Rp4229
(dp4230
g8
I20
sg9
g4227
sg10
I22
sg11
(I20
I22
tp4231
sg13
(lp4232
sbsS'z(25, 2)'
p4233
g2
(g3
g4
Ntp4234
Rp4235
(dp4236
g8
I25
sg9
g4233
sg10
I2
sg11
(I25
I2
tp4237
sg13
(lp4238
sbsS'z(2, 19)'
p4239
g2
(g3
g4
Ntp4240
Rp4241
(dp4242
g8
I2
sg9
g4239
sg10
I19
sg11
(I2
I19
tp4243
sg13
(lp4244
sbsS'z(23, 9)'
p4245
g2
(g3
g4
Ntp4246
Rp4247
(dp4248
g8
I23
sg9
g4245
sg10
I9
sg11
(I23
I9
tp4249
sg13
(lp4250
sbsS'z(22, 11)'
p4251
g2
(g3
g4
Ntp4252
Rp4253
(dp4254
g8
I22
sg9
g4251
sg10
I11
sg11
(I22
I11
tp4255
sg13
(lp4256
sbsS'z(13, 21)'
p4257
g2
(g3
g4
Ntp4258
Rp4259
(dp4260
g8
I13
sg9
g4257
sg10
I21
sg11
(I13
I21
tp4261
sg13
(lp4262
sbsS'z(9, 10)'
p4263
g2
(g3
g4
Ntp4264
Rp4265
(dp4266
g8
I9
sg9
g4263
sg10
I10
sg11
(I9
I10
tp4267
sg13
(lp4268
sbsS'z(2, 22)'
p4269
g2
(g3
g4
Ntp4270
Rp4271
(dp4272
g8
I2
sg9
g4269
sg10
I22
sg11
(I2
I22
tp4273
sg13
(lp4274
sbsS'z(19, 25)'
p4275
g2
(g3
g4
Ntp4276
Rp4277
(dp4278
g8
I19
sg9
g4275
sg10
I25
sg11
(I19
I25
tp4279
sg13
(lp4280
sbsS'z(12, 16)'
p4281
g2
(g3
g4
Ntp4282
Rp4283
(dp4284
g8
I12
sg9
g4281
sg10
I16
sg11
(I12
I16
tp4285
sg13
(lp4286
sbsS'z(23, 6)'
p4287
g2
(g3
g4
Ntp4288
Rp4289
(dp4290
g8
I23
sg9
g4287
sg10
I6
sg11
(I23
I6
tp4291
sg13
(lp4292
sbsS'z(18, 7)'
p4293
g2
(g3
g4
Ntp4294
Rp4295
(dp4296
g8
I18
sg9
g4293
sg10
I7
sg11
(I18
I7
tp4297
sg13
(lp4298
sbsS'z(28, 2)'
p4299
g2
(g3
g4
Ntp4300
Rp4301
(dp4302
g8
I28
sg9
g4299
sg10
I2
sg11
(I28
I2
tp4303
sg13
(lp4304
sbsS'z(16, 5)'
p4305
g2
(g3
g4
Ntp4306
Rp4307
(dp4308
g8
I16
sg9
g4305
sg10
I5
sg11
(I16
I5
tp4309
sg13
(lp4310
sbsS'z(13, 28)'
p4311
g2
(g3
g4
Ntp4312
Rp4313
(dp4314
g8
I13
sg9
g4311
sg10
I28
sg11
(I13
I28
tp4315
sg13
(lp4316
sbsS'z(25, 30)'
p4317
g2
(g3
g4
Ntp4318
Rp4319
(dp4320
g8
I25
sg9
g4317
sg10
I30
sg11
(I25
I30
tp4321
sg13
(lp4322
sbsS'z(24, 7)'
p4323
g2
(g3
g4
Ntp4324
Rp4325
(dp4326
g8
I24
sg9
g4323
sg10
I7
sg11
(I24
I7
tp4327
sg13
(lp4328
sbsS'z(11, 30)'
p4329
g2
(g3
g4
Ntp4330
Rp4331
(dp4332
g8
I11
sg9
g4329
sg10
I30
sg11
(I11
I30
tp4333
sg13
(lp4334
sbsS'z(4, 23)'
p4335
g2
(g3
g4
Ntp4336
Rp4337
(dp4338
g8
I4
sg9
g4335
sg10
I23
sg11
(I4
I23
tp4339
sg13
(lp4340
sbsS'z(22, 25)'
p4341
g2
(g3
g4
Ntp4342
Rp4343
(dp4344
g8
I22
sg9
g4341
sg10
I25
sg11
(I22
I25
tp4345
sg13
(lp4346
sbsS'z(7, 19)'
p4347
g2
(g3
g4
Ntp4348
Rp4349
(dp4350
g8
I7
sg9
g4347
sg10
I19
sg11
(I7
I19
tp4351
sg13
(lp4352
sbsS'z(3, 26)'
p4353
g2
(g3
g4
Ntp4354
Rp4355
(dp4356
g8
I3
sg9
g4353
sg10
I26
sg11
(I3
I26
tp4357
sg13
(lp4358
sbsS'z(10, 28)'
p4359
g2
(g3
g4
Ntp4360
Rp4361
(dp4362
g8
I10
sg9
g4359
sg10
I28
sg11
(I10
I28
tp4363
sg13
(lp4364
sbsS'z(15, 24)'
p4365
g2
(g3
g4
Ntp4366
Rp4367
(dp4368
g8
I15
sg9
g4365
sg10
I24
sg11
(I15
I24
tp4369
sg13
(lp4370
sbsS'z(18, 29)'
p4371
g2
(g3
g4
Ntp4372
Rp4373
(dp4374
g8
I18
sg9
g4371
sg10
I29
sg11
(I18
I29
tp4375
sg13
(lp4376
sbsS'z(27, 19)'
p4377
g2
(g3
g4
Ntp4378
Rp4379
(dp4380
g8
I27
sg9
g4377
sg10
I19
sg11
(I27
I19
tp4381
sg13
(lp4382
sbsS'z(11, 13)'
p4383
g2
(g3
g4
Ntp4384
Rp4385
(dp4386
g8
I11
sg9
g4383
sg10
I13
sg11
(I11
I13
tp4387
sg13
(lp4388
sbsS'z(24, 14)'
p4389
g2
(g3
g4
Ntp4390
Rp4391
(dp4392
g8
I24
sg9
g4389
sg10
I14
sg11
(I24
I14
tp4393
sg13
(lp4394
sbsS'z(19, 22)'
p4395
g2
(g3
g4
Ntp4396
Rp4397
(dp4398
g8
I19
sg9
g4395
sg10
I22
sg11
(I19
I22
tp4399
sg13
(lp4400
sbsS'z(9, 8)'
p4401
g2
(g3
g4
Ntp4402
Rp4403
(dp4404
g8
I9
sg9
g4401
sg10
I8
sg11
(I9
I8
tp4405
sg13
(lp4406
sbsS'z(22, 3)'
p4407
g2
(g3
g4
Ntp4408
Rp4409
(dp4410
g8
I22
sg9
g4407
sg10
I3
sg11
(I22
I3
tp4411
sg13
(lp4412
sbsS'z(23, 24)'
p4413
g2
(g3
g4
Ntp4414
Rp4415
(dp4416
g8
I23
sg9
g4413
sg10
I24
sg11
(I23
I24
tp4417
sg13
(lp4418
sbsS'z(20, 8)'
p4419
g2
(g3
g4
Ntp4420
Rp4421
(dp4422
g8
I20
sg9
g4419
sg10
I8
sg11
(I20
I8
tp4423
sg13
(lp4424
sbsS'z(27, 4)'
p4425
g2
(g3
g4
Ntp4426
Rp4427
(dp4428
g8
I27
sg9
g4425
sg10
I4
sg11
(I27
I4
tp4429
sg13
(lp4430
sbsS'z(21, 17)'
p4431
g2
(g3
g4
Ntp4432
Rp4433
(dp4434
g8
I21
sg9
g4431
sg10
I17
sg11
(I21
I17
tp4435
sg13
(lp4436
sbsS'z(15, 18)'
p4437
g2
(g3
g4
Ntp4438
Rp4439
(dp4440
g8
I15
sg9
g4437
sg10
I18
sg11
(I15
I18
tp4441
sg13
(lp4442
sbsS'z(24, 30)'
p4443
g2
(g3
g4
Ntp4444
Rp4445
(dp4446
g8
I24
sg9
g4443
sg10
I30
sg11
(I24
I30
tp4447
sg13
(lp4448
sbsS'z(1, 0)'
p4449
g2
(g3
g4
Ntp4450
Rp4451
(dp4452
g8
I1
sg9
g4449
sg10
I0
sg11
(I1
I0
tp4453
sg13
(lp4454
sbsS'z(10, 30)'
p4455
g2
(g3
g4
Ntp4456
Rp4457
(dp4458
g8
I10
sg9
g4455
sg10
I30
sg11
(I10
I30
tp4459
sg13
(lp4460
sbsS'z(24, 28)'
p4461
g2
(g3
g4
Ntp4462
Rp4463
(dp4464
g8
I24
sg9
g4461
sg10
I28
sg11
(I24
I28
tp4465
sg13
(lp4466
sbsS'z(11, 1)'
p4467
g2
(g3
g4
Ntp4468
Rp4469
(dp4470
g8
I11
sg9
g4467
sg10
I1
sg11
(I11
I1
tp4471
sg13
(lp4472
sbsS'z(13, 8)'
p4473
g2
(g3
g4
Ntp4474
Rp4475
(dp4476
g8
I13
sg9
g4473
sg10
I8
sg11
(I13
I8
tp4477
sg13
(lp4478
sbsS'z(20, 7)'
p4479
g2
(g3
g4
Ntp4480
Rp4481
(dp4482
g8
I20
sg9
g4479
sg10
I7
sg11
(I20
I7
tp4483
sg13
(lp4484
sbsS'z(24, 0)'
p4485
g2
(g3
g4
Ntp4486
Rp4487
(dp4488
g8
I24
sg9
g4485
sg10
I0
sg11
(I24
I0
tp4489
sg13
(lp4490
sbsS'z(6, 27)'
p4491
g2
(g3
g4
Ntp4492
Rp4493
(dp4494
g8
I6
sg9
g4491
sg10
I27
sg11
(I6
I27
tp4495
sg13
(lp4496
sbsS'z(4, 28)'
p4497
g2
(g3
g4
Ntp4498
Rp4499
(dp4500
g8
I4
sg9
g4497
sg10
I28
sg11
(I4
I28
tp4501
sg13
(lp4502
sbsS'z(21, 22)'
p4503
g2
(g3
g4
Ntp4504
Rp4505
(dp4506
g8
I21
sg9
g4503
sg10
I22
sg11
(I21
I22
tp4507
sg13
(lp4508
sbsS'z(13, 24)'
p4509
g2
(g3
g4
Ntp4510
Rp4511
(dp4512
g8
I13
sg9
g4509
sg10
I24
sg11
(I13
I24
tp4513
sg13
(lp4514
sbsS'z(15, 6)'
p4515
g2
(g3
g4
Ntp4516
Rp4517
(dp4518
g8
I15
sg9
g4515
sg10
I6
sg11
(I15
I6
tp4519
sg13
(lp4520
sbsS'z(6, 17)'
p4521
g2
(g3
g4
Ntp4522
Rp4523
(dp4524
g8
I6
sg9
g4521
sg10
I17
sg11
(I6
I17
tp4525
sg13
(lp4526
sbsS'z(25, 15)'
p4527
g2
(g3
g4
Ntp4528
Rp4529
(dp4530
g8
I25
sg9
g4527
sg10
I15
sg11
(I25
I15
tp4531
sg13
(lp4532
sbsS'z(22, 17)'
p4533
g2
(g3
g4
Ntp4534
Rp4535
(dp4536
g8
I22
sg9
g4533
sg10
I17
sg11
(I22
I17
tp4537
sg13
(lp4538
sbsS'z(1, 12)'
p4539
g2
(g3
g4
Ntp4540
Rp4541
(dp4542
g8
I1
sg9
g4539
sg10
I12
sg11
(I1
I12
tp4543
sg13
(lp4544
sbsS'z(2, 10)'
p4545
g2
(g3
g4
Ntp4546
Rp4547
(dp4548
g8
I2
sg9
g4545
sg10
I10
sg11
(I2
I10
tp4549
sg13
(lp4550
sbsS'z(11, 8)'
p4551
g2
(g3
g4
Ntp4552
Rp4553
(dp4554
g8
I11
sg9
g4551
sg10
I8
sg11
(I11
I8
tp4555
sg13
(lp4556
sbsS'z(7, 3)'
p4557
g2
(g3
g4
Ntp4558
Rp4559
(dp4560
g8
I7
sg9
g4557
sg10
I3
sg11
(I7
I3
tp4561
sg13
(lp4562
sbsS'z(25, 9)'
p4563
g2
(g3
g4
Ntp4564
Rp4565
(dp4566
g8
I25
sg9
g4563
sg10
I9
sg11
(I25
I9
tp4567
sg13
(lp4568
sbsS'z(10, 16)'
p4569
g2
(g3
g4
Ntp4570
Rp4571
(dp4572
g8
I10
sg9
g4569
sg10
I16
sg11
(I10
I16
tp4573
sg13
(lp4574
sbsS'z(25, 25)'
p4575
g2
(g3
g4
Ntp4576
Rp4577
(dp4578
g8
I25
sg9
g4575
sg10
I25
sg11
(I25
I25
tp4579
sg13
(lp4580
sbsS'z(17, 10)'
p4581
g2
(g3
g4
Ntp4582
Rp4583
(dp4584
g8
I17
sg9
g4581
sg10
I10
sg11
(I17
I10
tp4585
sg13
(lp4586
sbsS'z(20, 13)'
p4587
g2
(g3
g4
Ntp4588
Rp4589
(dp4590
g8
I20
sg9
g4587
sg10
I13
sg11
(I20
I13
tp4591
sg13
(lp4592
sbsS'z(9, 19)'
p4593
g2
(g3
g4
Ntp4594
Rp4595
(dp4596
g8
I9
sg9
g4593
sg10
I19
sg11
(I9
I19
tp4597
sg13
(lp4598
sbsS'z(8, 8)'
p4599
g2
(g3
g4
Ntp4600
Rp4601
(dp4602
g8
I8
sg9
g4599
sg10
I8
sg11
(I8
I8
tp4603
sg13
(lp4604
sbsS'z(15, 8)'
p4605
g2
(g3
g4
Ntp4606
Rp4607
(dp4608
g8
I15
sg9
g4605
sg10
I8
sg11
(I15
I8
tp4609
sg13
(lp4610
sbsS'z(4, 27)'
p4611
g2
(g3
g4
Ntp4612
Rp4613
(dp4614
g8
I4
sg9
g4611
sg10
I27
sg11
(I4
I27
tp4615
sg13
(lp4616
sbsS'z(13, 1)'
p4617
g2
(g3
g4
Ntp4618
Rp4619
(dp4620
g8
I13
sg9
g4617
sg10
I1
sg11
(I13
I1
tp4621
sg13
(lp4622
sbsS'z(17, 28)'
p4623
g2
(g3
g4
Ntp4624
Rp4625
(dp4626
g8
I17
sg9
g4623
sg10
I28
sg11
(I17
I28
tp4627
sg13
(lp4628
sbsS'z(27, 30)'
p4629
g2
(g3
g4
Ntp4630
Rp4631
(dp4632
g8
I27
sg9
g4629
sg10
I30
sg11
(I27
I30
tp4633
sg13
(lp4634
sbsS'z(18, 17)'
p4635
g2
(g3
g4
Ntp4636
Rp4637
(dp4638
g8
I18
sg9
g4635
sg10
I17
sg11
(I18
I17
tp4639
sg13
(lp4640
sbsS'z(3, 19)'
p4641
g2
(g3
g4
Ntp4642
Rp4643
(dp4644
g8
I3
sg9
g4641
sg10
I19
sg11
(I3
I19
tp4645
sg13
(lp4646
sbsS'z(2, 3)'
p4647
g2
(g3
g4
Ntp4648
Rp4649
(dp4650
g8
I2
sg9
g4647
sg10
I3
sg11
(I2
I3
tp4651
sg13
(lp4652
sbsS'z(14, 22)'
p4653
g2
(g3
g4
Ntp4654
Rp4655
(dp4656
g8
I14
sg9
g4653
sg10
I22
sg11
(I14
I22
tp4657
sg13
(lp4658
sbsS'z(12, 8)'
p4659
g2
(g3
g4
Ntp4660
Rp4661
(dp4662
g8
I12
sg9
g4659
sg10
I8
sg11
(I12
I8
tp4663
sg13
(lp4664
sbsS'z(11, 21)'
p4665
g2
(g3
g4
Ntp4666
Rp4667
(dp4668
g8
I11
sg9
g4665
sg10
I21
sg11
(I11
I21
tp4669
sg13
(lp4670
sbsS'z(6, 2)'
p4671
g2
(g3
g4
Ntp4672
Rp4673
(dp4674
g8
I6
sg9
g4671
sg10
I2
sg11
(I6
I2
tp4675
sg13
(lp4676
sbsS'z(7, 22)'
p4677
g2
(g3
g4
Ntp4678
Rp4679
(dp4680
g8
I7
sg9
g4677
sg10
I22
sg11
(I7
I22
tp4681
sg13
(lp4682
sbsS'z(17, 11)'
p4683
g2
(g3
g4
Ntp4684
Rp4685
(dp4686
g8
I17
sg9
g4683
sg10
I11
sg11
(I17
I11
tp4687
sg13
(lp4688
sbsS'z(0, 15)'
p4689
g2
(g3
g4
Ntp4690
Rp4691
(dp4692
g8
I0
sg9
g4689
sg10
I15
sg11
(I0
I15
tp4693
sg13
(lp4694
sbsS'z(19, 6)'
p4695
g2
(g3
g4
Ntp4696
Rp4697
(dp4698
g8
I19
sg9
g4695
sg10
I6
sg11
(I19
I6
tp4699
sg13
(lp4700
sbsS'z(0, 23)'
p4701
g2
(g3
g4
Ntp4702
Rp4703
(dp4704
g8
I0
sg9
g4701
sg10
I23
sg11
(I0
I23
tp4705
sg13
(lp4706
sbsS'z(2, 17)'
p4707
g2
(g3
g4
Ntp4708
Rp4709
(dp4710
g8
I2
sg9
g4707
sg10
I17
sg11
(I2
I17
tp4711
sg13
(lp4712
sbsS'z(22, 29)'
p4713
g2
(g3
g4
Ntp4714
Rp4715
(dp4716
g8
I22
sg9
g4713
sg10
I29
sg11
(I22
I29
tp4717
sg13
(lp4718
sbsS'z(6, 9)'
p4719
g2
(g3
g4
Ntp4720
Rp4721
(dp4722
g8
I6
sg9
g4719
sg10
I9
sg11
(I6
I9
tp4723
sg13
(lp4724
sbsS'z(7, 13)'
p4725
g2
(g3
g4
Ntp4726
Rp4727
(dp4728
g8
I7
sg9
g4725
sg10
I13
sg11
(I7
I13
tp4729
sg13
(lp4730
sbsS'z(26, 14)'
p4731
g2
(g3
g4
Ntp4732
Rp4733
(dp4734
g8
I26
sg9
g4731
sg10
I14
sg11
(I26
I14
tp4735
sg13
(lp4736
sbsS'z(21, 2)'
p4737
g2
(g3
g4
Ntp4738
Rp4739
(dp4740
g8
I21
sg9
g4737
sg10
I2
sg11
(I21
I2
tp4741
sg13
(lp4742
sbsS'z(24, 13)'
p4743
g2
(g3
g4
Ntp4744
Rp4745
(dp4746
g8
I24
sg9
g4743
sg10
I13
sg11
(I24
I13
tp4747
sg13
(lp4748
sbsS'z(25, 23)'
p4749
g2
(g3
g4
Ntp4750
Rp4751
(dp4752
g8
I25
sg9
g4749
sg10
I23
sg11
(I25
I23
tp4753
sg13
(lp4754
sbsS'z(0, 3)'
p4755
g2
(g3
g4
Ntp4756
Rp4757
(dp4758
g8
I0
sg9
g4755
sg10
I3
sg11
(I0
I3
tp4759
sg13
(lp4760
sbsS'z(22, 8)'
p4761
g2
(g3
g4
Ntp4762
Rp4763
(dp4764
g8
I22
sg9
g4761
sg10
I8
sg11
(I22
I8
tp4765
sg13
(lp4766
sbsS'z(9, 3)'
p4767
g2
(g3
g4
Ntp4768
Rp4769
(dp4770
g8
I9
sg9
g4767
sg10
I3
sg11
(I9
I3
tp4771
sg13
(lp4772
sbsS'z(17, 3)'
p4773
g2
(g3
g4
Ntp4774
Rp4775
(dp4776
g8
I17
sg9
g4773
sg10
I3
sg11
(I17
I3
tp4777
sg13
(lp4778
sbsS'z(4, 5)'
p4779
g2
(g3
g4
Ntp4780
Rp4781
(dp4782
g8
I4
sg9
g4779
sg10
I5
sg11
(I4
I5
tp4783
sg13
(lp4784
sbsS'z(14, 25)'
p4785
g2
(g3
g4
Ntp4786
Rp4787
(dp4788
g8
I14
sg9
g4785
sg10
I25
sg11
(I14
I25
tp4789
sg13
(lp4790
sbsS'z(12, 3)'
p4791
g2
(g3
g4
Ntp4792
Rp4793
(dp4794
g8
I12
sg9
g4791
sg10
I3
sg11
(I12
I3
tp4795
sg13
(lp4796
sbsS'z(28, 25)'
p4797
g2
(g3
g4
Ntp4798
Rp4799
(dp4800
g8
I28
sg9
g4797
sg10
I25
sg11
(I28
I25
tp4801
sg13
(lp4802
sbsS'z(2, 4)'
p4803
g2
(g3
g4
Ntp4804
Rp4805
(dp4806
g8
I2
sg9
g4803
sg10
I4
sg11
(I2
I4
tp4807
sg13
(lp4808
sbsS'z(7, 29)'
p4809
g2
(g3
g4
Ntp4810
Rp4811
(dp4812
g8
I7
sg9
g4809
sg10
I29
sg11
(I7
I29
tp4813
sg13
(lp4814
sbsS'z(26, 20)'
p4815
g2
(g3
g4
Ntp4816
Rp4817
(dp4818
g8
I26
sg9
g4815
sg10
I20
sg11
(I26
I20
tp4819
sg13
(lp4820
sbsS'z(20, 24)'
p4821
g2
(g3
g4
Ntp4822
Rp4823
(dp4824
g8
I20
sg9
g4821
sg10
I24
sg11
(I20
I24
tp4825
sg13
(lp4826
sbsS'z(16, 18)'
p4827
g2
(g3
g4
Ntp4828
Rp4829
(dp4830
g8
I16
sg9
g4827
sg10
I18
sg11
(I16
I18
tp4831
sg13
(lp4832
sbsS'z(14, 2)'
p4833
g2
(g3
g4
Ntp4834
Rp4835
(dp4836
g8
I14
sg9
g4833
sg10
I2
sg11
(I14
I2
tp4837
sg13
(lp4838
sbsS'z(0, 8)'
p4839
g2
(g3
g4
Ntp4840
Rp4841
(dp4842
g8
I0
sg9
g4839
sg10
I8
sg11
(I0
I8
tp4843
sg13
(lp4844
sbsS'z(13, 13)'
p4845
g2
(g3
g4
Ntp4846
Rp4847
(dp4848
g8
I13
sg9
g4845
sg10
I13
sg11
(I13
I13
tp4849
sg13
(lp4850
sbsS'z(8, 30)'
p4851
g2
(g3
g4
Ntp4852
Rp4853
(dp4854
g8
I8
sg9
g4851
sg10
I30
sg11
(I8
I30
tp4855
sg13
(lp4856
sbsS'z(24, 12)'
p4857
g2
(g3
g4
Ntp4858
Rp4859
(dp4860
g8
I24
sg9
g4857
sg10
I12
sg11
(I24
I12
tp4861
sg13
(lp4862
sbsS'z(8, 1)'
p4863
g2
(g3
g4
Ntp4864
Rp4865
(dp4866
g8
I8
sg9
g4863
sg10
I1
sg11
(I8
I1
tp4867
sg13
(lp4868
sbsS'z(14, 15)'
p4869
g2
(g3
g4
Ntp4870
Rp4871
(dp4872
g8
I14
sg9
g4869
sg10
I15
sg11
(I14
I15
tp4873
sg13
(lp4874
sbsS'z(8, 13)'
p4875
g2
(g3
g4
Ntp4876
Rp4877
(dp4878
g8
I8
sg9
g4875
sg10
I13
sg11
(I8
I13
tp4879
sg13
(lp4880
sbsS'z(23, 10)'
p4881
g2
(g3
g4
Ntp4882
Rp4883
(dp4884
g8
I23
sg9
g4881
sg10
I10
sg11
(I23
I10
tp4885
sg13
(lp4886
sbsS'z(3, 16)'
p4887
g2
(g3
g4
Ntp4888
Rp4889
(dp4890
g8
I3
sg9
g4887
sg10
I16
sg11
(I3
I16
tp4891
sg13
(lp4892
sbsS'z(5, 27)'
p4893
g2
(g3
g4
Ntp4894
Rp4895
(dp4896
g8
I5
sg9
g4893
sg10
I27
sg11
(I5
I27
tp4897
sg13
(lp4898
sbsS'z(11, 25)'
p4899
g2
(g3
g4
Ntp4900
Rp4901
(dp4902
g8
I11
sg9
g4899
sg10
I25
sg11
(I11
I25
tp4903
sg13
(lp4904
sbsS'z(3, 22)'
p4905
g2
(g3
g4
Ntp4906
Rp4907
(dp4908
g8
I3
sg9
g4905
sg10
I22
sg11
(I3
I22
tp4909
sg13
(lp4910
sbsS'z(15, 20)'
p4911
g2
(g3
g4
Ntp4912
Rp4913
(dp4914
g8
I15
sg9
g4911
sg10
I20
sg11
(I15
I20
tp4915
sg13
(lp4916
sbsS'z(10, 0)'
p4917
g2
(g3
g4
Ntp4918
Rp4919
(dp4920
g8
I10
sg9
g4917
sg10
I0
sg11
(I10
I0
tp4921
sg13
(lp4922
sbsS'z(21, 25)'
p4923
g2
(g3
g4
Ntp4924
Rp4925
(dp4926
g8
I21
sg9
g4923
sg10
I25
sg11
(I21
I25
tp4927
sg13
(lp4928
sbsS'z(16, 10)'
p4929
g2
(g3
g4
Ntp4930
Rp4931
(dp4932
g8
I16
sg9
g4929
sg10
I10
sg11
(I16
I10
tp4933
sg13
(lp4934
sbsS'z(5, 16)'
p4935
g2
(g3
g4
Ntp4936
Rp4937
(dp4938
g8
I5
sg9
g4935
sg10
I16
sg11
(I5
I16
tp4939
sg13
(lp4940
sbsS'z(20, 26)'
p4941
g2
(g3
g4
Ntp4942
Rp4943
(dp4944
g8
I20
sg9
g4941
sg10
I26
sg11
(I20
I26
tp4945
sg13
(lp4946
sbsS'z(9, 20)'
p4947
g2
(g3
g4
Ntp4948
Rp4949
(dp4950
g8
I9
sg9
g4947
sg10
I20
sg11
(I9
I20
tp4951
sg13
(lp4952
sbsS'z(25, 6)'
p4953
g2
(g3
g4
Ntp4954
Rp4955
(dp4956
g8
I25
sg9
g4953
sg10
I6
sg11
(I25
I6
tp4957
sg13
(lp4958
sbsS'z(3, 5)'
p4959
g2
(g3
g4
Ntp4960
Rp4961
(dp4962
g8
I3
sg9
g4959
sg10
I5
sg11
(I3
I5
tp4963
sg13
(lp4964
sbsS'z(8, 11)'
p4965
g2
(g3
g4
Ntp4966
Rp4967
(dp4968
g8
I8
sg9
g4965
sg10
I11
sg11
(I8
I11
tp4969
sg13
(lp4970
sbsS'z(16, 0)'
p4971
g2
(g3
g4
Ntp4972
Rp4973
(dp4974
g8
I16
sg9
g4971
sg10
I0
sg11
(I16
I0
tp4975
sg13
(lp4976
sbsS'z(20, 18)'
p4977
g2
(g3
g4
Ntp4978
Rp4979
(dp4980
g8
I20
sg9
g4977
sg10
I18
sg11
(I20
I18
tp4981
sg13
(lp4982
sbsS'z(13, 25)'
p4983
g2
(g3
g4
Ntp4984
Rp4985
(dp4986
g8
I13
sg9
g4983
sg10
I25
sg11
(I13
I25
tp4987
sg13
(lp4988
sbsS'z(2, 21)'
p4989
g2
(g3
g4
Ntp4990
Rp4991
(dp4992
g8
I2
sg9
g4989
sg10
I21
sg11
(I2
I21
tp4993
sg13
(lp4994
sbsS'z(4, 13)'
p4995
g2
(g3
g4
Ntp4996
Rp4997
(dp4998
g8
I4
sg9
g4995
sg10
I13
sg11
(I4
I13
tp4999
sg13
(lp5000
sbsS'z(23, 2)'
p5001
g2
(g3
g4
Ntp5002
Rp5003
(dp5004
g8
I23
sg9
g5001
sg10
I2
sg11
(I23
I2
tp5005
sg13
(lp5006
sbsS'z(18, 3)'
p5007
g2
(g3
g4
Ntp5008
Rp5009
(dp5010
g8
I18
sg9
g5007
sg10
I3
sg11
(I18
I3
tp5011
sg13
(lp5012
sbsS'z(10, 15)'
p5013
g2
(g3
g4
Ntp5014
Rp5015
(dp5016
g8
I10
sg9
g5013
sg10
I15
sg11
(I10
I15
tp5017
sg13
(lp5018
sbsS'z(28, 22)'
p5019
g2
(g3
g4
Ntp5020
Rp5021
(dp5022
g8
I28
sg9
g5019
sg10
I22
sg11
(I28
I22
tp5023
sg13
(lp5024
sbsS'z(8, 26)'
p5025
g2
(g3
g4
Ntp5026
Rp5027
(dp5028
g8
I8
sg9
g5025
sg10
I26
sg11
(I8
I26
tp5029
sg13
(lp5030
sbsS'z(5, 2)'
p5031
g2
(g3
g4
Ntp5032
Rp5033
(dp5034
g8
I5
sg9
g5031
sg10
I2
sg11
(I5
I2
tp5035
sg13
(lp5036
sbsS'z(10, 23)'
p5037
g2
(g3
g4
Ntp5038
Rp5039
(dp5040
g8
I10
sg9
g5037
sg10
I23
sg11
(I10
I23
tp5041
sg13
(lp5042
sbsS'z(16, 22)'
p5043
g2
(g3
g4
Ntp5044
Rp5045
(dp5046
g8
I16
sg9
g5043
sg10
I22
sg11
(I16
I22
tp5047
sg13
(lp5048
sbsS'z(26, 7)'
p5049
g2
(g3
g4
Ntp5050
Rp5051
(dp5052
g8
I26
sg9
g5049
sg10
I7
sg11
(I26
I7
tp5053
sg13
(lp5054
sbsS'z(8, 18)'
p5055
g2
(g3
g4
Ntp5056
Rp5057
(dp5058
g8
I8
sg9
g5055
sg10
I18
sg11
(I8
I18
tp5059
sg13
(lp5060
sbsS'z(7, 7)'
p5061
g2
(g3
g4
Ntp5062
Rp5063
(dp5064
g8
I7
sg9
g5061
sg10
I7
sg11
(I7
I7
tp5065
sg13
(lp5066
sbsS'z(18, 25)'
p5067
g2
(g3
g4
Ntp5068
Rp5069
(dp5070
g8
I18
sg9
g5067
sg10
I25
sg11
(I18
I25
tp5071
sg13
(lp5072
sbsS'z(17, 23)'
p5073
g2
(g3
g4
Ntp5074
Rp5075
(dp5076
g8
I17
sg9
g5073
sg10
I23
sg11
(I17
I23
tp5077
sg13
(lp5078
sbsS'z(24, 18)'
p5079
g2
(g3
g4
Ntp5080
Rp5081
(dp5082
g8
I24
sg9
g5079
sg10
I18
sg11
(I24
I18
tp5083
sg13
(lp5084
sbsS'z(19, 26)'
p5085
g2
(g3
g4
Ntp5086
Rp5087
(dp5088
g8
I19
sg9
g5085
sg10
I26
sg11
(I19
I26
tp5089
sg13
(lp5090
sbsS'z(22, 7)'
p5091
g2
(g3
g4
Ntp5092
Rp5093
(dp5094
g8
I22
sg9
g5091
sg10
I7
sg11
(I22
I7
tp5095
sg13
(lp5096
sbsS'z(23, 20)'
p5097
g2
(g3
g4
Ntp5098
Rp5099
(dp5100
g8
I23
sg9
g5097
sg10
I20
sg11
(I23
I20
tp5101
sg13
(lp5102
sbsS'z(20, 4)'
p5103
g2
(g3
g4
Ntp5104
Rp5105
(dp5106
g8
I20
sg9
g5103
sg10
I4
sg11
(I20
I4
tp5107
sg13
(lp5108
sbsS'z(27, 8)'
p5109
g2
(g3
g4
Ntp5110
Rp5111
(dp5112
g8
I27
sg9
g5109
sg10
I8
sg11
(I27
I8
tp5113
sg13
(lp5114
sbsS'z(19, 18)'
p5115
g2
(g3
g4
Ntp5116
Rp5117
(dp5118
g8
I19
sg9
g5115
sg10
I18
sg11
(I19
I18
tp5119
sg13
(lp5120
sbsS'z(24, 21)'
p5121
g2
(g3
g4
Ntp5122
Rp5123
(dp5124
g8
I24
sg9
g5121
sg10
I21
sg11
(I24
I21
tp5125
sg13
(lp5126
sbsS'z(12, 26)'
p5127
g2
(g3
g4
Ntp5128
Rp5129
(dp5130
g8
I12
sg9
g5127
sg10
I26
sg11
(I12
I26
tp5131
sg13
(lp5132
sbsS'z(17, 17)'
p5133
g2
(g3
g4
Ntp5134
Rp5135
(dp5136
g8
I17
sg9
g5133
sg10
I17
sg11
(I17
I17
tp5137
sg13
(lp5138
sbsS'z(12, 12)'
p5139
g2
(g3
g4
Ntp5140
Rp5141
(dp5142
g8
I12
sg9
g5139
sg10
I12
sg11
(I12
I12
tp5143
sg13
(lp5144
sbsS'z(10, 13)'
p5145
g2
(g3
g4
Ntp5146
Rp5147
(dp5148
g8
I10
sg9
g5145
sg10
I13
sg11
(I10
I13
tp5149
sg13
(lp5150
sbsS'z(20, 3)'
p5151
g2
(g3
g4
Ntp5152
Rp5153
(dp5154
g8
I20
sg9
g5151
sg10
I3
sg11
(I20
I3
tp5155
sg13
(lp5156
sbsS'z(24, 4)'
p5157
g2
(g3
g4
Ntp5158
Rp5159
(dp5160
g8
I24
sg9
g5157
sg10
I4
sg11
(I24
I4
tp5161
sg13
(lp5162
sbsS'z(22, 22)'
p5163
g2
(g3
g4
Ntp5164
Rp5165
(dp5166
g8
I22
sg9
g5163
sg10
I22
sg11
(I22
I22
tp5167
sg13
(lp5168
sbsS'z(11, 22)'
p5169
g2
(g3
g4
Ntp5170
Rp5171
(dp5172
g8
I11
sg9
g5169
sg10
I22
sg11
(I11
I22
tp5173
sg13
(lp5174
sbsS'z(20, 16)'
p5175
g2
(g3
g4
Ntp5176
Rp5177
(dp5178
g8
I20
sg9
g5175
sg10
I16
sg11
(I20
I16
tp5179
sg13
(lp5180
sbsS'z(7, 25)'
p5181
g2
(g3
g4
Ntp5182
Rp5183
(dp5184
g8
I7
sg9
g5181
sg10
I25
sg11
(I7
I25
tp5185
sg13
(lp5186
sbsS'z(15, 29)'
p5187
g2
(g3
g4
Ntp5188
Rp5189
(dp5190
g8
I15
sg9
g5187
sg10
I29
sg11
(I15
I29
tp5191
sg13
(lp5192
sbsS'z(9, 23)'
p5193
g2
(g3
g4
Ntp5194
Rp5195
(dp5196
g8
I9
sg9
g5193
sg10
I23
sg11
(I9
I23
tp5197
sg13
(lp5198
sbsS'z(10, 7)'
p5199
g2
(g3
g4
Ntp5200
Rp5201
(dp5202
g8
I10
sg9
g5199
sg10
I7
sg11
(I10
I7
tp5203
sg13
(lp5204
sbsS'z(28, 16)'
p5205
g2
(g3
g4
Ntp5206
Rp5207
(dp5208
g8
I28
sg9
g5205
sg10
I16
sg11
(I28
I16
tp5209
sg13
(lp5210
sbsS'z(25, 11)'
p5211
g2
(g3
g4
Ntp5212
Rp5213
(dp5214
g8
I25
sg9
g5211
sg10
I11
sg11
(I25
I11
tp5215
sg13
(lp5216
sbsS'z(15, 11)'
p5217
g2
(g3
g4
Ntp5218
Rp5219
(dp5220
g8
I15
sg9
g5217
sg10
I11
sg11
(I15
I11
tp5221
sg13
(lp5222
sbsS'z(1, 27)'
p5223
g2
(g3
g4
Ntp5224
Rp5225
(dp5226
g8
I1
sg9
g5223
sg10
I27
sg11
(I1
I27
tp5227
sg13
(lp5228
sbsS'z(1, 7)'
p5229
g2
(g3
g4
Ntp5230
Rp5231
(dp5232
g8
I1
sg9
g5229
sg10
I7
sg11
(I1
I7
tp5233
sg13
(lp5234
sbsS'z(16, 13)'
p5235
g2
(g3
g4
Ntp5236
Rp5237
(dp5238
g8
I16
sg9
g5235
sg10
I13
sg11
(I16
I13
tp5239
sg13
(lp5240
sbsS'z(1, 18)'
p5241
g2
(g3
g4
Ntp5242
Rp5243
(dp5244
g8
I1
sg9
g5241
sg10
I18
sg11
(I1
I18
tp5245
sg13
(lp5246
sbsS'z(21, 10)'
p5247
g2
(g3
g4
Ntp5248
Rp5249
(dp5250
g8
I21
sg9
g5247
sg10
I10
sg11
(I21
I10
tp5251
sg13
(lp5252
sbsS'z(27, 3)'
p5253
g2
(g3
g4
Ntp5254
Rp5255
(dp5256
g8
I27
sg9
g5253
sg10
I3
sg11
(I27
I3
tp5257
sg13
(lp5258
sbsS'z(8, 23)'
p5259
g2
(g3
g4
Ntp5260
Rp5261
(dp5262
g8
I8
sg9
g5259
sg10
I23
sg11
(I8
I23
tp5263
sg13
(lp5264
sbsS'z(0, 7)'
p5265
g2
(g3
g4
Ntp5266
Rp5267
(dp5268
g8
I0
sg9
g5265
sg10
I7
sg11
(I0
I7
tp5269
sg13
(lp5270
sbsS'z(12, 25)'
p5271
g2
(g3
g4
Ntp5272
Rp5273
(dp5274
g8
I12
sg9
g5271
sg10
I25
sg11
(I12
I25
tp5275
sg13
(lp5276
sbsS'z(13, 5)'
p5277
g2
(g3
g4
Ntp5278
Rp5279
(dp5280
g8
I13
sg9
g5277
sg10
I5
sg11
(I13
I5
tp5281
sg13
(lp5282
sbsS'z(14, 17)'
p5283
g2
(g3
g4
Ntp5284
Rp5285
(dp5286
g8
I14
sg9
g5283
sg10
I17
sg11
(I14
I17
tp5287
sg13
(lp5288
sbsS'z(11, 6)'
p5289
g2
(g3
g4
Ntp5290
Rp5291
(dp5292
g8
I11
sg9
g5289
sg10
I6
sg11
(I11
I6
tp5293
sg13
(lp5294
sbsS'z(17, 24)'
p5295
g2
(g3
g4
Ntp5296
Rp5297
(dp5298
g8
I17
sg9
g5295
sg10
I24
sg11
(I17
I24
tp5299
sg13
(lp5300
sbsS'z(0, 20)'
p5301
g2
(g3
g4
Ntp5302
Rp5303
(dp5304
g8
I0
sg9
g5301
sg10
I20
sg11
(I0
I20
tp5305
sg13
(lp5306
sbsS'z(14, 18)'
p5307
g2
(g3
g4
Ntp5308
Rp5309
(dp5310
g8
I14
sg9
g5307
sg10
I18
sg11
(I14
I18
tp5311
sg13
(lp5312
sbsS'z(7, 14)'
p5313
g2
(g3
g4
Ntp5314
Rp5315
(dp5316
g8
I7
sg9
g5313
sg10
I14
sg11
(I7
I14
tp5317
sg13
(lp5318
sbsS'z(15, 3)'
p5319
g2
(g3
g4
Ntp5320
Rp5321
(dp5322
g8
I15
sg9
g5319
sg10
I3
sg11
(I15
I3
tp5323
sg13
(lp5324
sbsS'z(10, 12)'
p5325
g2
(g3
g4
Ntp5326
Rp5327
(dp5328
g8
I10
sg9
g5325
sg10
I12
sg11
(I10
I12
tp5329
sg13
(lp5330
sbsS'z(6, 12)'
p5331
g2
(g3
g4
Ntp5332
Rp5333
(dp5334
g8
I6
sg9
g5331
sg10
I12
sg11
(I6
I12
tp5335
sg13
(lp5336
sbsS'z(12, 22)'
p5337
g2
(g3
g4
Ntp5338
Rp5339
(dp5340
g8
I12
sg9
g5337
sg10
I22
sg11
(I12
I22
tp5341
sg13
(lp5342
sbsS'z(25, 16)'
p5343
g2
(g3
g4
Ntp5344
Rp5345
(dp5346
g8
I25
sg9
g5343
sg10
I16
sg11
(I25
I16
tp5347
sg13
(lp5348
sbsS'z(22, 12)'
p5349
g2
(g3
g4
Ntp5350
Rp5351
(dp5352
g8
I22
sg9
g5349
sg10
I12
sg11
(I22
I12
tp5353
sg13
(lp5354
sbsS'z(0, 27)'
p5355
g2
(g3
g4
Ntp5356
Rp5357
(dp5358
g8
I0
sg9
g5355
sg10
I27
sg11
(I0
I27
tp5359
sg13
(lp5360
sbsS'z(2, 13)'
p5361
g2
(g3
g4
Ntp5362
Rp5363
(dp5364
g8
I2
sg9
g5361
sg10
I13
sg11
(I2
I13
tp5365
sg13
(lp5366
sbsS'z(25, 20)'
p5367
g2
(g3
g4
Ntp5368
Rp5369
(dp5370
g8
I25
sg9
g5367
sg10
I20
sg11
(I25
I20
tp5371
sg13
(lp5372
sbsS'z(4, 1)'
p5373
g2
(g3
g4
Ntp5374
Rp5375
(dp5376
g8
I4
sg9
g5373
sg10
I1
sg11
(I4
I1
tp5377
sg13
(lp5378
sbsS'z(26, 10)'
p5379
g2
(g3
g4
Ntp5380
Rp5381
(dp5382
g8
I26
sg9
g5379
sg10
I10
sg11
(I26
I10
tp5383
sg13
(lp5384
sbsS'z(18, 30)'
p5385
g2
(g3
g4
Ntp5386
Rp5387
(dp5388
g8
I18
sg9
g5385
sg10
I30
sg11
(I18
I30
tp5389
sg13
(lp5390
sbsS'z(11, 16)'
p5391
g2
(g3
g4
Ntp5392
Rp5393
(dp5394
g8
I11
sg9
g5391
sg10
I16
sg11
(I11
I16
tp5395
sg13
(lp5396
sbsS'z(24, 17)'
p5397
g2
(g3
g4
Ntp5398
Rp5399
(dp5400
g8
I24
sg9
g5397
sg10
I17
sg11
(I24
I17
tp5401
sg13
(lp5402
sbs.