(dp0
(I7
I3
tp1
ccopy_reg
_reconstructor
p2
(c__main__
zone
p3
c__builtin__
object
p4
Ntp5
Rp6
(dp7
S'halfUnitX'
p8
F24.375
sS'halfUnitY'
p9
F22.8
sS'isFeasible'
p10
I00
sS'i'
p11
I7
sS'j'
p12
I3
sS'cy'
p13
F159.60000000000002
sS'cx'
p14
F365.625
sS'unitY'
p15
F45.6
sS'unitX'
p16
F48.75
sS'radius'
p17
F5.7
sS'hasBeacon'
p18
I00
sbs(I6
I9
tp19
g2
(g3
g4
Ntp20
Rp21
(dp22
g8
F24.375
sg9
F22.8
sg10
I00
sg11
I6
sg12
I9
sg13
F433.20000000000005
sg14
F316.875
sg15
F45.6
sg16
F48.75
sg17
F5.7
sg18
I00
sbs(I0
I7
tp23
g2
(g3
g4
Ntp24
Rp25
(dp26
g8
F24.375
sg9
F22.8
sg10
I00
sg11
I0
sg12
I7
sg13
F342.0
sg14
F24.375
sg15
F45.6
sg16
F48.75
sg17
F5.7
sg18
I00
sbs(I1
I6
tp27
g2
(g3
g4
Ntp28
Rp29
(dp30
g8
F24.375
sg9
F22.8
sg10
I00
sg11
I1
sg12
I6
sg13
F296.40000000000003
sg14
F73.125
sg15
F45.6
sg16
F48.75
sg17
F5.7
sg18
I00
sbs(I3
I7
tp31
g2
(g3
g4
Ntp32
Rp33
(dp34
g8
F24.375
sg9
F22.8
sg10
I00
sg11
I3
sg12
I7
sg13
F342.0
sg14
F170.625
sg15
F45.6
sg16
F48.75
sg17
F5.7
sg18
I00
sbs(I2
I5
tp35
g2
(g3
g4
Ntp36
Rp37
(dp38
g8
F24.375
sg9
F22.8
sg10
I00
sg11
I2
sg12
I5
sg13
F250.8
sg14
F121.875
sg15
F45.6
sg16
F48.75
sg17
F5.7
sg18
I00
sbs(I8
I5
tp39
g2
(g3
g4
Ntp40
Rp41
(dp42
g8
F24.375
sg9
F22.8
sg10
I00
sg11
I8
sg12
I5
sg13
F250.8
sg14
F414.375
sg15
F45.6
sg16
F48.75
sg17
F5.7
sg18
I00
sbs(I5
I8
tp43
g2
(g3
g4
Ntp44
Rp45
(dp46
g8
F24.375
sg9
F22.8
sg10
I00
sg11
I5
sg12
I8
sg13
F387.6
sg14
F268.125
sg15
F45.6
sg16
F48.75
sg17
F5.7
sg18
I00
sbs(I4
I0
tp47
g2
(g3
g4
Ntp48
Rp49
(dp50
g8
F24.375
sg9
F22.8
sg10
I00
sg11
I4
sg12
I0
sg13
F22.8
sg14
F219.375
sg15
F45.6
sg16
F48.75
sg17
F5.7
sg18
I00
sbs(I10
I8
tp51
g2
(g3
g4
Ntp52
Rp53
(dp54
g8
F24.375
sg9
F22.8
sg10
I00
sg11
I10
sg12
I8
sg13
F387.6
sg14
F511.875
sg15
F45.6
sg16
F48.75
sg17
F5.7
sg18
I00
sbs(I9
I0
tp55
g2
(g3
g4
Ntp56
Rp57
(dp58
g8
F24.375
sg9
F22.8
sg10
I00
sg11
I9
sg12
I0
sg13
F22.8
sg14
F463.125
sg15
F45.6
sg16
F48.75
sg17
F5.7
sg18
I00
sbs(I6
I7
tp59
g2
(g3
g4
Ntp60
Rp61
(dp62
g8
F24.375
sg9
F22.8
sg10
I00
sg11
I6
sg12
I7
sg13
F342.0
sg14
F316.875
sg15
F45.6
sg16
F48.75
sg17
F5.7
sg18
I00
sbs(I5
I5
tp63
g2
(g3
g4
Ntp64
Rp65
(dp66
g8
F24.375
sg9
F22.8
sg10
I00
sg11
I5
sg12
I5
sg13
F250.8
sg14
F268.125
sg15
F45.6
sg16
F48.75
sg17
F5.7
sg18
I00
sbs(I11
I5
tp67
g2
(g3
g4
Ntp68
Rp69
(dp70
g8
F24.375
sg9
F22.8
sg10
I00
sg11
I11
sg12
I5
sg13
F250.8
sg14
F560.625
sg15
F45.6
sg16
F48.75
sg17
F5.7
sg18
I00
sbs(I10
I7
tp71
g2
(g3
g4
Ntp72
Rp73
(dp74
g8
F24.375
sg9
F22.8
sg10
I00
sg11
I10
sg12
I7
sg13
F342.0
sg14
F511.875
sg15
F45.6
sg16
F48.75
sg17
F5.7
sg18
I00
sbs(I7
I6
tp75
g2
(g3
g4
Ntp76
Rp77
(dp78
g8
F24.375
sg9
F22.8
sg10
I00
sg11
I7
sg12
I6
sg13
F296.40000000000003
sg14
F365.625
sg15
F45.6
sg16
F48.75
sg17
F5.7
sg18
I00
sbs(I0
I4
tp79
g2
(g3
g4
Ntp80
Rp81
(dp82
g8
F24.375
sg9
F22.8
sg10
I00
sg11
I0
sg12
I4
sg13
F205.20000000000002
sg14
F24.375
sg15
F45.6
sg16
F48.75
sg17
F5.7
sg18
I00
sbs(I1
I1
tp83
g2
(g3
g4
Ntp84
Rp85
(dp86
g8
F24.375
sg9
F22.8
sg10
I00
sg11
I1
sg12
I1
sg13
F68.4
sg14
F73.125
sg15
F45.6
sg16
F48.75
sg17
F5.7
sg18
I00
sbs(I3
I2
tp87
g2
(g3
g4
Ntp88
Rp89
(dp90
g8
F24.375
sg9
F22.8
sg10
I00
sg11
I3
sg12
I2
sg13
F114.0
sg14
F170.625
sg15
F45.6
sg16
F48.75
sg17
F5.7
sg18
I00
sbs(I2
I6
tp91
g2
(g3
g4
Ntp92
Rp93
(dp94
g8
F24.375
sg9
F22.8
sg10
I00
sg11
I2
sg12
I6
sg13
F296.40000000000003
sg14
F121.875
sg15
F45.6
sg16
F48.75
sg17
F5.7
sg18
I00
sbs(I8
I2
tp95
g2
(g3
g4
Ntp96
Rp97
(dp98
g8
F24.375
sg9
F22.8
sg10
I00
sg11
I8
sg12
I2
sg13
F114.0
sg14
F414.375
sg15
F45.6
sg16
F48.75
sg17
F5.7
sg18
I00
sbs(I4
I5
tp99
g2
(g3
g4
Ntp100
Rp101
(dp102
g8
F24.375
sg9
F22.8
sg10
I00
sg11
I4
sg12
I5
sg13
F250.8
sg14
F219.375
sg15
F45.6
sg16
F48.75
sg17
F5.7
sg18
I00
sbs(I9
I3
tp103
g2
(g3
g4
Ntp104
Rp105
(dp106
g8
F24.375
sg9
F22.8
sg10
I00
sg11
I9
sg12
I3
sg13
F159.60000000000002
sg14
F463.125
sg15
F45.6
sg16
F48.75
sg17
F5.7
sg18
I00
sbs(I6
I0
tp107
g2
(g3
g4
Ntp108
Rp109
(dp110
g8
F24.375
sg9
F22.8
sg10
I00
sg11
I6
sg12
I0
sg13
F22.8
sg14
F316.875
sg15
F45.6
sg16
F48.75
sg17
F5.7
sg18
I00
sbs(I11
I0
tp111
g2
(g3
g4
Ntp112
Rp113
(dp114
g8
F24.375
sg9
F22.8
sg10
I00
sg11
I11
sg12
I0
sg13
F22.8
sg14
F560.625
sg15
F45.6
sg16
F48.75
sg17
F5.7
sg18
I00
sbs(I7
I5
tp115
g2
(g3
g4
Ntp116
Rp117
(dp118
g8
F24.375
sg9
F22.8
sg10
I00
sg11
I7
sg12
I5
sg13
F250.8
sg14
F365.625
sg15
F45.6
sg16
F48.75
sg17
F5.7
sg18
I00
sbs(I0
I1
tp119
g2
(g3
g4
Ntp120
Rp121
(dp122
g8
F24.375
sg9
F22.8
sg10
I00
sg11
I0
sg12
I1
sg13
F68.4
sg14
F24.375
sg15
F45.6
sg16
F48.75
sg17
F5.7
sg18
I00
sbs(I3
I1
tp123
g2
(g3
g4
Ntp124
Rp125
(dp126
g8
F24.375
sg9
F22.8
sg10
I00
sg11
I3
sg12
I1
sg13
F68.4
sg14
F170.625
sg15
F45.6
sg16
F48.75
sg17
F5.7
sg18
I00
sbs(I9
I9
tp127
g2
(g3
g4
Ntp128
Rp129
(dp130
g8
F24.375
sg9
F22.8
sg10
I00
sg11
I9
sg12
I9
sg13
F433.20000000000005
sg14
F463.125
sg15
F45.6
sg16
F48.75
sg17
F5.7
sg18
I00
sbs(I7
I8
tp131
g2
(g3
g4
Ntp132
Rp133
(dp134
g8
F24.375
sg9
F22.8
sg10
I00
sg11
I7
sg12
I8
sg13
F387.6
sg14
F365.625
sg15
F45.6
sg16
F48.75
sg17
F5.7
sg18
I00
sbs(I2
I1
tp135
g2
(g3
g4
Ntp136
Rp137
(dp138
g8
F24.375
sg9
F22.8
sg10
I00
sg11
I2
sg12
I1
sg13
F68.4
sg14
F121.875
sg15
F45.6
sg16
F48.75
sg17
F5.7
sg18
I00
sbs(I8
I9
tp139
g2
(g3
g4
Ntp140
Rp141
(dp142
g8
F24.375
sg9
F22.8
sg10
I00
sg11
I8
sg12
I9
sg13
F433.20000000000005
sg14
F414.375
sg15
F45.6
sg16
F48.75
sg17
F5.7
sg18
I00
sbs(I9
I4
tp143
g2
(g3
g4
Ntp144
Rp145
(dp146
g8
F24.375
sg9
F22.8
sg10
I00
sg11
I9
sg12
I4
sg13
F205.20000000000002
sg14
F463.125
sg15
F45.6
sg16
F48.75
sg17
F5.7
sg18
I00
sbs(I5
I1
tp147
g2
(g3
g4
Ntp148
Rp149
(dp150
g8
F24.375
sg9
F22.8
sg10
I00
sg11
I5
sg12
I1
sg13
F68.4
sg14
F268.125
sg15
F45.6
sg16
F48.75
sg17
F5.7
sg18
I00
sbs(I10
I3
tp151
g2
(g3
g4
Ntp152
Rp153
(dp154
g8
F24.375
sg9
F22.8
sg10
I00
sg11
I10
sg12
I3
sg13
F159.60000000000002
sg14
F511.875
sg15
F45.6
sg16
F48.75
sg17
F5.7
sg18
I00
sbs(I7
I2
tp155
g2
(g3
g4
Ntp156
Rp157
(dp158
g8
F24.375
sg9
F22.8
sg10
I00
sg11
I7
sg12
I2
sg13
F114.0
sg14
F365.625
sg15
F45.6
sg16
F48.75
sg17
F5.7
sg18
I00
sbs(I1
I5
tp159
g2
(g3
g4
Ntp160
Rp161
(dp162
g8
F24.375
sg9
F22.8
sg10
I00
sg11
I1
sg12
I5
sg13
F250.8
sg14
F73.125
sg15
F45.6
sg16
F48.75
sg17
F5.7
sg18
I00
sbs(I3
I6
tp163
g2
(g3
g4
Ntp164
Rp165
(dp166
g8
F24.375
sg9
F22.8
sg10
I00
sg11
I3
sg12
I6
sg13
F296.40000000000003
sg14
F170.625
sg15
F45.6
sg16
F48.75
sg17
F5.7
sg18
I00
sbs(I2
I2
tp167
g2
(g3
g4
Ntp168
Rp169
(dp170
g8
F24.375
sg9
F22.8
sg10
I00
sg11
I2
sg12
I2
sg13
F114.0
sg14
F121.875
sg15
F45.6
sg16
F48.75
sg17
F5.7
sg18
I00
sbs(I8
I6
tp171
g2
(g3
g4
Ntp172
Rp173
(dp174
g8
F24.375
sg9
F22.8
sg10
I00
sg11
I8
sg12
I6
sg13
F296.40000000000003
sg14
F414.375
sg15
F45.6
sg16
F48.75
sg17
F5.7
sg18
I00
sbs(I4
I1
tp175
g2
(g3
g4
Ntp176
Rp177
(dp178
g8
F24.375
sg9
F22.8
sg10
I00
sg11
I4
sg12
I1
sg13
F68.4
sg14
F219.375
sg15
F45.6
sg16
F48.75
sg17
F5.7
sg18
I00
sbs(I10
I9
tp179
g2
(g3
g4
Ntp180
Rp181
(dp182
g8
F24.375
sg9
F22.8
sg10
I00
sg11
I10
sg12
I9
sg13
F433.20000000000005
sg14
F511.875
sg15
F45.6
sg16
F48.75
sg17
F5.7
sg18
I00
sbs(I9
I7
tp183
g2
(g3
g4
Ntp184
Rp185
(dp186
g8
F24.375
sg9
F22.8
sg10
I00
sg11
I9
sg12
I7
sg13
F342.0
sg14
F463.125
sg15
F45.6
sg16
F48.75
sg17
F5.7
sg18
I00
sbs(I6
I4
tp187
g2
(g3
g4
Ntp188
Rp189
(dp190
g8
F24.375
sg9
F22.8
sg10
I00
sg11
I6
sg12
I4
sg13
F205.20000000000002
sg14
F316.875
sg15
F45.6
sg16
F48.75
sg17
F5.7
sg18
I00
sbs(I5
I4
tp191
g2
(g3
g4
Ntp192
Rp193
(dp194
g8
F24.375
sg9
F22.8
sg10
I00
sg11
I5
sg12
I4
sg13
F205.20000000000002
sg14
F268.125
sg15
F45.6
sg16
F48.75
sg17
F5.7
sg18
I00
sbs(I11
I4
tp195
g2
(g3
g4
Ntp196
Rp197
(dp198
g8
F24.375
sg9
F22.8
sg10
I00
sg11
I11
sg12
I4
sg13
F205.20000000000002
sg14
F560.625
sg15
F45.6
sg16
F48.75
sg17
F5.7
sg18
I00
sbs(I10
I4
tp199
g2
(g3
g4
Ntp200
Rp201
(dp202
g8
F24.375
sg9
F22.8
sg10
I00
sg11
I10
sg12
I4
sg13
F205.20000000000002
sg14
F511.875
sg15
F45.6
sg16
F48.75
sg17
F5.7
sg18
I00
sbs(I7
I1
tp203
g2
(g3
g4
Ntp204
Rp205
(dp206
g8
F24.375
sg9
F22.8
sg10
I00
sg11
I7
sg12
I1
sg13
F68.4
sg14
F365.625
sg15
F45.6
sg16
F48.75
sg17
F5.7
sg18
I00
sbs(I11
I9
tp207
g2
(g3
g4
Ntp208
Rp209
(dp210
g8
F24.375
sg9
F22.8
sg10
I00
sg11
I11
sg12
I9
sg13
F433.20000000000005
sg14
F560.625
sg15
F45.6
sg16
F48.75
sg17
F5.7
sg18
I00
sbs(I0
I5
tp211
g2
(g3
g4
Ntp212
Rp213
(dp214
g8
F24.375
sg9
F22.8
sg10
I00
sg11
I0
sg12
I5
sg13
F250.8
sg14
F24.375
sg15
F45.6
sg16
F48.75
sg17
F5.7
sg18
I00
sbs(I1
I0
tp215
g2
(g3
g4
Ntp216
Rp217
(dp218
g8
F24.375
sg9
F22.8
sg10
I00
sg11
I1
sg12
I0
sg13
F22.8
sg14
F73.125
sg15
F45.6
sg16
F48.75
sg17
F5.7
sg18
I00
sbs(I0
I8
tp219
g2
(g3
g4
Ntp220
Rp221
(dp222
g8
F24.375
sg9
F22.8
sg10
I00
sg11
I0
sg12
I8
sg13
F387.6
sg14
F24.375
sg15
F45.6
sg16
F48.75
sg17
F5.7
sg18
I00
sbs(I3
I5
tp223
g2
(g3
g4
Ntp224
Rp225
(dp226
g8
F24.375
sg9
F22.8
sg10
I00
sg11
I3
sg12
I5
sg13
F250.8
sg14
F170.625
sg15
F45.6
sg16
F48.75
sg17
F5.7
sg18
I00
sbs(I2
I7
tp227
g2
(g3
g4
Ntp228
Rp229
(dp230
g8
F24.375
sg9
F22.8
sg10
I00
sg11
I2
sg12
I7
sg13
F342.0
sg14
F121.875
sg15
F45.6
sg16
F48.75
sg17
F5.7
sg18
I00
sbs(I8
I3
tp231
g2
(g3
g4
Ntp232
Rp233
(dp234
g8
F24.375
sg9
F22.8
sg10
I00
sg11
I8
sg12
I3
sg13
F159.60000000000002
sg14
F414.375
sg15
F45.6
sg16
F48.75
sg17
F5.7
sg18
I00
sbs(I4
I6
tp235
g2
(g3
g4
Ntp236
Rp237
(dp238
g8
F24.375
sg9
F22.8
sg10
I00
sg11
I4
sg12
I6
sg13
F296.40000000000003
sg14
F219.375
sg15
F45.6
sg16
F48.75
sg17
F5.7
sg18
I00
sbs(I9
I2
tp239
g2
(g3
g4
Ntp240
Rp241
(dp242
g8
F24.375
sg9
F22.8
sg10
I00
sg11
I9
sg12
I2
sg13
F114.0
sg14
F463.125
sg15
F45.6
sg16
F48.75
sg17
F5.7
sg18
I00
sbs(I6
I1
tp243
g2
(g3
g4
Ntp244
Rp245
(dp246
g8
F24.375
sg9
F22.8
sg10
I00
sg11
I6
sg12
I1
sg13
F68.4
sg14
F316.875
sg15
F45.6
sg16
F48.75
sg17
F5.7
sg18
I00
sbs(I5
I7
tp247
g2
(g3
g4
Ntp248
Rp249
(dp250
g8
F24.375
sg9
F22.8
sg10
I00
sg11
I5
sg12
I7
sg13
F342.0
sg14
F268.125
sg15
F45.6
sg16
F48.75
sg17
F5.7
sg18
I00
sbs(I11
I3
tp251
g2
(g3
g4
Ntp252
Rp253
(dp254
g8
F24.375
sg9
F22.8
sg10
I00
sg11
I11
sg12
I3
sg13
F159.60000000000002
sg14
F560.625
sg15
F45.6
sg16
F48.75
sg17
F5.7
sg18
I00
sbs(I7
I4
tp255
g2
(g3
g4
Ntp256
Rp257
(dp258
g8
F24.375
sg9
F22.8
sg10
I00
sg11
I7
sg12
I4
sg13
F205.20000000000002
sg14
F365.625
sg15
F45.6
sg16
F48.75
sg17
F5.7
sg18
I00
sbs(I0
I2
tp259
g2
(g3
g4
Ntp260
Rp261
(dp262
g8
F24.375
sg9
F22.8
sg10
I00
sg11
I0
sg12
I2
sg13
F114.0
sg14
F24.375
sg15
F45.6
sg16
F48.75
sg17
F5.7
sg18
I00
sbs(I1
I3
tp263
g2
(g3
g4
Ntp264
Rp265
(dp266
g8
F24.375
sg9
F22.8
sg10
I00
sg11
I1
sg12
I3
sg13
F159.60000000000002
sg14
F73.125
sg15
F45.6
sg16
F48.75
sg17
F5.7
sg18
I00
sbs(I4
I8
tp267
g2
(g3
g4
Ntp268
Rp269
(dp270
g8
F24.375
sg9
F22.8
sg10
I00
sg11
I4
sg12
I8
sg13
F387.6
sg14
F219.375
sg15
F45.6
sg16
F48.75
sg17
F5.7
sg18
I00
sbs(I3
I0
tp271
g2
(g3
g4
Ntp272
Rp273
(dp274
g8
F24.375
sg9
F22.8
sg10
I00
sg11
I3
sg12
I0
sg13
F22.8
sg14
F170.625
sg15
F45.6
sg16
F48.75
sg17
F5.7
sg18
I00
sbs(I2
I8
tp275
g2
(g3
g4
Ntp276
Rp277
(dp278
g8
F24.375
sg9
F22.8
sg10
I00
sg11
I2
sg12
I8
sg13
F387.6
sg14
F121.875
sg15
F45.6
sg16
F48.75
sg17
F5.7
sg18
I00
sbs(I9
I8
tp279
g2
(g3
g4
Ntp280
Rp281
(dp282
g8
F24.375
sg9
F22.8
sg10
I00
sg11
I9
sg12
I8
sg13
F387.6
sg14
F463.125
sg15
F45.6
sg16
F48.75
sg17
F5.7
sg18
I00
sbs(I8
I0
tp283
g2
(g3
g4
Ntp284
Rp285
(dp286
g8
F24.375
sg9
F22.8
sg10
I00
sg11
I8
sg12
I0
sg13
F22.8
sg14
F414.375
sg15
F45.6
sg16
F48.75
sg17
F5.7
sg18
I00
sbs(I6
I2
tp287
g2
(g3
g4
Ntp288
Rp289
(dp290
g8
F24.375
sg9
F22.8
sg10
I00
sg11
I6
sg12
I2
sg13
F114.0
sg14
F316.875
sg15
F45.6
sg16
F48.75
sg17
F5.7
sg18
I00
sbs(I5
I0
tp291
g2
(g3
g4
Ntp292
Rp293
(dp294
g8
F24.375
sg9
F22.8
sg10
I00
sg11
I5
sg12
I0
sg13
F22.8
sg14
F268.125
sg15
F45.6
sg16
F48.75
sg17
F5.7
sg18
I00
sbs(I10
I0
tp295
g2
(g3
g4
Ntp296
Rp297
(dp298
g8
F24.375
sg9
F22.8
sg10
I00
sg11
I10
sg12
I0
sg13
F22.8
sg14
F511.875
sg15
F45.6
sg16
F48.75
sg17
F5.7
sg18
I00
sbs(I1
I4
tp299
g2
(g3
g4
Ntp300
Rp301
(dp302
g8
F24.375
sg9
F22.8
sg10
I00
sg11
I1
sg12
I4
sg13
F205.20000000000002
sg14
F73.125
sg15
F45.6
sg16
F48.75
sg17
F5.7
sg18
I00
sbs(I3
I9
tp303
g2
(g3
g4
Ntp304
Rp305
(dp306
g8
F24.375
sg9
F22.8
sg10
I00
sg11
I3
sg12
I9
sg13
F433.20000000000005
sg14
F170.625
sg15
F45.6
sg16
F48.75
sg17
F5.7
sg18
I00
sbs(I2
I3
tp307
g2
(g3
g4
Ntp308
Rp309
(dp310
g8
F24.375
sg9
F22.8
sg10
I00
sg11
I2
sg12
I3
sg13
F159.60000000000002
sg14
F121.875
sg15
F45.6
sg16
F48.75
sg17
F5.7
sg18
I00
sbs(I1
I9
tp311
g2
(g3
g4
Ntp312
Rp313
(dp314
g8
F24.375
sg9
F22.8
sg10
I00
sg11
I1
sg12
I9
sg13
F433.20000000000005
sg14
F73.125
sg15
F45.6
sg16
F48.75
sg17
F5.7
sg18
I00
sbs(I8
I7
tp315
g2
(g3
g4
Ntp316
Rp317
(dp318
g8
F24.375
sg9
F22.8
sg10
I00
sg11
I8
sg12
I7
sg13
F342.0
sg14
F414.375
sg15
F45.6
sg16
F48.75
sg17
F5.7
sg18
I00
sbs(I4
I2
tp319
g2
(g3
g4
Ntp320
Rp321
(dp322
g8
F24.375
sg9
F22.8
sg10
I00
sg11
I4
sg12
I2
sg13
F114.0
sg14
F219.375
sg15
F45.6
sg16
F48.75
sg17
F5.7
sg18
I00
sbs(I9
I6
tp323
g2
(g3
g4
Ntp324
Rp325
(dp326
g8
F24.375
sg9
F22.8
sg10
I00
sg11
I9
sg12
I6
sg13
F296.40000000000003
sg14
F463.125
sg15
F45.6
sg16
F48.75
sg17
F5.7
sg18
I00
sbs(I6
I5
tp327
g2
(g3
g4
Ntp328
Rp329
(dp330
g8
F24.375
sg9
F22.8
sg10
I00
sg11
I6
sg12
I5
sg13
F250.8
sg14
F316.875
sg15
F45.6
sg16
F48.75
sg17
F5.7
sg18
I00
sbs(I5
I3
tp331
g2
(g3
g4
Ntp332
Rp333
(dp334
g8
F24.375
sg9
F22.8
sg10
I00
sg11
I5
sg12
I3
sg13
F159.60000000000002
sg14
F268.125
sg15
F45.6
sg16
F48.75
sg17
F5.7
sg18
I00
sbs(I11
I7
tp335
g2
(g3
g4
Ntp336
Rp337
(dp338
g8
F24.375
sg9
F22.8
sg10
I00
sg11
I11
sg12
I7
sg13
F342.0
sg14
F560.625
sg15
F45.6
sg16
F48.75
sg17
F5.7
sg18
I00
sbs(I10
I5
tp339
g2
(g3
g4
Ntp340
Rp341
(dp342
g8
F24.375
sg9
F22.8
sg10
I00
sg11
I10
sg12
I5
sg13
F250.8
sg14
F511.875
sg15
F45.6
sg16
F48.75
sg17
F5.7
sg18
I00
sbs(I7
I0
tp343
g2
(g3
g4
Ntp344
Rp345
(dp346
g8
F24.375
sg9
F22.8
sg10
I00
sg11
I7
sg12
I0
sg13
F22.8
sg14
F365.625
sg15
F45.6
sg16
F48.75
sg17
F5.7
sg18
I00
sbs(I6
I8
tp347
g2
(g3
g4
Ntp348
Rp349
(dp350
g8
F24.375
sg9
F22.8
sg10
I00
sg11
I6
sg12
I8
sg13
F387.6
sg14
F316.875
sg15
F45.6
sg16
F48.75
sg17
F5.7
sg18
I00
sbs(I11
I8
tp351
g2
(g3
g4
Ntp352
Rp353
(dp354
g8
F24.375
sg9
F22.8
sg10
I00
sg11
I11
sg12
I8
sg13
F387.6
sg14
F560.625
sg15
F45.6
sg16
F48.75
sg17
F5.7
sg18
I00
sbs(I0
I6
tp355
g2
(g3
g4
Ntp356
Rp357
(dp358
g8
F24.375
sg9
F22.8
sg10
I00
sg11
I0
sg12
I6
sg13
F296.40000000000003
sg14
F24.375
sg15
F45.6
sg16
F48.75
sg17
F5.7
sg18
I00
sbs(I1
I7
tp359
g2
(g3
g4
Ntp360
Rp361
(dp362
g8
F24.375
sg9
F22.8
sg10
I00
sg11
I1
sg12
I7
sg13
F342.0
sg14
F73.125
sg15
F45.6
sg16
F48.75
sg17
F5.7
sg18
I00
sbs(I0
I9
tp363
g2
(g3
g4
Ntp364
Rp365
(dp366
g8
F24.375
sg9
F22.8
sg10
I00
sg11
I0
sg12
I9
sg13
F433.20000000000005
sg14
F24.375
sg15
F45.6
sg16
F48.75
sg17
F5.7
sg18
I00
sbs(I3
I4
tp367
g2
(g3
g4
Ntp368
Rp369
(dp370
g8
F24.375
sg9
F22.8
sg10
I00
sg11
I3
sg12
I4
sg13
F205.20000000000002
sg14
F170.625
sg15
F45.6
sg16
F48.75
sg17
F5.7
sg18
I00
sbs(I2
I4
tp371
g2
(g3
g4
Ntp372
Rp373
(dp374
g8
F24.375
sg9
F22.8
sg10
I00
sg11
I2
sg12
I4
sg13
F205.20000000000002
sg14
F121.875
sg15
F45.6
sg16
F48.75
sg17
F5.7
sg18
I00
sbs(I8
I4
tp375
g2
(g3
g4
Ntp376
Rp377
(dp378
g8
F24.375
sg9
F22.8
sg10
I00
sg11
I8
sg12
I4
sg13
F205.20000000000002
sg14
F414.375
sg15
F45.6
sg16
F48.75
sg17
F5.7
sg18
I00
sbs(I5
I9
tp379
g2
(g3
g4
Ntp380
Rp381
(dp382
g8
F24.375
sg9
F22.8
sg10
I00
sg11
I5
sg12
I9
sg13
F433.20000000000005
sg14
F268.125
sg15
F45.6
sg16
F48.75
sg17
F5.7
sg18
I00
sbs(I4
I7
tp383
g2
(g3
g4
Ntp384
Rp385
(dp386
g8
F24.375
sg9
F22.8
sg10
I00
sg11
I4
sg12
I7
sg13
F342.0
sg14
F219.375
sg15
F45.6
sg16
F48.75
sg17
F5.7
sg18
I00
sbs(I9
I1
tp387
g2
(g3
g4
Ntp388
Rp389
(dp390
g8
F24.375
sg9
F22.8
sg10
I00
sg11
I9
sg12
I1
sg13
F68.4
sg14
F463.125
sg15
F45.6
sg16
F48.75
sg17
F5.7
sg18
I00
sbs(I6
I6
tp391
g2
(g3
g4
Ntp392
Rp393
(dp394
g8
F24.375
sg9
F22.8
sg10
I00
sg11
I6
sg12
I6
sg13
F296.40000000000003
sg14
F316.875
sg15
F45.6
sg16
F48.75
sg17
F5.7
sg18
I00
sbs(I5
I6
tp395
g2
(g3
g4
Ntp396
Rp397
(dp398
g8
F24.375
sg9
F22.8
sg10
I00
sg11
I5
sg12
I6
sg13
F296.40000000000003
sg14
F268.125
sg15
F45.6
sg16
F48.75
sg17
F5.7
sg18
I00
sbs(I11
I2
tp399
g2
(g3
g4
Ntp400
Rp401
(dp402
g8
F24.375
sg9
F22.8
sg10
I00
sg11
I11
sg12
I2
sg13
F114.0
sg14
F560.625
sg15
F45.6
sg16
F48.75
sg17
F5.7
sg18
I00
sbs(I10
I6
tp403
g2
(g3
g4
Ntp404
Rp405
(dp406
g8
F24.375
sg9
F22.8
sg10
I00
sg11
I10
sg12
I6
sg13
F296.40000000000003
sg14
F511.875
sg15
F45.6
sg16
F48.75
sg17
F5.7
sg18
I00
sbs(I7
I7
tp407
g2
(g3
g4
Ntp408
Rp409
(dp410
g8
F24.375
sg9
F22.8
sg10
I00
sg11
I7
sg12
I7
sg13
F342.0
sg14
F365.625
sg15
F45.6
sg16
F48.75
sg17
F5.7
sg18
I00
sbs(I0
I3
tp411
g2
(g3
g4
Ntp412
Rp413
(dp414
g8
F24.375
sg9
F22.8
sg10
I00
sg11
I0
sg12
I3
sg13
F159.60000000000002
sg14
F24.375
sg15
F45.6
sg16
F48.75
sg17
F5.7
sg18
I00
sbs(I1
I2
tp415
g2
(g3
g4
Ntp416
Rp417
(dp418
g8
F24.375
sg9
F22.8
sg10
I00
sg11
I1
sg12
I2
sg13
F114.0
sg14
F73.125
sg15
F45.6
sg16
F48.75
sg17
F5.7
sg18
I00
sbs(I4
I9
tp419
g2
(g3
g4
Ntp420
Rp421
(dp422
g8
F24.375
sg9
F22.8
sg10
I00
sg11
I4
sg12
I9
sg13
F433.20000000000005
sg14
F219.375
sg15
F45.6
sg16
F48.75
sg17
F5.7
sg18
I00
sbs(I3
I3
tp423
g2
(g3
g4
Ntp424
Rp425
(dp426
g8
F24.375
sg9
F22.8
sg10
I00
sg11
I3
sg12
I3
sg13
F159.60000000000002
sg14
F170.625
sg15
F45.6
sg16
F48.75
sg17
F5.7
sg18
I00
sbs(I2
I9
tp427
g2
(g3
g4
Ntp428
Rp429
(dp430
g8
F24.375
sg9
F22.8
sg10
I00
sg11
I2
sg12
I9
sg13
F433.20000000000005
sg14
F121.875
sg15
F45.6
sg16
F48.75
sg17
F5.7
sg18
I00
sbs(I8
I1
tp431
g2
(g3
g4
Ntp432
Rp433
(dp434
g8
F24.375
sg9
F22.8
sg10
I00
sg11
I8
sg12
I1
sg13
F68.4
sg14
F414.375
sg15
F45.6
sg16
F48.75
sg17
F5.7
sg18
I00
sbs(I4
I4
tp435
g2
(g3
g4
Ntp436
Rp437
(dp438
g8
F24.375
sg9
F22.8
sg10
I00
sg11
I4
sg12
I4
sg13
F205.20000000000002
sg14
F219.375
sg15
F45.6
sg16
F48.75
sg17
F5.7
sg18
I00
sbs(I6
I3
tp439
g2
(g3
g4
Ntp440
Rp441
(dp442
g8
F24.375
sg9
F22.8
sg10
I00
sg11
I6
sg12
I3
sg13
F159.60000000000002
sg14
F316.875
sg15
F45.6
sg16
F48.75
sg17
F5.7
sg18
I00
sbs(I11
I1
tp443
g2
(g3
g4
Ntp444
Rp445
(dp446
g8
F24.375
sg9
F22.8
sg10
I00
sg11
I11
sg12
I1
sg13
F68.4
sg14
F560.625
sg15
F45.6
sg16
F48.75
sg17
F5.7
sg18
I00
sbs(I0
I0
tp447
g2
(g3
g4
Ntp448
Rp449
(dp450
g8
F24.375
sg9
F22.8
sg10
I00
sg11
I0
sg12
I0
sg13
F22.8
sg14
F24.375
sg15
F45.6
sg16
F48.75
sg17
F5.7
sg18
I00
sbs(I10
I1
tp451
g2
(g3
g4
Ntp452
Rp453
(dp454
g8
F24.375
sg9
F22.8
sg10
I00
sg11
I10
sg12
I1
sg13
F68.4
sg14
F511.875
sg15
F45.6
sg16
F48.75
sg17
F5.7
sg18
I00
sbs(I7
I9
tp455
g2
(g3
g4
Ntp456
Rp457
(dp458
g8
F24.375
sg9
F22.8
sg10
I00
sg11
I7
sg12
I9
sg13
F433.20000000000005
sg14
F365.625
sg15
F45.6
sg16
F48.75
sg17
F5.7
sg18
I00
sbs(I3
I8
tp459
g2
(g3
g4
Ntp460
Rp461
(dp462
g8
F24.375
sg9
F22.8
sg10
I00
sg11
I3
sg12
I8
sg13
F387.6
sg14
F170.625
sg15
F45.6
sg16
F48.75
sg17
F5.7
sg18
I00
sbs(I2
I0
tp463
g2
(g3
g4
Ntp464
Rp465
(dp466
g8
F24.375
sg9
F22.8
sg10
I00
sg11
I2
sg12
I0
sg13
F22.8
sg14
F121.875
sg15
F45.6
sg16
F48.75
sg17
F5.7
sg18
I00
sbs(I1
I8
tp467
g2
(g3
g4
Ntp468
Rp469
(dp470
g8
F24.375
sg9
F22.8
sg10
I00
sg11
I1
sg12
I8
sg13
F387.6
sg14
F73.125
sg15
F45.6
sg16
F48.75
sg17
F5.7
sg18
I00
sbs(I8
I8
tp471
g2
(g3
g4
Ntp472
Rp473
(dp474
g8
F24.375
sg9
F22.8
sg10
I00
sg11
I8
sg12
I8
sg13
F387.6
sg14
F414.375
sg15
F45.6
sg16
F48.75
sg17
F5.7
sg18
I00
sbs(I4
I3
tp475
g2
(g3
g4
Ntp476
Rp477
(dp478
g8
F24.375
sg9
F22.8
sg10
I00
sg11
I4
sg12
I3
sg13
F159.60000000000002
sg14
F219.375
sg15
F45.6
sg16
F48.75
sg17
F5.7
sg18
I00
sbs(I9
I5
tp479
g2
(g3
g4
Ntp480
Rp481
(dp482
g8
F24.375
sg9
F22.8
sg10
I00
sg11
I9
sg12
I5
sg13
F250.8
sg14
F463.125
sg15
F45.6
sg16
F48.75
sg17
F5.7
sg18
I00
sbs(I5
I2
tp483
g2
(g3
g4
Ntp484
Rp485
(dp486
g8
F24.375
sg9
F22.8
sg10
I00
sg11
I5
sg12
I2
sg13
F114.0
sg14
F268.125
sg15
F45.6
sg16
F48.75
sg17
F5.7
sg18
I00
sbs(I11
I6
tp487
g2
(g3
g4
Ntp488
Rp489
(dp490
g8
F24.375
sg9
F22.8
sg10
I00
sg11
I11
sg12
I6
sg13
F296.40000000000003
sg14
F560.625
sg15
F45.6
sg16
F48.75
sg17
F5.7
sg18
I00
sbs(I10
I2
tp491
g2
(g3
g4
Ntp492
Rp493
(dp494
g8
F24.375
sg9
F22.8
sg10
I00
sg11
I10
sg12
I2
sg13
F114.0
sg14
F511.875
sg15
F45.6
sg16
F48.75
sg17
F5.7
sg18
I00
sbs.